
OBJ/place.o:     file format elf64-x86-64


Disassembly of section .text:

0000000000000000 <try_place>:
       0:	55                   	push   %rbp
       1:	48 89 e5             	mov    %rsp,%rbp
       4:	41 57                	push   %r15
       6:	41 56                	push   %r14
       8:	41 55                	push   %r13
       a:	41 54                	push   %r12
       c:	53                   	push   %rbx
       d:	48 81 ec 18 03 00 00 	sub    $0x318,%rsp
      14:	e8 00 00 00 00       	callq  19 <try_place+0x19>
      19:	48 89 bd a8 fd ff ff 	mov    %rdi,-0x258(%rbp)
      20:	f3 0f 11 85 7c fd ff 	movss  %xmm0,-0x284(%rbp)
      27:	ff 
      28:	8b 85 7c fd ff ff    	mov    -0x284(%rbp),%eax
      2e:	48 89 95 90 fd ff ff 	mov    %rdx,-0x270(%rbp)
      35:	48 89 8d 88 fd ff ff 	mov    %rcx,-0x278(%rbp)
      3c:	48 89 b5 98 fd ff ff 	mov    %rsi,-0x268(%rbp)
      43:	89 85 a0 fd ff ff    	mov    %eax,-0x260(%rbp)
      49:	8b 05 00 00 00 00    	mov    0x0(%rip),%eax        # 4f <try_place+0x4f>
      4f:	48 98                	cltq   
      51:	48 c1 e0 02          	shl    $0x2,%rax
      55:	48 89 c7             	mov    %rax,%rdi
      58:	e8 00 00 00 00       	callq  5d <try_place+0x5d>
      5d:	48 89 85 50 ff ff ff 	mov    %rax,-0xb0(%rbp)
      64:	48 c7 85 58 ff ff ff 	movq   $0x0,-0xa8(%rbp)
      6b:	00 00 00 00 
      6f:	8b 45 10             	mov    0x10(%rbp),%eax
      72:	83 f8 01             	cmp    $0x1,%eax
      75:	74 13                	je     8a <try_place+0x8a>
      77:	8b 45 10             	mov    0x10(%rbp),%eax
      7a:	83 f8 02             	cmp    $0x2,%eax
      7d:	74 0b                	je     8a <try_place+0x8a>
      7f:	8b 45 44             	mov    0x44(%rbp),%eax
      82:	85 c0                	test   %eax,%eax
      84:	0f 84 45 01 00 00    	je     1cf <try_place+0x1cf>
      8a:	48 8d 8d b8 fd ff ff 	lea    -0x248(%rbp),%rcx
      91:	48 8d 95 b0 fd ff ff 	lea    -0x250(%rbp),%rdx
      98:	48 8b b5 98 fd ff ff 	mov    -0x268(%rbp),%rsi
      9f:	8b bd a0 fd ff ff    	mov    -0x260(%rbp),%edi
      a5:	4c 8b 85 a8 fd ff ff 	mov    -0x258(%rbp),%r8
      ac:	48 8b 85 90 fd ff ff 	mov    -0x270(%rbp),%rax
      b3:	4c 8b 08             	mov    (%rax),%r9
      b6:	4c 89 8c 24 90 00 00 	mov    %r9,0x90(%rsp)
      bd:	00 
      be:	4c 8b 48 08          	mov    0x8(%rax),%r9
      c2:	4c 89 8c 24 98 00 00 	mov    %r9,0x98(%rsp)
      c9:	00 
      ca:	48 8b 40 10          	mov    0x10(%rax),%rax
      ce:	48 89 84 24 a0 00 00 	mov    %rax,0xa0(%rsp)
      d5:	00 
      d6:	48 8b 85 e0 00 00 00 	mov    0xe0(%rbp),%rax
      dd:	48 89 44 24 70       	mov    %rax,0x70(%rsp)
      e2:	48 8b 85 e8 00 00 00 	mov    0xe8(%rbp),%rax
      e9:	48 89 44 24 78       	mov    %rax,0x78(%rsp)
      ee:	48 8b 85 f0 00 00 00 	mov    0xf0(%rbp),%rax
      f5:	48 89 84 24 80 00 00 	mov    %rax,0x80(%rsp)
      fc:	00 
      fd:	48 8b 85 f8 00 00 00 	mov    0xf8(%rbp),%rax
     104:	48 89 84 24 88 00 00 	mov    %rax,0x88(%rsp)
     10b:	00 
     10c:	48 8b 85 a0 00 00 00 	mov    0xa0(%rbp),%rax
     113:	48 89 44 24 30       	mov    %rax,0x30(%rsp)
     118:	48 8b 85 a8 00 00 00 	mov    0xa8(%rbp),%rax
     11f:	48 89 44 24 38       	mov    %rax,0x38(%rsp)
     124:	48 8b 85 b0 00 00 00 	mov    0xb0(%rbp),%rax
     12b:	48 89 44 24 40       	mov    %rax,0x40(%rsp)
     130:	48 8b 85 b8 00 00 00 	mov    0xb8(%rbp),%rax
     137:	48 89 44 24 48       	mov    %rax,0x48(%rsp)
     13c:	48 8b 85 c0 00 00 00 	mov    0xc0(%rbp),%rax
     143:	48 89 44 24 50       	mov    %rax,0x50(%rsp)
     148:	48 8b 85 c8 00 00 00 	mov    0xc8(%rbp),%rax
     14f:	48 89 44 24 58       	mov    %rax,0x58(%rsp)
     154:	48 8b 85 d0 00 00 00 	mov    0xd0(%rbp),%rax
     15b:	48 89 44 24 60       	mov    %rax,0x60(%rsp)
     160:	48 8b 85 d8 00 00 00 	mov    0xd8(%rbp),%rax
     167:	48 89 44 24 68       	mov    %rax,0x68(%rsp)
     16c:	48 8b 45 70          	mov    0x70(%rbp),%rax
     170:	48 89 04 24          	mov    %rax,(%rsp)
     174:	48 8b 45 78          	mov    0x78(%rbp),%rax
     178:	48 89 44 24 08       	mov    %rax,0x8(%rsp)
     17d:	48 8b 85 80 00 00 00 	mov    0x80(%rbp),%rax
     184:	48 89 44 24 10       	mov    %rax,0x10(%rsp)
     189:	48 8b 85 88 00 00 00 	mov    0x88(%rbp),%rax
     190:	48 89 44 24 18       	mov    %rax,0x18(%rsp)
     195:	48 8b 85 90 00 00 00 	mov    0x90(%rbp),%rax
     19c:	48 89 44 24 20       	mov    %rax,0x20(%rsp)
     1a1:	8b 85 98 00 00 00    	mov    0x98(%rbp),%eax
     1a7:	89 44 24 28          	mov    %eax,0x28(%rsp)
     1ab:	89 bd 7c fd ff ff    	mov    %edi,-0x284(%rbp)
     1b1:	f3 0f 10 85 7c fd ff 	movss  -0x284(%rbp),%xmm0
     1b8:	ff 
     1b9:	4c 89 c7             	mov    %r8,%rdi
     1bc:	e8 00 00 00 00       	callq  1c1 <try_place+0x1c1>
     1c1:	48 8b 85 b0 fd ff ff 	mov    -0x250(%rbp),%rax
     1c8:	48 89 85 58 ff ff ff 	mov    %rax,-0xa8(%rbp)
     1cf:	8b 45 24             	mov    0x24(%rbp),%eax
     1d2:	89 85 4c ff ff ff    	mov    %eax,-0xb4(%rbp)
     1d8:	8b 45 28             	mov    0x28(%rbp),%eax
     1db:	85 c0                	test   %eax,%eax
     1dd:	75 0c                	jne    1eb <try_place+0x1eb>
     1df:	c7 85 7c ff ff ff 00 	movl   $0x0,-0x84(%rbp)
     1e6:	00 00 00 
     1e9:	eb 0a                	jmp    1f5 <try_place+0x1f5>
     1eb:	c7 85 7c ff ff ff 01 	movl   $0x1,-0x84(%rbp)
     1f2:	00 00 00 
     1f5:	8b 85 4c ff ff ff    	mov    -0xb4(%rbp),%eax
     1fb:	48 8b 55 70          	mov    0x70(%rbp),%rdx
     1ff:	48 89 14 24          	mov    %rdx,(%rsp)
     203:	48 8b 55 78          	mov    0x78(%rbp),%rdx
     207:	48 89 54 24 08       	mov    %rdx,0x8(%rsp)
     20c:	48 8b 95 80 00 00 00 	mov    0x80(%rbp),%rdx
     213:	48 89 54 24 10       	mov    %rdx,0x10(%rsp)
     218:	48 8b 95 88 00 00 00 	mov    0x88(%rbp),%rdx
     21f:	48 89 54 24 18       	mov    %rdx,0x18(%rsp)
     224:	48 8b 95 90 00 00 00 	mov    0x90(%rbp),%rdx
     22b:	48 89 54 24 20       	mov    %rdx,0x20(%rsp)
     230:	8b 95 98 00 00 00    	mov    0x98(%rbp),%edx
     236:	89 54 24 28          	mov    %edx,0x28(%rsp)
     23a:	89 c7                	mov    %eax,%edi
     23c:	e8 00 00 00 00       	callq  241 <try_place+0x241>
     241:	8b 45 20             	mov    0x20(%rbp),%eax
     244:	8b 75 3c             	mov    0x3c(%rbp),%esi
     247:	8b 55 1c             	mov    0x1c(%rbp),%edx
     24a:	89 d7                	mov    %edx,%edi
     24c:	48 8d 8d f8 fe ff ff 	lea    -0x108(%rbp),%rcx
     253:	48 8d 95 00 ff ff ff 	lea    -0x100(%rbp),%rdx
     25a:	4c 8b 45 10          	mov    0x10(%rbp),%r8
     25e:	4c 89 04 24          	mov    %r8,(%rsp)
     262:	4c 8b 45 18          	mov    0x18(%rbp),%r8
     266:	4c 89 44 24 08       	mov    %r8,0x8(%rsp)
     26b:	4c 8b 45 20          	mov    0x20(%rbp),%r8
     26f:	4c 89 44 24 10       	mov    %r8,0x10(%rsp)
     274:	4c 8b 45 28          	mov    0x28(%rbp),%r8
     278:	4c 89 44 24 18       	mov    %r8,0x18(%rsp)
     27d:	4c 8b 45 30          	mov    0x30(%rbp),%r8
     281:	4c 89 44 24 20       	mov    %r8,0x20(%rsp)
     286:	4c 8b 45 38          	mov    0x38(%rbp),%r8
     28a:	4c 89 44 24 28       	mov    %r8,0x28(%rsp)
     28f:	4c 8b 45 40          	mov    0x40(%rbp),%r8
     293:	4c 89 44 24 30       	mov    %r8,0x30(%rsp)
     298:	4c 8b 45 48          	mov    0x48(%rbp),%r8
     29c:	4c 89 44 24 38       	mov    %r8,0x38(%rsp)
     2a1:	4c 8b 45 50          	mov    0x50(%rbp),%r8
     2a5:	4c 89 44 24 40       	mov    %r8,0x40(%rsp)
     2aa:	89 85 7c fd ff ff    	mov    %eax,-0x284(%rbp)
     2b0:	f3 0f 10 85 7c fd ff 	movss  -0x284(%rbp),%xmm0
     2b7:	ff 
     2b8:	e8 9e 5f 00 00       	callq  625b <alloc_and_load_placement_structs>
     2bd:	48 8b 55 30          	mov    0x30(%rbp),%rdx
     2c1:	8b 45 28             	mov    0x28(%rbp),%eax
     2c4:	48 89 d6             	mov    %rdx,%rsi
     2c7:	89 c7                	mov    %eax,%edi
     2c9:	e8 e9 81 00 00       	callq  84b7 <initial_placement>
     2ce:	f3 0f 2a 85 4c ff ff 	cvtsi2ssl -0xb4(%rbp),%xmm0
     2d5:	ff 
     2d6:	e8 00 00 00 00       	callq  2db <try_place+0x2db>
     2db:	8b 45 10             	mov    0x10(%rbp),%eax
     2de:	83 f8 01             	cmp    $0x1,%eax
     2e1:	74 0c                	je     2ef <try_place+0x2ef>
     2e3:	8b 45 10             	mov    0x10(%rbp),%eax
     2e6:	83 f8 02             	cmp    $0x2,%eax
     2e9:	0f 85 8d 02 00 00    	jne    57c <try_place+0x57c>
     2ef:	8b 55 3c             	mov    0x3c(%rbp),%edx
     2f2:	8b 45 1c             	mov    0x1c(%rbp),%eax
     2f5:	89 c6                	mov    %eax,%esi
     2f7:	bf 00 00 00 00       	mov    $0x0,%edi
     2fc:	e8 d0 51 00 00       	callq  54d1 <comp_bb_cost>
     301:	f3 0f 11 85 7c fd ff 	movss  %xmm0,-0x284(%rbp)
     308:	ff 
     309:	8b 85 7c fd ff ff    	mov    -0x284(%rbp),%eax
     30f:	89 85 14 ff ff ff    	mov    %eax,-0xec(%rbp)
     315:	8b 45 4c             	mov    0x4c(%rbp),%eax
     318:	89 85 60 ff ff ff    	mov    %eax,-0xa0(%rbp)
     31e:	e8 45 1c 00 00       	callq  1f68 <compute_net_pin_index_values>
     323:	e8 c3 1b 00 00       	callq  1eeb <count_connections>
     328:	89 85 78 ff ff ff    	mov    %eax,-0x88(%rbp)
     32e:	8b 85 78 ff ff ff    	mov    -0x88(%rbp),%eax
     334:	89 c6                	mov    %eax,%esi
     336:	bf 00 00 00 00       	mov    $0x0,%edi
     33b:	b8 00 00 00 00       	mov    $0x0,%eax
     340:	e8 00 00 00 00       	callq  345 <try_place+0x345>
     345:	8b 45 10             	mov    0x10(%rbp),%eax
     348:	83 f8 01             	cmp    $0x1,%eax
     34b:	0f 85 f0 00 00 00    	jne    441 <try_place+0x441>
     351:	c7 85 74 ff ff ff 00 	movl   $0x0,-0x8c(%rbp)
     358:	00 00 00 
     35b:	eb 78                	jmp    3d5 <try_place+0x3d5>
     35d:	c7 85 70 ff ff ff 01 	movl   $0x1,-0x90(%rbp)
     364:	00 00 00 
     367:	eb 39                	jmp    3a2 <try_place+0x3a2>
     369:	48 8b 05 00 00 00 00 	mov    0x0(%rip),%rax        # 370 <try_place+0x370>
     370:	8b 95 74 ff ff ff    	mov    -0x8c(%rbp),%edx
     376:	48 63 d2             	movslq %edx,%rdx
     379:	48 c1 e2 03          	shl    $0x3,%rdx
     37d:	48 01 d0             	add    %rdx,%rax
     380:	48 8b 00             	mov    (%rax),%rax
     383:	8b 95 70 ff ff ff    	mov    -0x90(%rbp),%edx
     389:	48 63 d2             	movslq %edx,%rdx
     38c:	48 c1 e2 02          	shl    $0x2,%rdx
     390:	48 01 c2             	add    %rax,%rdx
     393:	8b 05 00 00 00 00    	mov    0x0(%rip),%eax        # 399 <try_place+0x399>
     399:	89 02                	mov    %eax,(%rdx)
     39b:	83 85 70 ff ff ff 01 	addl   $0x1,-0x90(%rbp)
     3a2:	48 8b 0d 00 00 00 00 	mov    0x0(%rip),%rcx        # 3a9 <try_place+0x3a9>
     3a9:	8b 85 74 ff ff ff    	mov    -0x8c(%rbp),%eax
     3af:	48 63 d0             	movslq %eax,%rdx
     3b2:	48 89 d0             	mov    %rdx,%rax
     3b5:	48 c1 e0 02          	shl    $0x2,%rax
     3b9:	48 01 d0             	add    %rdx,%rax
     3bc:	48 c1 e0 03          	shl    $0x3,%rax
     3c0:	48 01 c8             	add    %rcx,%rax
     3c3:	8b 40 08             	mov    0x8(%rax),%eax
     3c6:	3b 85 70 ff ff ff    	cmp    -0x90(%rbp),%eax
     3cc:	7d 9b                	jge    369 <try_place+0x369>
     3ce:	83 85 74 ff ff ff 01 	addl   $0x1,-0x8c(%rbp)
     3d5:	8b 05 00 00 00 00    	mov    0x0(%rip),%eax        # 3db <try_place+0x3db>
     3db:	39 85 74 ff ff ff    	cmp    %eax,-0x8c(%rbp)
     3e1:	0f 8c 76 ff ff ff    	jl     35d <try_place+0x35d>
     3e7:	48 8d 95 0c ff ff ff 	lea    -0xf4(%rbp),%rdx
     3ee:	48 8d 85 18 ff ff ff 	lea    -0xe8(%rbp),%rax
     3f5:	48 89 d6             	mov    %rdx,%rsi
     3f8:	48 89 c7             	mov    %rax,%rdi
     3fb:	e8 00 4f 00 00       	callq  5300 <comp_td_costs>
     400:	f3 0f 10 8d 0c ff ff 	movss  -0xf4(%rbp),%xmm1
     407:	ff 
     408:	f3 0f 2a 85 78 ff ff 	cvtsi2ssl -0x88(%rbp),%xmm0
     40f:	ff 
     410:	0f 28 d1             	movaps %xmm1,%xmm2
     413:	f3 0f 5e d0          	divss  %xmm0,%xmm2
     417:	0f 28 c2             	movaps %xmm2,%xmm0
     41a:	f3 0f 11 45 b4       	movss  %xmm0,-0x4c(%rbp)
     41f:	48 8b 95 b0 fd ff ff 	mov    -0x250(%rbp),%rdx
     426:	8b 45 b4             	mov    -0x4c(%rbp),%eax
     429:	89 85 7c fd ff ff    	mov    %eax,-0x284(%rbp)
     42f:	f3 0f 10 85 7c fd ff 	movss  -0x284(%rbp),%xmm0
     436:	ff 
     437:	48 89 d7             	mov    %rdx,%rdi
     43a:	e8 00 00 00 00       	callq  43f <try_place+0x43f>
     43f:	eb 09                	jmp    44a <try_place+0x44a>
     441:	8b 05 00 00 00 00    	mov    0x0(%rip),%eax        # 447 <try_place+0x447>
     447:	89 45 b4             	mov    %eax,-0x4c(%rbp)
     44a:	8b 45 10             	mov    0x10(%rbp),%eax
     44d:	83 f8 02             	cmp    $0x2,%eax
     450:	75 0e                	jne    460 <try_place+0x460>
     452:	48 8b 05 00 00 00 00 	mov    0x0(%rip),%rax        # 459 <try_place+0x459>
     459:	48 89 85 b0 fd ff ff 	mov    %rax,-0x250(%rbp)
     460:	48 8b 85 b0 fd ff ff 	mov    -0x250(%rbp),%rax
     467:	48 89 c7             	mov    %rax,%rdi
     46a:	e8 00 00 00 00       	callq  46f <try_place+0x46f>
     46f:	48 8b 85 b8 fd ff ff 	mov    -0x248(%rbp),%rax
     476:	0f 57 c0             	xorps  %xmm0,%xmm0
     479:	48 89 c7             	mov    %rax,%rdi
     47c:	e8 00 00 00 00       	callq  481 <try_place+0x481>
     481:	f3 0f 11 85 7c fd ff 	movss  %xmm0,-0x284(%rbp)
     488:	ff 
     489:	8b 85 7c fd ff ff    	mov    -0x284(%rbp),%eax
     48f:	89 45 b8             	mov    %eax,-0x48(%rbp)
     492:	48 8b 8d b8 fd ff ff 	mov    -0x248(%rbp),%rcx
     499:	8b 95 60 ff ff ff    	mov    -0xa0(%rbp),%edx
     49f:	8b 45 b8             	mov    -0x48(%rbp),%eax
     4a2:	48 8b 75 10          	mov    0x10(%rbp),%rsi
     4a6:	48 89 34 24          	mov    %rsi,(%rsp)
     4aa:	48 8b 75 18          	mov    0x18(%rbp),%rsi
     4ae:	48 89 74 24 08       	mov    %rsi,0x8(%rsp)
     4b3:	48 8b 75 20          	mov    0x20(%rbp),%rsi
     4b7:	48 89 74 24 10       	mov    %rsi,0x10(%rsp)
     4bc:	48 8b 75 28          	mov    0x28(%rbp),%rsi
     4c0:	48 89 74 24 18       	mov    %rsi,0x18(%rsp)
     4c5:	48 8b 75 30          	mov    0x30(%rbp),%rsi
     4c9:	48 89 74 24 20       	mov    %rsi,0x20(%rsp)
     4ce:	48 8b 75 38          	mov    0x38(%rbp),%rsi
     4d2:	48 89 74 24 28       	mov    %rsi,0x28(%rsp)
     4d7:	48 8b 75 40          	mov    0x40(%rbp),%rsi
     4db:	48 89 74 24 30       	mov    %rsi,0x30(%rsp)
     4e0:	48 8b 75 48          	mov    0x48(%rbp),%rsi
     4e4:	48 89 74 24 38       	mov    %rsi,0x38(%rsp)
     4e9:	48 8b 75 50          	mov    0x50(%rbp),%rsi
     4ed:	48 89 74 24 40       	mov    %rsi,0x40(%rsp)
     4f2:	89 95 7c fd ff ff    	mov    %edx,-0x284(%rbp)
     4f8:	f3 0f 10 8d 7c fd ff 	movss  -0x284(%rbp),%xmm1
     4ff:	ff 
     500:	89 85 7c fd ff ff    	mov    %eax,-0x284(%rbp)
     506:	f3 0f 10 85 7c fd ff 	movss  -0x284(%rbp),%xmm0
     50d:	ff 
     50e:	48 89 cf             	mov    %rcx,%rdi
     511:	e8 00 00 00 00       	callq  516 <try_place+0x516>
     516:	c7 85 6c ff ff ff 01 	movl   $0x1,-0x94(%rbp)
     51d:	00 00 00 
     520:	48 8d 95 0c ff ff ff 	lea    -0xf4(%rbp),%rdx
     527:	48 8d 85 18 ff ff ff 	lea    -0xe8(%rbp),%rax
     52e:	48 89 d6             	mov    %rdx,%rsi
     531:	48 89 c7             	mov    %rax,%rdi
     534:	e8 c7 4d 00 00       	callq  5300 <comp_td_costs>
     539:	f3 0f 10 8d 18 ff ff 	movss  -0xe8(%rbp),%xmm1
     540:	ff 
     541:	f3 0f 10 05 00 00 00 	movss  0x0(%rip),%xmm0        # 549 <try_place+0x549>
     548:	00 
     549:	f3 0f 5e c1          	divss  %xmm1,%xmm0
     54d:	f3 0f 11 45 ac       	movss  %xmm0,-0x54(%rbp)
     552:	f3 0f 10 8d 14 ff ff 	movss  -0xec(%rbp),%xmm1
     559:	ff 
     55a:	f3 0f 10 05 00 00 00 	movss  0x0(%rip),%xmm0        # 562 <try_place+0x562>
     561:	00 
     562:	f3 0f 5e c1          	divss  %xmm1,%xmm0
     566:	f3 0f 11 45 b0       	movss  %xmm0,-0x50(%rbp)
     56b:	8b 05 00 00 00 00    	mov    0x0(%rip),%eax        # 571 <try_place+0x571>
     571:	89 85 1c ff ff ff    	mov    %eax,-0xe4(%rbp)
     577:	e9 8e 00 00 00       	jmpq   60a <try_place+0x60a>
     57c:	8b 55 3c             	mov    0x3c(%rbp),%edx
     57f:	8b 45 1c             	mov    0x1c(%rbp),%eax
     582:	89 c6                	mov    %eax,%esi
     584:	bf 00 00 00 00       	mov    $0x0,%edi
     589:	e8 43 4f 00 00       	callq  54d1 <comp_bb_cost>
     58e:	f3 0f 11 85 7c fd ff 	movss  %xmm0,-0x284(%rbp)
     595:	ff 
     596:	8b 85 7c fd ff ff    	mov    -0x284(%rbp),%eax
     59c:	89 85 14 ff ff ff    	mov    %eax,-0xec(%rbp)
     5a2:	8b 85 14 ff ff ff    	mov    -0xec(%rbp),%eax
     5a8:	89 85 1c ff ff ff    	mov    %eax,-0xe4(%rbp)
     5ae:	8b 05 00 00 00 00    	mov    0x0(%rip),%eax        # 5b4 <try_place+0x5b4>
     5b4:	89 85 18 ff ff ff    	mov    %eax,-0xe8(%rbp)
     5ba:	8b 05 00 00 00 00    	mov    0x0(%rip),%eax        # 5c0 <try_place+0x5c0>
     5c0:	89 85 0c ff ff ff    	mov    %eax,-0xf4(%rbp)
     5c6:	8b 05 00 00 00 00    	mov    0x0(%rip),%eax        # 5cc <try_place+0x5cc>
     5cc:	89 45 b4             	mov    %eax,-0x4c(%rbp)
     5cf:	c7 85 6c ff ff ff 00 	movl   $0x0,-0x94(%rbp)
     5d6:	00 00 00 
     5d9:	c7 85 78 ff ff ff 00 	movl   $0x0,-0x88(%rbp)
     5e0:	00 00 00 
     5e3:	8b 05 00 00 00 00    	mov    0x0(%rip),%eax        # 5e9 <try_place+0x5e9>
     5e9:	89 45 b8             	mov    %eax,-0x48(%rbp)
     5ec:	8b 05 00 00 00 00    	mov    0x0(%rip),%eax        # 5f2 <try_place+0x5f2>
     5f2:	89 85 60 ff ff ff    	mov    %eax,-0xa0(%rbp)
     5f8:	8b 05 00 00 00 00    	mov    0x0(%rip),%eax        # 5fe <try_place+0x5fe>
     5fe:	89 45 ac             	mov    %eax,-0x54(%rbp)
     601:	8b 05 00 00 00 00    	mov    0x0(%rip),%eax        # 607 <try_place+0x607>
     607:	89 45 b0             	mov    %eax,-0x50(%rbp)
     60a:	f3 0f 10 45 5c       	movss  0x5c(%rbp),%xmm0
     60f:	0f 14 c0             	unpcklps %xmm0,%xmm0
     612:	0f 5a c0             	cvtps2pd %xmm0,%xmm0
     615:	f2 0f 11 85 80 fd ff 	movsd  %xmm0,-0x280(%rbp)
     61c:	ff 
     61d:	8b 05 00 00 00 00    	mov    0x0(%rip),%eax        # 623 <try_place+0x623>
     623:	f2 0f 2a c0          	cvtsi2sd %eax,%xmm0
     627:	48 b8 da 1b 7c 61 32 	movabs $0x3ff55532617c1bda,%rax
     62e:	55 f5 3f 
     631:	48 89 85 70 fd ff ff 	mov    %rax,-0x290(%rbp)
     638:	f2 0f 10 8d 70 fd ff 	movsd  -0x290(%rbp),%xmm1
     63f:	ff 
     640:	e8 00 00 00 00       	callq  645 <try_place+0x645>
     645:	f2 0f 59 85 80 fd ff 	mulsd  -0x280(%rbp),%xmm0
     64c:	ff 
     64d:	f2 0f 2c c0          	cvttsd2si %xmm0,%eax
     651:	89 45 c0             	mov    %eax,-0x40(%rbp)
     654:	8b 45 48             	mov    0x48(%rbp),%eax
     657:	85 c0                	test   %eax,%eax
     659:	74 2e                	je     689 <try_place+0x689>
     65b:	f3 0f 2a 45 c0       	cvtsi2ssl -0x40(%rbp),%xmm0
     660:	8b 45 48             	mov    0x48(%rbp),%eax
     663:	f3 0f 2a c8          	cvtsi2ss %eax,%xmm1
     667:	f3 0f 5e c1          	divss  %xmm1,%xmm0
     66b:	0f 14 c0             	unpcklps %xmm0,%xmm0
     66e:	0f 5a c0             	cvtps2pd %xmm0,%xmm0
     671:	f2 0f 10 0d 00 00 00 	movsd  0x0(%rip),%xmm1        # 679 <try_place+0x679>
     678:	00 
     679:	f2 0f 58 c1          	addsd  %xmm1,%xmm0
     67d:	f2 0f 2c c0          	cvttsd2si %xmm0,%eax
     681:	89 85 64 ff ff ff    	mov    %eax,-0x9c(%rbp)
     687:	eb 0c                	jmp    695 <try_place+0x695>
     689:	8b 45 c0             	mov    -0x40(%rbp),%eax
     68c:	83 c0 01             	add    $0x1,%eax
     68f:	89 85 64 ff ff ff    	mov    %eax,-0x9c(%rbp)
     695:	83 7d c0 00          	cmpl   $0x0,-0x40(%rbp)
     699:	7f 07                	jg     6a2 <try_place+0x6a2>
     69b:	c7 45 c0 01 00 00 00 	movl   $0x1,-0x40(%rbp)
     6a2:	8b 15 00 00 00 00    	mov    0x0(%rip),%edx        # 6a8 <try_place+0x6a8>
     6a8:	8b 05 00 00 00 00    	mov    0x0(%rip),%eax        # 6ae <try_place+0x6ae>
     6ae:	39 c2                	cmp    %eax,%edx
     6b0:	7e 0c                	jle    6be <try_place+0x6be>
     6b2:	8b 05 00 00 00 00    	mov    0x0(%rip),%eax        # 6b8 <try_place+0x6b8>
     6b8:	f3 0f 2a c0          	cvtsi2ss %eax,%xmm0
     6bc:	eb 0a                	jmp    6c8 <try_place+0x6c8>
     6be:	8b 05 00 00 00 00    	mov    0x0(%rip),%eax        # 6c4 <try_place+0x6c4>
     6c4:	f3 0f 2a c0          	cvtsi2ss %eax,%xmm0
     6c8:	f3 0f 11 85 20 ff ff 	movss  %xmm0,-0xe0(%rbp)
     6cf:	ff 
     6d0:	8b 85 20 ff ff ff    	mov    -0xe0(%rbp),%eax
     6d6:	89 85 48 ff ff ff    	mov    %eax,-0xb8(%rbp)
     6dc:	8b 05 00 00 00 00    	mov    0x0(%rip),%eax        # 6e2 <try_place+0x6e2>
     6e2:	89 85 44 ff ff ff    	mov    %eax,-0xbc(%rbp)
     6e8:	f3 0f 10 85 48 ff ff 	movss  -0xb8(%rbp),%xmm0
     6ef:	ff 
     6f0:	f3 0f 5c 85 44 ff ff 	subss  -0xbc(%rbp),%xmm0
     6f7:	ff 
     6f8:	f3 0f 10 0d 00 00 00 	movss  0x0(%rip),%xmm1        # 700 <try_place+0x700>
     6ff:	00 
     700:	0f 28 d1             	movaps %xmm1,%xmm2
     703:	f3 0f 5e d0          	divss  %xmm0,%xmm2
     707:	0f 28 c2             	movaps %xmm2,%xmm0
     70a:	f3 0f 11 85 40 ff ff 	movss  %xmm0,-0xc0(%rbp)
     711:	ff 
     712:	8b 55 14             	mov    0x14(%rbp),%edx
     715:	44 8b 4d 10          	mov    0x10(%rbp),%r9d
     719:	8b 85 20 ff ff ff    	mov    -0xe0(%rbp),%eax
     71f:	44 8b 45 3c          	mov    0x3c(%rbp),%r8d
     723:	4c 8b b5 f8 fe ff ff 	mov    -0x108(%rbp),%r14
     72a:	4c 8b ad 00 ff ff ff 	mov    -0x100(%rbp),%r13
     731:	8b 4d 1c             	mov    0x1c(%rbp),%ecx
     734:	89 cb                	mov    %ecx,%ebx
     736:	8b 75 ac             	mov    -0x54(%rbp),%esi
     739:	8b 4d b0             	mov    -0x50(%rbp),%ecx
     73c:	4c 8d 9d 18 ff ff ff 	lea    -0xe8(%rbp),%r11
     743:	4c 8d 95 14 ff ff ff 	lea    -0xec(%rbp),%r10
     74a:	48 8d bd 1c ff ff ff 	lea    -0xe4(%rbp),%rdi
     751:	4c 8d a5 0c ff ff ff 	lea    -0xf4(%rbp),%r12
     758:	4c 89 64 24 38       	mov    %r12,0x38(%rsp)
     75d:	44 89 4c 24 30       	mov    %r9d,0x30(%rsp)
     762:	44 8b 4d c0          	mov    -0x40(%rbp),%r9d
     766:	44 89 4c 24 28       	mov    %r9d,0x28(%rsp)
     76b:	4c 8b 4d 58          	mov    0x58(%rbp),%r9
     76f:	4c 89 4c 24 10       	mov    %r9,0x10(%rsp)
     774:	4c 8b 4d 60          	mov    0x60(%rbp),%r9
     778:	4c 89 4c 24 18       	mov    %r9,0x18(%rsp)
     77d:	44 8b 4d 68          	mov    0x68(%rbp),%r9d
     781:	44 89 4c 24 20       	mov    %r9d,0x20(%rsp)
     786:	44 8b 8d 7c ff ff ff 	mov    -0x84(%rbp),%r9d
     78d:	44 89 4c 24 08       	mov    %r9d,0x8(%rsp)
     792:	44 89 04 24          	mov    %r8d,(%rsp)
     796:	89 b5 7c fd ff ff    	mov    %esi,-0x284(%rbp)
     79c:	f3 0f 10 9d 7c fd ff 	movss  -0x284(%rbp),%xmm3
     7a3:	ff 
     7a4:	89 8d 7c fd ff ff    	mov    %ecx,-0x284(%rbp)
     7aa:	f3 0f 10 95 7c fd ff 	movss  -0x284(%rbp),%xmm2
     7b1:	ff 
     7b2:	89 95 7c fd ff ff    	mov    %edx,-0x284(%rbp)
     7b8:	f3 0f 10 8d 7c fd ff 	movss  -0x284(%rbp),%xmm1
     7bf:	ff 
     7c0:	89 85 7c fd ff ff    	mov    %eax,-0x284(%rbp)
     7c6:	f3 0f 10 85 7c fd ff 	movss  -0x284(%rbp),%xmm0
     7cd:	ff 
     7ce:	4d 89 f1             	mov    %r14,%r9
     7d1:	4d 89 e8             	mov    %r13,%r8
     7d4:	89 d9                	mov    %ebx,%ecx
     7d6:	4c 89 da             	mov    %r11,%rdx
     7d9:	4c 89 d6             	mov    %r10,%rsi
     7dc:	e8 26 1c 00 00       	callq  2407 <starting_t>
     7e1:	f3 0f 11 85 7c fd ff 	movss  %xmm0,-0x284(%rbp)
     7e8:	ff 
     7e9:	8b 85 7c fd ff ff    	mov    -0x284(%rbp),%eax
     7ef:	89 85 24 ff ff ff    	mov    %eax,-0xdc(%rbp)
     7f5:	c7 45 cc 00 00 00 00 	movl   $0x0,-0x34(%rbp)
     7fc:	c7 45 bc 00 00 00 00 	movl   $0x0,-0x44(%rbp)
     803:	f3 0f 10 85 0c ff ff 	movss  -0xf4(%rbp),%xmm0
     80a:	ff 
     80b:	0f 14 c0             	unpcklps %xmm0,%xmm0
     80e:	0f 5a d8             	cvtps2pd %xmm0,%xmm3
     811:	f3 0f 10 85 18 ff ff 	movss  -0xe8(%rbp),%xmm0
     818:	ff 
     819:	0f 14 c0             	unpcklps %xmm0,%xmm0
     81c:	0f 5a d0             	cvtps2pd %xmm0,%xmm2
     81f:	f3 0f 10 85 14 ff ff 	movss  -0xec(%rbp),%xmm0
     826:	ff 
     827:	0f 14 c0             	unpcklps %xmm0,%xmm0
     82a:	0f 5a c8             	cvtps2pd %xmm0,%xmm1
     82d:	f3 0f 10 85 1c ff ff 	movss  -0xe4(%rbp),%xmm0
     834:	ff 
     835:	0f 14 c0             	unpcklps %xmm0,%xmm0
     838:	0f 5a c0             	cvtps2pd %xmm0,%xmm0
     83b:	bf 00 00 00 00       	mov    $0x0,%edi
     840:	b8 04 00 00 00       	mov    $0x4,%eax
     845:	e8 00 00 00 00       	callq  84a <try_place+0x84a>
     84a:	48 c7 44 24 38 00 00 	movq   $0x0,0x38(%rsp)
     851:	00 00 
     853:	48 c7 44 24 30 00 00 	movq   $0x0,0x30(%rsp)
     85a:	00 00 
     85c:	48 c7 44 24 28 00 00 	movq   $0x0,0x28(%rsp)
     863:	00 00 
     865:	48 c7 44 24 20 00 00 	movq   $0x0,0x20(%rsp)
     86c:	00 00 
     86e:	48 c7 44 24 18 00 00 	movq   $0x0,0x18(%rsp)
     875:	00 00 
     877:	48 c7 44 24 10 00 00 	movq   $0x0,0x10(%rsp)
     87e:	00 00 
     880:	48 c7 44 24 08 00 00 	movq   $0x0,0x8(%rsp)
     887:	00 00 
     889:	48 c7 04 24 00 00 00 	movq   $0x0,(%rsp)
     890:	00 
     891:	41 b9 00 00 00 00    	mov    $0x0,%r9d
     897:	41 b8 00 00 00 00    	mov    $0x0,%r8d
     89d:	b9 00 00 00 00       	mov    $0x0,%ecx
     8a2:	ba 00 00 00 00       	mov    $0x0,%edx
     8a7:	be 00 00 00 00       	mov    $0x0,%esi
     8ac:	bf 00 00 00 00       	mov    $0x0,%edi
     8b1:	b8 00 00 00 00       	mov    $0x0,%eax
     8b6:	e8 00 00 00 00       	callq  8bb <try_place+0x8bb>
     8bb:	48 c7 44 24 38 00 00 	movq   $0x0,0x38(%rsp)
     8c2:	00 00 
     8c4:	48 c7 44 24 30 00 00 	movq   $0x0,0x30(%rsp)
     8cb:	00 00 
     8cd:	48 c7 44 24 28 00 00 	movq   $0x0,0x28(%rsp)
     8d4:	00 00 
     8d6:	48 c7 44 24 20 00 00 	movq   $0x0,0x20(%rsp)
     8dd:	00 00 
     8df:	48 c7 44 24 18 00 00 	movq   $0x0,0x18(%rsp)
     8e6:	00 00 
     8e8:	48 c7 44 24 10 00 00 	movq   $0x0,0x10(%rsp)
     8ef:	00 00 
     8f1:	48 c7 44 24 08 00 00 	movq   $0x0,0x8(%rsp)
     8f8:	00 00 
     8fa:	48 c7 04 24 00 00 00 	movq   $0x0,(%rsp)
     901:	00 
     902:	41 b9 00 00 00 00    	mov    $0x0,%r9d
     908:	41 b8 00 00 00 00    	mov    $0x0,%r8d
     90e:	b9 00 00 00 00       	mov    $0x0,%ecx
     913:	ba 00 00 00 00       	mov    $0x0,%edx
     918:	be 00 00 00 00       	mov    $0x0,%esi
     91d:	bf 00 00 00 00       	mov    $0x0,%edi
     922:	b8 00 00 00 00       	mov    $0x0,%eax
     927:	e8 00 00 00 00       	callq  92c <try_place+0x92c>
     92c:	f3 0f 10 65 b8       	movss  -0x48(%rbp),%xmm4
     931:	0f 5a e4             	cvtps2pd %xmm4,%xmm4
     934:	f3 0f 10 85 0c ff ff 	movss  -0xf4(%rbp),%xmm0
     93b:	ff 
     93c:	0f 14 c0             	unpcklps %xmm0,%xmm0
     93f:	0f 5a d8             	cvtps2pd %xmm0,%xmm3
     942:	f3 0f 10 85 18 ff ff 	movss  -0xe8(%rbp),%xmm0
     949:	ff 
     94a:	0f 14 c0             	unpcklps %xmm0,%xmm0
     94d:	0f 5a d0             	cvtps2pd %xmm0,%xmm2
     950:	f3 0f 10 85 14 ff ff 	movss  -0xec(%rbp),%xmm0
     957:	ff 
     958:	0f 14 c0             	unpcklps %xmm0,%xmm0
     95b:	0f 5a c8             	cvtps2pd %xmm0,%xmm1
     95e:	f3 0f 10 85 1c ff ff 	movss  -0xe4(%rbp),%xmm0
     965:	ff 
     966:	0f 14 c0             	unpcklps %xmm0,%xmm0
     969:	0f 5a c0             	cvtps2pd %xmm0,%xmm0
     96c:	8b 95 4c ff ff ff    	mov    -0xb4(%rbp),%edx
     972:	48 8d 85 c0 fd ff ff 	lea    -0x240(%rbp),%rax
     979:	be 00 00 00 00       	mov    $0x0,%esi
     97e:	48 89 c7             	mov    %rax,%rdi
     981:	b8 05 00 00 00       	mov    $0x5,%eax
     986:	e8 00 00 00 00       	callq  98b <try_place+0x98b>
     98b:	48 8d 85 c0 fd ff ff 	lea    -0x240(%rbp),%rax
     992:	b9 00 00 00 00       	mov    $0x0,%ecx
     997:	ba 01 00 00 00       	mov    $0x1,%edx
     99c:	48 89 c6             	mov    %rax,%rsi
     99f:	bf 01 00 00 00       	mov    $0x1,%edi
     9a4:	e8 00 00 00 00       	callq  9a9 <try_place+0x9a9>
     9a9:	e9 30 0a 00 00       	jmpq   13de <try_place+0x13de>
     9ae:	8b 45 10             	mov    0x10(%rbp),%eax
     9b1:	83 f8 01             	cmp    $0x1,%eax
     9b4:	74 08                	je     9be <try_place+0x9be>
     9b6:	8b 45 10             	mov    0x10(%rbp),%eax
     9b9:	83 f8 02             	cmp    $0x2,%eax
     9bc:	75 0c                	jne    9ca <try_place+0x9ca>
     9be:	8b 05 00 00 00 00    	mov    0x0(%rip),%eax        # 9c4 <try_place+0x9c4>
     9c4:	89 85 1c ff ff ff    	mov    %eax,-0xe4(%rbp)
     9ca:	b8 00 00 00 00       	mov    $0x0,%eax
     9cf:	48 89 45 a0          	mov    %rax,-0x60(%rbp)
     9d3:	b8 00 00 00 00       	mov    $0x0,%eax
     9d8:	48 89 45 98          	mov    %rax,-0x68(%rbp)
     9dc:	b8 00 00 00 00       	mov    $0x0,%eax
     9e1:	48 89 45 88          	mov    %rax,-0x78(%rbp)
     9e5:	b8 00 00 00 00       	mov    $0x0,%eax
     9ea:	48 89 45 90          	mov    %rax,-0x70(%rbp)
     9ee:	b8 00 00 00 00       	mov    $0x0,%eax
     9f3:	48 89 45 80          	mov    %rax,-0x80(%rbp)
     9f7:	c7 45 c4 00 00 00 00 	movl   $0x0,-0x3c(%rbp)
     9fe:	8b 45 10             	mov    0x10(%rbp),%eax
     a01:	83 f8 01             	cmp    $0x1,%eax
     a04:	74 0c                	je     a12 <try_place+0xa12>
     a06:	8b 45 10             	mov    0x10(%rbp),%eax
     a09:	83 f8 02             	cmp    $0x2,%eax
     a0c:	0f 85 6f 01 00 00    	jne    b81 <try_place+0xb81>
     a12:	8b 45 40             	mov    0x40(%rbp),%eax
     a15:	3b 85 6c ff ff ff    	cmp    -0x94(%rbp),%eax
     a1b:	7e 0b                	jle    a28 <try_place+0xa28>
     a1d:	8b 45 48             	mov    0x48(%rbp),%eax
     a20:	85 c0                	test   %eax,%eax
     a22:	0f 84 20 01 00 00    	je     b48 <try_place+0xb48>
     a28:	f3 0f 10 8d 0c ff ff 	movss  -0xf4(%rbp),%xmm1
     a2f:	ff 
     a30:	f3 0f 2a 85 78 ff ff 	cvtsi2ssl -0x88(%rbp),%xmm0
     a37:	ff 
     a38:	0f 28 d1             	movaps %xmm1,%xmm2
     a3b:	f3 0f 5e d0          	divss  %xmm0,%xmm2
     a3f:	0f 28 c2             	movaps %xmm2,%xmm0
     a42:	f3 0f 11 45 b4       	movss  %xmm0,-0x4c(%rbp)
     a47:	8b 45 10             	mov    0x10(%rbp),%eax
     a4a:	83 f8 01             	cmp    $0x1,%eax
     a4d:	75 20                	jne    a6f <try_place+0xa6f>
     a4f:	48 8b 95 b0 fd ff ff 	mov    -0x250(%rbp),%rdx
     a56:	8b 45 b4             	mov    -0x4c(%rbp),%eax
     a59:	89 85 7c fd ff ff    	mov    %eax,-0x284(%rbp)
     a5f:	f3 0f 10 85 7c fd ff 	movss  -0x284(%rbp),%xmm0
     a66:	ff 
     a67:	48 89 d7             	mov    %rdx,%rdi
     a6a:	e8 00 00 00 00       	callq  a6f <try_place+0xa6f>
     a6f:	48 8b 85 b0 fd ff ff 	mov    -0x250(%rbp),%rax
     a76:	48 89 c7             	mov    %rax,%rdi
     a79:	e8 00 00 00 00       	callq  a7e <try_place+0xa7e>
     a7e:	48 8b 85 b8 fd ff ff 	mov    -0x248(%rbp),%rax
     a85:	0f 57 c0             	xorps  %xmm0,%xmm0
     a88:	48 89 c7             	mov    %rax,%rdi
     a8b:	e8 00 00 00 00       	callq  a90 <try_place+0xa90>
     a90:	f3 0f 11 85 7c fd ff 	movss  %xmm0,-0x284(%rbp)
     a97:	ff 
     a98:	8b 85 7c fd ff ff    	mov    -0x284(%rbp),%eax
     a9e:	89 45 b8             	mov    %eax,-0x48(%rbp)
     aa1:	48 8b 8d b8 fd ff ff 	mov    -0x248(%rbp),%rcx
     aa8:	8b 95 60 ff ff ff    	mov    -0xa0(%rbp),%edx
     aae:	8b 45 b8             	mov    -0x48(%rbp),%eax
     ab1:	48 8b 75 10          	mov    0x10(%rbp),%rsi
     ab5:	48 89 34 24          	mov    %rsi,(%rsp)
     ab9:	48 8b 75 18          	mov    0x18(%rbp),%rsi
     abd:	48 89 74 24 08       	mov    %rsi,0x8(%rsp)
     ac2:	48 8b 75 20          	mov    0x20(%rbp),%rsi
     ac6:	48 89 74 24 10       	mov    %rsi,0x10(%rsp)
     acb:	48 8b 75 28          	mov    0x28(%rbp),%rsi
     acf:	48 89 74 24 18       	mov    %rsi,0x18(%rsp)
     ad4:	48 8b 75 30          	mov    0x30(%rbp),%rsi
     ad8:	48 89 74 24 20       	mov    %rsi,0x20(%rsp)
     add:	48 8b 75 38          	mov    0x38(%rbp),%rsi
     ae1:	48 89 74 24 28       	mov    %rsi,0x28(%rsp)
     ae6:	48 8b 75 40          	mov    0x40(%rbp),%rsi
     aea:	48 89 74 24 30       	mov    %rsi,0x30(%rsp)
     aef:	48 8b 75 48          	mov    0x48(%rbp),%rsi
     af3:	48 89 74 24 38       	mov    %rsi,0x38(%rsp)
     af8:	48 8b 75 50          	mov    0x50(%rbp),%rsi
     afc:	48 89 74 24 40       	mov    %rsi,0x40(%rsp)
     b01:	89 95 7c fd ff ff    	mov    %edx,-0x284(%rbp)
     b07:	f3 0f 10 8d 7c fd ff 	movss  -0x284(%rbp),%xmm1
     b0e:	ff 
     b0f:	89 85 7c fd ff ff    	mov    %eax,-0x284(%rbp)
     b15:	f3 0f 10 85 7c fd ff 	movss  -0x284(%rbp),%xmm0
     b1c:	ff 
     b1d:	48 89 cf             	mov    %rcx,%rdi
     b20:	e8 00 00 00 00       	callq  b25 <try_place+0xb25>
     b25:	48 8d 95 0c ff ff ff 	lea    -0xf4(%rbp),%rdx
     b2c:	48 8d 85 18 ff ff ff 	lea    -0xe8(%rbp),%rax
     b33:	48 89 d6             	mov    %rdx,%rsi
     b36:	48 89 c7             	mov    %rax,%rdi
     b39:	e8 c2 47 00 00       	callq  5300 <comp_td_costs>
     b3e:	c7 85 6c ff ff ff 00 	movl   $0x0,-0x94(%rbp)
     b45:	00 00 00 
     b48:	83 85 6c ff ff ff 01 	addl   $0x1,-0x94(%rbp)
     b4f:	f3 0f 10 8d 14 ff ff 	movss  -0xec(%rbp),%xmm1
     b56:	ff 
     b57:	f3 0f 10 05 00 00 00 	movss  0x0(%rip),%xmm0        # b5f <try_place+0xb5f>
     b5e:	00 
     b5f:	f3 0f 5e c1          	divss  %xmm1,%xmm0
     b63:	f3 0f 11 45 b0       	movss  %xmm0,-0x50(%rbp)
     b68:	f3 0f 10 8d 18 ff ff 	movss  -0xe8(%rbp),%xmm1
     b6f:	ff 
     b70:	f3 0f 10 05 00 00 00 	movss  0x0(%rip),%xmm0        # b78 <try_place+0xb78>
     b77:	00 
     b78:	f3 0f 5e c1          	divss  %xmm1,%xmm0
     b7c:	f3 0f 11 45 ac       	movss  %xmm0,-0x54(%rbp)
     b81:	c7 85 68 ff ff ff 01 	movl   $0x1,-0x98(%rbp)
     b88:	00 00 00 
     b8b:	c7 45 c8 00 00 00 00 	movl   $0x0,-0x38(%rbp)
     b92:	e9 d5 02 00 00       	jmpq   e6c <try_place+0xe6c>
     b97:	8b 4d 14             	mov    0x14(%rbp),%ecx
     b9a:	44 8b 4d 10          	mov    0x10(%rbp),%r9d
     b9e:	44 8b 45 3c          	mov    0x3c(%rbp),%r8d
     ba2:	4c 8b bd f8 fe ff ff 	mov    -0x108(%rbp),%r15
     ba9:	4c 8b b5 00 ff ff ff 	mov    -0x100(%rbp),%r14
     bb0:	8b 45 1c             	mov    0x1c(%rbp),%eax
     bb3:	41 89 c4             	mov    %eax,%r12d
     bb6:	8b 95 20 ff ff ff    	mov    -0xe0(%rbp),%edx
     bbc:	8b 85 24 ff ff ff    	mov    -0xdc(%rbp),%eax
     bc2:	8b 7d ac             	mov    -0x54(%rbp),%edi
     bc5:	8b 75 b0             	mov    -0x50(%rbp),%esi
     bc8:	48 8d 9d 18 ff ff ff 	lea    -0xe8(%rbp),%rbx
     bcf:	4c 8d 9d 14 ff ff ff 	lea    -0xec(%rbp),%r11
     bd6:	4c 8d 95 1c ff ff ff 	lea    -0xe4(%rbp),%r10
     bdd:	4c 8b ad 50 ff ff ff 	mov    -0xb0(%rbp),%r13
     be4:	4c 89 6c 24 20       	mov    %r13,0x20(%rsp)
     be9:	4c 8d ad 0c ff ff ff 	lea    -0xf4(%rbp),%r13
     bf0:	4c 89 6c 24 18       	mov    %r13,0x18(%rsp)
     bf5:	44 89 4c 24 10       	mov    %r9d,0x10(%rsp)
     bfa:	44 8b 8d 7c ff ff ff 	mov    -0x84(%rbp),%r9d
     c01:	44 89 4c 24 08       	mov    %r9d,0x8(%rsp)
     c06:	44 89 04 24          	mov    %r8d,(%rsp)
     c0a:	89 bd 7c fd ff ff    	mov    %edi,-0x284(%rbp)
     c10:	f3 0f 10 a5 7c fd ff 	movss  -0x284(%rbp),%xmm4
     c17:	ff 
     c18:	89 b5 7c fd ff ff    	mov    %esi,-0x284(%rbp)
     c1e:	f3 0f 10 9d 7c fd ff 	movss  -0x284(%rbp),%xmm3
     c25:	ff 
     c26:	89 8d 7c fd ff ff    	mov    %ecx,-0x284(%rbp)
     c2c:	f3 0f 10 95 7c fd ff 	movss  -0x284(%rbp),%xmm2
     c33:	ff 
     c34:	4d 89 f9             	mov    %r15,%r9
     c37:	4d 89 f0             	mov    %r14,%r8
     c3a:	44 89 e1             	mov    %r12d,%ecx
     c3d:	89 95 7c fd ff ff    	mov    %edx,-0x284(%rbp)
     c43:	f3 0f 10 8d 7c fd ff 	movss  -0x284(%rbp),%xmm1
     c4a:	ff 
     c4b:	48 89 da             	mov    %rbx,%rdx
     c4e:	4c 89 de             	mov    %r11,%rsi
     c51:	4c 89 d7             	mov    %r10,%rdi
     c54:	89 85 7c fd ff ff    	mov    %eax,-0x284(%rbp)
     c5a:	f3 0f 10 85 7c fd ff 	movss  -0x284(%rbp),%xmm0
     c61:	ff 
     c62:	e8 ee 19 00 00       	callq  2655 <try_swap>
     c67:	83 f8 01             	cmp    $0x1,%eax
     c6a:	0f 85 9c 00 00 00    	jne    d0c <try_place+0xd0c>
     c70:	83 45 c4 01          	addl   $0x1,-0x3c(%rbp)
     c74:	f3 0f 10 85 1c ff ff 	movss  -0xe4(%rbp),%xmm0
     c7b:	ff 
     c7c:	0f 14 c0             	unpcklps %xmm0,%xmm0
     c7f:	0f 5a c0             	cvtps2pd %xmm0,%xmm0
     c82:	f2 0f 10 4d a0       	movsd  -0x60(%rbp),%xmm1
     c87:	f2 0f 58 c1          	addsd  %xmm1,%xmm0
     c8b:	f2 0f 11 45 a0       	movsd  %xmm0,-0x60(%rbp)
     c90:	f3 0f 10 85 14 ff ff 	movss  -0xec(%rbp),%xmm0
     c97:	ff 
     c98:	0f 14 c0             	unpcklps %xmm0,%xmm0
     c9b:	0f 5a c0             	cvtps2pd %xmm0,%xmm0
     c9e:	f2 0f 10 4d 98       	movsd  -0x68(%rbp),%xmm1
     ca3:	f2 0f 58 c1          	addsd  %xmm1,%xmm0
     ca7:	f2 0f 11 45 98       	movsd  %xmm0,-0x68(%rbp)
     cac:	f3 0f 10 85 18 ff ff 	movss  -0xe8(%rbp),%xmm0
     cb3:	ff 
     cb4:	0f 14 c0             	unpcklps %xmm0,%xmm0
     cb7:	0f 5a c0             	cvtps2pd %xmm0,%xmm0
     cba:	f2 0f 10 4d 90       	movsd  -0x70(%rbp),%xmm1
     cbf:	f2 0f 58 c1          	addsd  %xmm1,%xmm0
     cc3:	f2 0f 11 45 90       	movsd  %xmm0,-0x70(%rbp)
     cc8:	f3 0f 10 85 0c ff ff 	movss  -0xf4(%rbp),%xmm0
     ccf:	ff 
     cd0:	0f 14 c0             	unpcklps %xmm0,%xmm0
     cd3:	0f 5a c0             	cvtps2pd %xmm0,%xmm0
     cd6:	f2 0f 10 4d 88       	movsd  -0x78(%rbp),%xmm1
     cdb:	f2 0f 58 c1          	addsd  %xmm1,%xmm0
     cdf:	f2 0f 11 45 88       	movsd  %xmm0,-0x78(%rbp)
     ce4:	f3 0f 10 8d 1c ff ff 	movss  -0xe4(%rbp),%xmm1
     ceb:	ff 
     cec:	f3 0f 10 85 1c ff ff 	movss  -0xe4(%rbp),%xmm0
     cf3:	ff 
     cf4:	f3 0f 59 c1          	mulss  %xmm1,%xmm0
     cf8:	0f 14 c0             	unpcklps %xmm0,%xmm0
     cfb:	0f 5a c0             	cvtps2pd %xmm0,%xmm0
     cfe:	f2 0f 10 4d 80       	movsd  -0x80(%rbp),%xmm1
     d03:	f2 0f 58 c1          	addsd  %xmm1,%xmm0
     d07:	f2 0f 11 45 80       	movsd  %xmm0,-0x80(%rbp)
     d0c:	8b 45 10             	mov    0x10(%rbp),%eax
     d0f:	83 f8 01             	cmp    $0x1,%eax
     d12:	74 0c                	je     d20 <try_place+0xd20>
     d14:	8b 45 10             	mov    0x10(%rbp),%eax
     d17:	83 f8 02             	cmp    $0x2,%eax
     d1a:	0f 85 48 01 00 00    	jne    e68 <try_place+0xe68>
     d20:	8b 85 68 ff ff ff    	mov    -0x98(%rbp),%eax
     d26:	3b 85 64 ff ff ff    	cmp    -0x9c(%rbp),%eax
     d2c:	0f 8c 2f 01 00 00    	jl     e61 <try_place+0xe61>
     d32:	8b 45 c0             	mov    -0x40(%rbp),%eax
     d35:	83 e8 01             	sub    $0x1,%eax
     d38:	3b 45 c8             	cmp    -0x38(%rbp),%eax
     d3b:	0f 84 20 01 00 00    	je     e61 <try_place+0xe61>
     d41:	c7 85 68 ff ff ff 00 	movl   $0x0,-0x98(%rbp)
     d48:	00 00 00 
     d4b:	8b 45 10             	mov    0x10(%rbp),%eax
     d4e:	83 f8 01             	cmp    $0x1,%eax
     d51:	75 3f                	jne    d92 <try_place+0xd92>
     d53:	f3 0f 10 8d 0c ff ff 	movss  -0xf4(%rbp),%xmm1
     d5a:	ff 
     d5b:	f3 0f 2a 85 78 ff ff 	cvtsi2ssl -0x88(%rbp),%xmm0
     d62:	ff 
     d63:	0f 28 d1             	movaps %xmm1,%xmm2
     d66:	f3 0f 5e d0          	divss  %xmm0,%xmm2
     d6a:	0f 28 c2             	movaps %xmm2,%xmm0
     d6d:	f3 0f 11 45 b4       	movss  %xmm0,-0x4c(%rbp)
     d72:	48 8b 95 b0 fd ff ff 	mov    -0x250(%rbp),%rdx
     d79:	8b 45 b4             	mov    -0x4c(%rbp),%eax
     d7c:	89 85 7c fd ff ff    	mov    %eax,-0x284(%rbp)
     d82:	f3 0f 10 85 7c fd ff 	movss  -0x284(%rbp),%xmm0
     d89:	ff 
     d8a:	48 89 d7             	mov    %rdx,%rdi
     d8d:	e8 00 00 00 00       	callq  d92 <try_place+0xd92>
     d92:	48 8b 85 b0 fd ff ff 	mov    -0x250(%rbp),%rax
     d99:	48 89 c7             	mov    %rax,%rdi
     d9c:	e8 00 00 00 00       	callq  da1 <try_place+0xda1>
     da1:	48 8b 85 b8 fd ff ff 	mov    -0x248(%rbp),%rax
     da8:	0f 57 c0             	xorps  %xmm0,%xmm0
     dab:	48 89 c7             	mov    %rax,%rdi
     dae:	e8 00 00 00 00       	callq  db3 <try_place+0xdb3>
     db3:	f3 0f 11 85 7c fd ff 	movss  %xmm0,-0x284(%rbp)
     dba:	ff 
     dbb:	8b 85 7c fd ff ff    	mov    -0x284(%rbp),%eax
     dc1:	89 45 b8             	mov    %eax,-0x48(%rbp)
     dc4:	48 8b 8d b8 fd ff ff 	mov    -0x248(%rbp),%rcx
     dcb:	8b 95 60 ff ff ff    	mov    -0xa0(%rbp),%edx
     dd1:	8b 45 b8             	mov    -0x48(%rbp),%eax
     dd4:	48 8b 75 10          	mov    0x10(%rbp),%rsi
     dd8:	48 89 34 24          	mov    %rsi,(%rsp)
     ddc:	48 8b 75 18          	mov    0x18(%rbp),%rsi
     de0:	48 89 74 24 08       	mov    %rsi,0x8(%rsp)
     de5:	48 8b 75 20          	mov    0x20(%rbp),%rsi
     de9:	48 89 74 24 10       	mov    %rsi,0x10(%rsp)
     dee:	48 8b 75 28          	mov    0x28(%rbp),%rsi
     df2:	48 89 74 24 18       	mov    %rsi,0x18(%rsp)
     df7:	48 8b 75 30          	mov    0x30(%rbp),%rsi
     dfb:	48 89 74 24 20       	mov    %rsi,0x20(%rsp)
     e00:	48 8b 75 38          	mov    0x38(%rbp),%rsi
     e04:	48 89 74 24 28       	mov    %rsi,0x28(%rsp)
     e09:	48 8b 75 40          	mov    0x40(%rbp),%rsi
     e0d:	48 89 74 24 30       	mov    %rsi,0x30(%rsp)
     e12:	48 8b 75 48          	mov    0x48(%rbp),%rsi
     e16:	48 89 74 24 38       	mov    %rsi,0x38(%rsp)
     e1b:	48 8b 75 50          	mov    0x50(%rbp),%rsi
     e1f:	48 89 74 24 40       	mov    %rsi,0x40(%rsp)
     e24:	89 95 7c fd ff ff    	mov    %edx,-0x284(%rbp)
     e2a:	f3 0f 10 8d 7c fd ff 	movss  -0x284(%rbp),%xmm1
     e31:	ff 
     e32:	89 85 7c fd ff ff    	mov    %eax,-0x284(%rbp)
     e38:	f3 0f 10 85 7c fd ff 	movss  -0x284(%rbp),%xmm0
     e3f:	ff 
     e40:	48 89 cf             	mov    %rcx,%rdi
     e43:	e8 00 00 00 00       	callq  e48 <try_place+0xe48>
     e48:	48 8d 95 0c ff ff ff 	lea    -0xf4(%rbp),%rdx
     e4f:	48 8d 85 18 ff ff ff 	lea    -0xe8(%rbp),%rax
     e56:	48 89 d6             	mov    %rdx,%rsi
     e59:	48 89 c7             	mov    %rax,%rdi
     e5c:	e8 9f 44 00 00       	callq  5300 <comp_td_costs>
     e61:	83 85 68 ff ff ff 01 	addl   $0x1,-0x98(%rbp)
     e68:	83 45 c8 01          	addl   $0x1,-0x38(%rbp)
     e6c:	8b 45 c8             	mov    -0x38(%rbp),%eax
     e6f:	3b 45 c0             	cmp    -0x40(%rbp),%eax
     e72:	0f 8c 1f fd ff ff    	jl     b97 <try_place+0xb97>
     e78:	8b 45 c0             	mov    -0x40(%rbp),%eax
     e7b:	01 45 bc             	add    %eax,-0x44(%rbp)
     e7e:	81 7d bc 50 c3 00 00 	cmpl   $0xc350,-0x44(%rbp)
     e85:	0f 8e ed 01 00 00    	jle    1078 <try_place+0x1078>
     e8b:	8b 55 3c             	mov    0x3c(%rbp),%edx
     e8e:	8b 45 1c             	mov    0x1c(%rbp),%eax
     e91:	89 d6                	mov    %edx,%esi
     e93:	89 c7                	mov    %eax,%edi
     e95:	e8 41 31 00 00       	callq  3fdb <recompute_bb_cost>
     e9a:	f3 0f 11 85 7c fd ff 	movss  %xmm0,-0x284(%rbp)
     ea1:	ff 
     ea2:	8b 85 7c fd ff ff    	mov    -0x284(%rbp),%eax
     ea8:	89 85 3c ff ff ff    	mov    %eax,-0xc4(%rbp)
     eae:	f3 0f 10 8d 14 ff ff 	movss  -0xec(%rbp),%xmm1
     eb5:	ff 
     eb6:	f3 0f 10 85 3c ff ff 	movss  -0xc4(%rbp),%xmm0
     ebd:	ff 
     ebe:	f3 0f 5c c1          	subss  %xmm1,%xmm0
     ec2:	f3 0f 10 0d 00 00 00 	movss  0x0(%rip),%xmm1        # eca <try_place+0xeca>
     ec9:	00 
     eca:	0f 54 c1             	andps  %xmm1,%xmm0
     ecd:	0f 14 c0             	unpcklps %xmm0,%xmm0
     ed0:	0f 5a c0             	cvtps2pd %xmm0,%xmm0
     ed3:	f3 0f 10 8d 14 ff ff 	movss  -0xec(%rbp),%xmm1
     eda:	ff 
     edb:	0f 14 c9             	unpcklps %xmm1,%xmm1
     ede:	0f 5a c9             	cvtps2pd %xmm1,%xmm1
     ee1:	f2 0f 10 15 00 00 00 	movsd  0x0(%rip),%xmm2        # ee9 <try_place+0xee9>
     ee8:	00 
     ee9:	f2 0f 59 ca          	mulsd  %xmm2,%xmm1
     eed:	66 0f 2e c1          	ucomisd %xmm1,%xmm0
     ef1:	76 32                	jbe    f25 <try_place+0xf25>
     ef3:	f3 0f 10 85 14 ff ff 	movss  -0xec(%rbp),%xmm0
     efa:	ff 
     efb:	0f 14 c0             	unpcklps %xmm0,%xmm0
     efe:	0f 5a c8             	cvtps2pd %xmm0,%xmm1
     f01:	f3 0f 10 85 3c ff ff 	movss  -0xc4(%rbp),%xmm0
     f08:	ff 
     f09:	0f 5a c0             	cvtps2pd %xmm0,%xmm0
     f0c:	bf 00 00 00 00       	mov    $0x0,%edi
     f11:	b8 02 00 00 00       	mov    $0x2,%eax
     f16:	e8 00 00 00 00       	callq  f1b <try_place+0xf1b>
     f1b:	bf 01 00 00 00       	mov    $0x1,%edi
     f20:	e8 00 00 00 00       	callq  f25 <try_place+0xf25>
     f25:	8b 85 3c ff ff ff    	mov    -0xc4(%rbp),%eax
     f2b:	89 85 14 ff ff ff    	mov    %eax,-0xec(%rbp)
     f31:	8b 45 10             	mov    0x10(%rbp),%eax
     f34:	83 f8 01             	cmp    $0x1,%eax
     f37:	74 0c                	je     f45 <try_place+0xf45>
     f39:	8b 45 10             	mov    0x10(%rbp),%eax
     f3c:	83 f8 02             	cmp    $0x2,%eax
     f3f:	0f 85 19 01 00 00    	jne    105e <try_place+0x105e>
     f45:	48 8d 95 08 ff ff ff 	lea    -0xf8(%rbp),%rdx
     f4c:	48 8d 85 10 ff ff ff 	lea    -0xf0(%rbp),%rax
     f53:	48 89 d6             	mov    %rdx,%rsi
     f56:	48 89 c7             	mov    %rax,%rdi
     f59:	e8 a2 43 00 00       	callq  5300 <comp_td_costs>
     f5e:	f3 0f 10 85 10 ff ff 	movss  -0xf0(%rbp),%xmm0
     f65:	ff 
     f66:	f3 0f 10 8d 18 ff ff 	movss  -0xe8(%rbp),%xmm1
     f6d:	ff 
     f6e:	f3 0f 5c c1          	subss  %xmm1,%xmm0
     f72:	f3 0f 10 0d 00 00 00 	movss  0x0(%rip),%xmm1        # f7a <try_place+0xf7a>
     f79:	00 
     f7a:	0f 54 c1             	andps  %xmm1,%xmm0
     f7d:	0f 14 c0             	unpcklps %xmm0,%xmm0
     f80:	0f 5a c0             	cvtps2pd %xmm0,%xmm0
     f83:	f3 0f 10 8d 18 ff ff 	movss  -0xe8(%rbp),%xmm1
     f8a:	ff 
     f8b:	0f 14 c9             	unpcklps %xmm1,%xmm1
     f8e:	0f 5a c9             	cvtps2pd %xmm1,%xmm1
     f91:	f2 0f 10 15 00 00 00 	movsd  0x0(%rip),%xmm2        # f99 <try_place+0xf99>
     f98:	00 
     f99:	f2 0f 59 ca          	mulsd  %xmm2,%xmm1
     f9d:	66 0f 2e c1          	ucomisd %xmm1,%xmm0
     fa1:	76 35                	jbe    fd8 <try_place+0xfd8>
     fa3:	f3 0f 10 85 18 ff ff 	movss  -0xe8(%rbp),%xmm0
     faa:	ff 
     fab:	0f 14 c0             	unpcklps %xmm0,%xmm0
     fae:	0f 5a c8             	cvtps2pd %xmm0,%xmm1
     fb1:	f3 0f 10 85 10 ff ff 	movss  -0xf0(%rbp),%xmm0
     fb8:	ff 
     fb9:	0f 14 c0             	unpcklps %xmm0,%xmm0
     fbc:	0f 5a c0             	cvtps2pd %xmm0,%xmm0
     fbf:	bf 00 00 00 00       	mov    $0x0,%edi
     fc4:	b8 02 00 00 00       	mov    $0x2,%eax
     fc9:	e8 00 00 00 00       	callq  fce <try_place+0xfce>
     fce:	bf 01 00 00 00       	mov    $0x1,%edi
     fd3:	e8 00 00 00 00       	callq  fd8 <try_place+0xfd8>
     fd8:	f3 0f 10 85 08 ff ff 	movss  -0xf8(%rbp),%xmm0
     fdf:	ff 
     fe0:	f3 0f 10 8d 0c ff ff 	movss  -0xf4(%rbp),%xmm1
     fe7:	ff 
     fe8:	f3 0f 5c c1          	subss  %xmm1,%xmm0
     fec:	f3 0f 10 0d 00 00 00 	movss  0x0(%rip),%xmm1        # ff4 <try_place+0xff4>
     ff3:	00 
     ff4:	0f 54 c1             	andps  %xmm1,%xmm0
     ff7:	0f 14 c0             	unpcklps %xmm0,%xmm0
     ffa:	0f 5a c0             	cvtps2pd %xmm0,%xmm0
     ffd:	f3 0f 10 8d 0c ff ff 	movss  -0xf4(%rbp),%xmm1
    1004:	ff 
    1005:	0f 14 c9             	unpcklps %xmm1,%xmm1
    1008:	0f 5a c9             	cvtps2pd %xmm1,%xmm1
    100b:	f2 0f 10 15 00 00 00 	movsd  0x0(%rip),%xmm2        # 1013 <try_place+0x1013>
    1012:	00 
    1013:	f2 0f 59 ca          	mulsd  %xmm2,%xmm1
    1017:	66 0f 2e c1          	ucomisd %xmm1,%xmm0
    101b:	76 35                	jbe    1052 <try_place+0x1052>
    101d:	f3 0f 10 85 0c ff ff 	movss  -0xf4(%rbp),%xmm0
    1024:	ff 
    1025:	0f 14 c0             	unpcklps %xmm0,%xmm0
    1028:	0f 5a c8             	cvtps2pd %xmm0,%xmm1
    102b:	f3 0f 10 85 08 ff ff 	movss  -0xf8(%rbp),%xmm0
    1032:	ff 
    1033:	0f 14 c0             	unpcklps %xmm0,%xmm0
    1036:	0f 5a c0             	cvtps2pd %xmm0,%xmm0
    1039:	bf 00 00 00 00       	mov    $0x0,%edi
    103e:	b8 02 00 00 00       	mov    $0x2,%eax
    1043:	e8 00 00 00 00       	callq  1048 <try_place+0x1048>
    1048:	bf 01 00 00 00       	mov    $0x1,%edi
    104d:	e8 00 00 00 00       	callq  1052 <try_place+0x1052>
    1052:	8b 85 10 ff ff ff    	mov    -0xf0(%rbp),%eax
    1058:	89 85 18 ff ff ff    	mov    %eax,-0xe8(%rbp)
    105e:	8b 45 10             	mov    0x10(%rbp),%eax
    1061:	85 c0                	test   %eax,%eax
    1063:	75 0c                	jne    1071 <try_place+0x1071>
    1065:	8b 85 3c ff ff ff    	mov    -0xc4(%rbp),%eax
    106b:	89 85 1c ff ff ff    	mov    %eax,-0xe4(%rbp)
    1071:	c7 45 bc 00 00 00 00 	movl   $0x0,-0x44(%rbp)
    1078:	8b 45 c0             	mov    -0x40(%rbp),%eax
    107b:	01 45 cc             	add    %eax,-0x34(%rbp)
    107e:	f3 0f 2a 45 c4       	cvtsi2ssl -0x3c(%rbp),%xmm0
    1083:	f3 0f 2a 4d c0       	cvtsi2ssl -0x40(%rbp),%xmm1
    1088:	f3 0f 5e c1          	divss  %xmm1,%xmm0
    108c:	f3 0f 11 85 38 ff ff 	movss  %xmm0,-0xc8(%rbp)
    1093:	ff 
    1094:	83 7d c4 00          	cmpl   $0x0,-0x3c(%rbp)
    1098:	75 4e                	jne    10e8 <try_place+0x10e8>
    109a:	f3 0f 10 85 1c ff ff 	movss  -0xe4(%rbp),%xmm0
    10a1:	ff 
    10a2:	0f 14 c0             	unpcklps %xmm0,%xmm0
    10a5:	0f 5a c0             	cvtps2pd %xmm0,%xmm0
    10a8:	f2 0f 11 45 a0       	movsd  %xmm0,-0x60(%rbp)
    10ad:	f3 0f 10 85 14 ff ff 	movss  -0xec(%rbp),%xmm0
    10b4:	ff 
    10b5:	0f 14 c0             	unpcklps %xmm0,%xmm0
    10b8:	0f 5a c0             	cvtps2pd %xmm0,%xmm0
    10bb:	f2 0f 11 45 98       	movsd  %xmm0,-0x68(%rbp)
    10c0:	f3 0f 10 85 18 ff ff 	movss  -0xe8(%rbp),%xmm0
    10c7:	ff 
    10c8:	0f 14 c0             	unpcklps %xmm0,%xmm0
    10cb:	0f 5a c0             	cvtps2pd %xmm0,%xmm0
    10ce:	f2 0f 11 45 90       	movsd  %xmm0,-0x70(%rbp)
    10d3:	f3 0f 10 85 0c ff ff 	movss  -0xf4(%rbp),%xmm0
    10da:	ff 
    10db:	0f 14 c0             	unpcklps %xmm0,%xmm0
    10de:	0f 5a c0             	cvtps2pd %xmm0,%xmm0
    10e1:	f2 0f 11 45 88       	movsd  %xmm0,-0x78(%rbp)
    10e6:	eb 6c                	jmp    1154 <try_place+0x1154>
    10e8:	f2 0f 2a 45 c4       	cvtsi2sdl -0x3c(%rbp),%xmm0
    10ed:	f2 0f 10 4d a0       	movsd  -0x60(%rbp),%xmm1
    10f2:	66 0f 28 d1          	movapd %xmm1,%xmm2
    10f6:	f2 0f 5e d0          	divsd  %xmm0,%xmm2
    10fa:	66 0f 28 c2          	movapd %xmm2,%xmm0
    10fe:	f2 0f 11 45 a0       	movsd  %xmm0,-0x60(%rbp)
    1103:	f2 0f 2a 45 c4       	cvtsi2sdl -0x3c(%rbp),%xmm0
    1108:	f2 0f 10 4d 98       	movsd  -0x68(%rbp),%xmm1
    110d:	66 0f 28 d1          	movapd %xmm1,%xmm2
    1111:	f2 0f 5e d0          	divsd  %xmm0,%xmm2
    1115:	66 0f 28 c2          	movapd %xmm2,%xmm0
    1119:	f2 0f 11 45 98       	movsd  %xmm0,-0x68(%rbp)
    111e:	f2 0f 2a 45 c4       	cvtsi2sdl -0x3c(%rbp),%xmm0
    1123:	f2 0f 10 4d 90       	movsd  -0x70(%rbp),%xmm1
    1128:	66 0f 28 d1          	movapd %xmm1,%xmm2
    112c:	f2 0f 5e d0          	divsd  %xmm0,%xmm2
    1130:	66 0f 28 c2          	movapd %xmm2,%xmm0
    1134:	f2 0f 11 45 90       	movsd  %xmm0,-0x70(%rbp)
    1139:	f2 0f 2a 45 c4       	cvtsi2sdl -0x3c(%rbp),%xmm0
    113e:	f2 0f 10 4d 88       	movsd  -0x78(%rbp),%xmm1
    1143:	66 0f 28 d1          	movapd %xmm1,%xmm2
    1147:	f2 0f 5e d0          	divsd  %xmm0,%xmm2
    114b:	66 0f 28 c2          	movapd %xmm2,%xmm0
    114f:	f2 0f 11 45 88       	movsd  %xmm0,-0x78(%rbp)
    1154:	48 8b 55 a0          	mov    -0x60(%rbp),%rdx
    1158:	48 8b 45 80          	mov    -0x80(%rbp),%rax
    115c:	8b 4d c4             	mov    -0x3c(%rbp),%ecx
    115f:	48 89 95 70 fd ff ff 	mov    %rdx,-0x290(%rbp)
    1166:	f2 0f 10 8d 70 fd ff 	movsd  -0x290(%rbp),%xmm1
    116d:	ff 
    116e:	48 89 85 70 fd ff ff 	mov    %rax,-0x290(%rbp)
    1175:	f2 0f 10 85 70 fd ff 	movsd  -0x290(%rbp),%xmm0
    117c:	ff 
    117d:	89 cf                	mov    %ecx,%edi
    117f:	e8 84 0f 00 00       	callq  2108 <get_std_dev>
    1184:	f2 0f 11 85 70 fd ff 	movsd  %xmm0,-0x290(%rbp)
    118b:	ff 
    118c:	48 8b 85 70 fd ff ff 	mov    -0x290(%rbp),%rax
    1193:	48 89 85 30 ff ff ff 	mov    %rax,-0xd0(%rbp)
    119a:	f3 0f 10 ad 60 ff ff 	movss  -0xa0(%rbp),%xmm5
    11a1:	ff 
    11a2:	0f 5a ed             	cvtps2pd %xmm5,%xmm5
    11a5:	f3 0f 10 85 20 ff ff 	movss  -0xe0(%rbp),%xmm0
    11ac:	ff 
    11ad:	0f 14 c0             	unpcklps %xmm0,%xmm0
    11b0:	0f 5a e0             	cvtps2pd %xmm0,%xmm4
    11b3:	f3 0f 10 9d 38 ff ff 	movss  -0xc8(%rbp),%xmm3
    11ba:	ff 
    11bb:	0f 5a db             	cvtps2pd %xmm3,%xmm3
    11be:	f3 0f 10 55 b8       	movss  -0x48(%rbp),%xmm2
    11c3:	0f 5a d2             	cvtps2pd %xmm2,%xmm2
    11c6:	f3 0f 10 4d b4       	movss  -0x4c(%rbp),%xmm1
    11cb:	0f 5a c9             	cvtps2pd %xmm1,%xmm1
    11ce:	f3 0f 10 85 24 ff ff 	movss  -0xdc(%rbp),%xmm0
    11d5:	ff 
    11d6:	0f 14 c0             	unpcklps %xmm0,%xmm0
    11d9:	0f 5a c0             	cvtps2pd %xmm0,%xmm0
    11dc:	44 8b 45 cc          	mov    -0x34(%rbp),%r8d
    11e0:	48 8b 7d 88          	mov    -0x78(%rbp),%rdi
    11e4:	48 8b 4d 90          	mov    -0x70(%rbp),%rcx
    11e8:	48 8b 55 98          	mov    -0x68(%rbp),%rdx
    11ec:	48 8b 45 a0          	mov    -0x60(%rbp),%rax
    11f0:	f2 0f 11 6c 24 10    	movsd  %xmm5,0x10(%rsp)
    11f6:	f2 0f 11 64 24 08    	movsd  %xmm4,0x8(%rsp)
    11fc:	48 8b b5 30 ff ff ff 	mov    -0xd0(%rbp),%rsi
    1203:	48 89 34 24          	mov    %rsi,(%rsp)
    1207:	44 89 c6             	mov    %r8d,%esi
    120a:	66 0f 28 fb          	movapd %xmm3,%xmm7
    120e:	66 0f 28 f2          	movapd %xmm2,%xmm6
    1212:	66 0f 28 e9          	movapd %xmm1,%xmm5
    1216:	48 89 bd 70 fd ff ff 	mov    %rdi,-0x290(%rbp)
    121d:	f2 0f 10 a5 70 fd ff 	movsd  -0x290(%rbp),%xmm4
    1224:	ff 
    1225:	48 89 8d 70 fd ff ff 	mov    %rcx,-0x290(%rbp)
    122c:	f2 0f 10 9d 70 fd ff 	movsd  -0x290(%rbp),%xmm3
    1233:	ff 
    1234:	48 89 95 70 fd ff ff 	mov    %rdx,-0x290(%rbp)
    123b:	f2 0f 10 95 70 fd ff 	movsd  -0x290(%rbp),%xmm2
    1242:	ff 
    1243:	48 89 85 70 fd ff ff 	mov    %rax,-0x290(%rbp)
    124a:	f2 0f 10 8d 70 fd ff 	movsd  -0x290(%rbp),%xmm1
    1251:	ff 
    1252:	bf 00 00 00 00       	mov    $0x0,%edi
    1257:	b8 08 00 00 00       	mov    $0x8,%eax
    125c:	e8 00 00 00 00       	callq  1261 <try_place+0x1261>
    1261:	8b 85 24 ff ff ff    	mov    -0xdc(%rbp),%eax
    1267:	89 85 2c ff ff ff    	mov    %eax,-0xd4(%rbp)
    126d:	8b 85 20 ff ff ff    	mov    -0xe0(%rbp),%eax
    1273:	f2 0f 10 85 30 ff ff 	movsd  -0xd0(%rbp),%xmm0
    127a:	ff 
    127b:	66 0f 5a c0          	cvtpd2ps %xmm0,%xmm0
    127f:	8b 95 38 ff ff ff    	mov    -0xc8(%rbp),%edx
    1285:	48 8d 8d 24 ff ff ff 	lea    -0xdc(%rbp),%rcx
    128c:	48 8b 75 58          	mov    0x58(%rbp),%rsi
    1290:	48 89 34 24          	mov    %rsi,(%rsp)
    1294:	48 8b 75 60          	mov    0x60(%rbp),%rsi
    1298:	48 89 74 24 08       	mov    %rsi,0x8(%rsp)
    129d:	8b 75 68             	mov    0x68(%rbp),%esi
    12a0:	89 74 24 10          	mov    %esi,0x10(%rsp)
    12a4:	89 95 7c fd ff ff    	mov    %edx,-0x284(%rbp)
    12aa:	f3 0f 10 95 7c fd ff 	movss  -0x284(%rbp),%xmm2
    12b1:	ff 
    12b2:	89 85 7c fd ff ff    	mov    %eax,-0x284(%rbp)
    12b8:	f3 0f 10 8d 7c fd ff 	movss  -0x284(%rbp),%xmm1
    12bf:	ff 
    12c0:	48 89 cf             	mov    %rcx,%rdi
    12c3:	e8 96 0f 00 00       	callq  225e <update_t>
    12c8:	f3 0f 10 85 24 ff ff 	movss  -0xdc(%rbp),%xmm0
    12cf:	ff 
    12d0:	f3 0f 5e 85 2c ff ff 	divss  -0xd4(%rbp),%xmm0
    12d7:	ff 
    12d8:	0f 14 c0             	unpcklps %xmm0,%xmm0
    12db:	0f 5a c0             	cvtps2pd %xmm0,%xmm0
    12de:	bf 00 00 00 00       	mov    $0x0,%edi
    12e3:	b8 01 00 00 00       	mov    $0x1,%eax
    12e8:	e8 00 00 00 00       	callq  12ed <try_place+0x12ed>
    12ed:	f3 0f 10 65 b8       	movss  -0x48(%rbp),%xmm4
    12f2:	0f 5a e4             	cvtps2pd %xmm4,%xmm4
    12f5:	f3 0f 10 85 24 ff ff 	movss  -0xdc(%rbp),%xmm0
    12fc:	ff 
    12fd:	0f 14 c0             	unpcklps %xmm0,%xmm0
    1300:	0f 5a d8             	cvtps2pd %xmm0,%xmm3
    1303:	f3 0f 10 85 18 ff ff 	movss  -0xe8(%rbp),%xmm0
    130a:	ff 
    130b:	0f 14 c0             	unpcklps %xmm0,%xmm0
    130e:	0f 5a d0             	cvtps2pd %xmm0,%xmm2
    1311:	f3 0f 10 85 14 ff ff 	movss  -0xec(%rbp),%xmm0
    1318:	ff 
    1319:	0f 14 c0             	unpcklps %xmm0,%xmm0
    131c:	0f 5a c8             	cvtps2pd %xmm0,%xmm1
    131f:	f3 0f 10 85 1c ff ff 	movss  -0xe4(%rbp),%xmm0
    1326:	ff 
    1327:	0f 14 c0             	unpcklps %xmm0,%xmm0
    132a:	0f 5a c0             	cvtps2pd %xmm0,%xmm0
    132d:	48 8d 85 c0 fd ff ff 	lea    -0x240(%rbp),%rax
    1334:	be 00 00 00 00       	mov    $0x0,%esi
    1339:	48 89 c7             	mov    %rax,%rdi
    133c:	b8 05 00 00 00       	mov    $0x5,%eax
    1341:	e8 00 00 00 00       	callq  1346 <try_place+0x1346>
    1346:	48 8d 85 c0 fd ff ff 	lea    -0x240(%rbp),%rax
    134d:	b9 00 00 00 00       	mov    $0x0,%ecx
    1352:	ba 01 00 00 00       	mov    $0x1,%edx
    1357:	48 89 c6             	mov    %rax,%rsi
    135a:	bf 00 00 00 00       	mov    $0x0,%edi
    135f:	e8 00 00 00 00       	callq  1364 <try_place+0x1364>
    1364:	8b 85 38 ff ff ff    	mov    -0xc8(%rbp),%eax
    136a:	48 8d 95 20 ff ff ff 	lea    -0xe0(%rbp),%rdx
    1371:	89 85 7c fd ff ff    	mov    %eax,-0x284(%rbp)
    1377:	f3 0f 10 85 7c fd ff 	movss  -0x284(%rbp),%xmm0
    137e:	ff 
    137f:	48 89 d7             	mov    %rdx,%rdi
    1382:	e8 27 0e 00 00       	callq  21ae <update_rlim>
    1387:	8b 45 10             	mov    0x10(%rbp),%eax
    138a:	83 f8 01             	cmp    $0x1,%eax
    138d:	74 08                	je     1397 <try_place+0x1397>
    138f:	8b 45 10             	mov    0x10(%rbp),%eax
    1392:	83 f8 02             	cmp    $0x2,%eax
    1395:	75 47                	jne    13de <try_place+0x13de>
    1397:	f3 0f 10 85 20 ff ff 	movss  -0xe0(%rbp),%xmm0
    139e:	ff 
    139f:	f3 0f 5c 85 44 ff ff 	subss  -0xbc(%rbp),%xmm0
    13a6:	ff 
    13a7:	f3 0f 59 85 40 ff ff 	mulss  -0xc0(%rbp),%xmm0
    13ae:	ff 
    13af:	f3 0f 10 0d 00 00 00 	movss  0x0(%rip),%xmm1        # 13b7 <try_place+0x13b7>
    13b6:	00 
    13b7:	f3 0f 5c c8          	subss  %xmm0,%xmm1
    13bb:	f3 0f 10 45 54       	movss  0x54(%rbp),%xmm0
    13c0:	f3 0f 10 55 4c       	movss  0x4c(%rbp),%xmm2
    13c5:	f3 0f 5c c2          	subss  %xmm2,%xmm0
    13c9:	f3 0f 59 c1          	mulss  %xmm1,%xmm0
    13cd:	f3 0f 10 4d 4c       	movss  0x4c(%rbp),%xmm1
    13d2:	f3 0f 58 c1          	addss  %xmm1,%xmm0
    13d6:	f3 0f 11 85 60 ff ff 	movss  %xmm0,-0xa0(%rbp)
    13dd:	ff 
    13de:	8b 95 1c ff ff ff    	mov    -0xe4(%rbp),%edx
    13e4:	8b 85 24 ff ff ff    	mov    -0xdc(%rbp),%eax
    13ea:	48 8b 4d 58          	mov    0x58(%rbp),%rcx
    13ee:	48 89 0c 24          	mov    %rcx,(%rsp)
    13f2:	48 8b 4d 60          	mov    0x60(%rbp),%rcx
    13f6:	48 89 4c 24 08       	mov    %rcx,0x8(%rsp)
    13fb:	8b 4d 68             	mov    0x68(%rbp),%ecx
    13fe:	89 4c 24 10          	mov    %ecx,0x10(%rsp)
    1402:	89 95 7c fd ff ff    	mov    %edx,-0x284(%rbp)
    1408:	f3 0f 10 8d 7c fd ff 	movss  -0x284(%rbp),%xmm1
    140f:	ff 
    1410:	89 85 7c fd ff ff    	mov    %eax,-0x284(%rbp)
    1416:	f3 0f 10 85 7c fd ff 	movss  -0x284(%rbp),%xmm0
    141d:	ff 
    141e:	e8 6e 0f 00 00       	callq  2391 <exit_crit>
    1423:	85 c0                	test   %eax,%eax
    1425:	0f 84 83 f5 ff ff    	je     9ae <try_place+0x9ae>
    142b:	8b 05 00 00 00 00    	mov    0x0(%rip),%eax        # 1431 <try_place+0x1431>
    1431:	89 85 24 ff ff ff    	mov    %eax,-0xdc(%rbp)
    1437:	b8 00 00 00 00       	mov    $0x0,%eax
    143c:	48 89 45 a0          	mov    %rax,-0x60(%rbp)
    1440:	b8 00 00 00 00       	mov    $0x0,%eax
    1445:	48 89 45 98          	mov    %rax,-0x68(%rbp)
    1449:	b8 00 00 00 00       	mov    $0x0,%eax
    144e:	48 89 45 90          	mov    %rax,-0x70(%rbp)
    1452:	b8 00 00 00 00       	mov    $0x0,%eax
    1457:	48 89 45 80          	mov    %rax,-0x80(%rbp)
    145b:	b8 00 00 00 00       	mov    $0x0,%eax
    1460:	48 89 45 88          	mov    %rax,-0x78(%rbp)
    1464:	c7 45 c4 00 00 00 00 	movl   $0x0,-0x3c(%rbp)
    146b:	8b 45 10             	mov    0x10(%rbp),%eax
    146e:	83 f8 01             	cmp    $0x1,%eax
    1471:	74 0c                	je     147f <try_place+0x147f>
    1473:	8b 45 10             	mov    0x10(%rbp),%eax
    1476:	83 f8 02             	cmp    $0x2,%eax
    1479:	0f 85 6f 01 00 00    	jne    15ee <try_place+0x15ee>
    147f:	8b 45 40             	mov    0x40(%rbp),%eax
    1482:	3b 85 6c ff ff ff    	cmp    -0x94(%rbp),%eax
    1488:	7e 0b                	jle    1495 <try_place+0x1495>
    148a:	8b 45 48             	mov    0x48(%rbp),%eax
    148d:	85 c0                	test   %eax,%eax
    148f:	0f 84 20 01 00 00    	je     15b5 <try_place+0x15b5>
    1495:	f3 0f 10 8d 0c ff ff 	movss  -0xf4(%rbp),%xmm1
    149c:	ff 
    149d:	f3 0f 2a 85 78 ff ff 	cvtsi2ssl -0x88(%rbp),%xmm0
    14a4:	ff 
    14a5:	0f 28 d1             	movaps %xmm1,%xmm2
    14a8:	f3 0f 5e d0          	divss  %xmm0,%xmm2
    14ac:	0f 28 c2             	movaps %xmm2,%xmm0
    14af:	f3 0f 11 45 b4       	movss  %xmm0,-0x4c(%rbp)
    14b4:	8b 45 10             	mov    0x10(%rbp),%eax
    14b7:	83 f8 01             	cmp    $0x1,%eax
    14ba:	75 20                	jne    14dc <try_place+0x14dc>
    14bc:	48 8b 95 b0 fd ff ff 	mov    -0x250(%rbp),%rdx
    14c3:	8b 45 b4             	mov    -0x4c(%rbp),%eax
    14c6:	89 85 7c fd ff ff    	mov    %eax,-0x284(%rbp)
    14cc:	f3 0f 10 85 7c fd ff 	movss  -0x284(%rbp),%xmm0
    14d3:	ff 
    14d4:	48 89 d7             	mov    %rdx,%rdi
    14d7:	e8 00 00 00 00       	callq  14dc <try_place+0x14dc>
    14dc:	48 8b 85 b0 fd ff ff 	mov    -0x250(%rbp),%rax
    14e3:	48 89 c7             	mov    %rax,%rdi
    14e6:	e8 00 00 00 00       	callq  14eb <try_place+0x14eb>
    14eb:	48 8b 85 b8 fd ff ff 	mov    -0x248(%rbp),%rax
    14f2:	0f 57 c0             	xorps  %xmm0,%xmm0
    14f5:	48 89 c7             	mov    %rax,%rdi
    14f8:	e8 00 00 00 00       	callq  14fd <try_place+0x14fd>
    14fd:	f3 0f 11 85 7c fd ff 	movss  %xmm0,-0x284(%rbp)
    1504:	ff 
    1505:	8b 85 7c fd ff ff    	mov    -0x284(%rbp),%eax
    150b:	89 45 b8             	mov    %eax,-0x48(%rbp)
    150e:	48 8b 8d b8 fd ff ff 	mov    -0x248(%rbp),%rcx
    1515:	8b 95 60 ff ff ff    	mov    -0xa0(%rbp),%edx
    151b:	8b 45 b8             	mov    -0x48(%rbp),%eax
    151e:	48 8b 75 10          	mov    0x10(%rbp),%rsi
    1522:	48 89 34 24          	mov    %rsi,(%rsp)
    1526:	48 8b 75 18          	mov    0x18(%rbp),%rsi
    152a:	48 89 74 24 08       	mov    %rsi,0x8(%rsp)
    152f:	48 8b 75 20          	mov    0x20(%rbp),%rsi
    1533:	48 89 74 24 10       	mov    %rsi,0x10(%rsp)
    1538:	48 8b 75 28          	mov    0x28(%rbp),%rsi
    153c:	48 89 74 24 18       	mov    %rsi,0x18(%rsp)
    1541:	48 8b 75 30          	mov    0x30(%rbp),%rsi
    1545:	48 89 74 24 20       	mov    %rsi,0x20(%rsp)
    154a:	48 8b 75 38          	mov    0x38(%rbp),%rsi
    154e:	48 89 74 24 28       	mov    %rsi,0x28(%rsp)
    1553:	48 8b 75 40          	mov    0x40(%rbp),%rsi
    1557:	48 89 74 24 30       	mov    %rsi,0x30(%rsp)
    155c:	48 8b 75 48          	mov    0x48(%rbp),%rsi
    1560:	48 89 74 24 38       	mov    %rsi,0x38(%rsp)
    1565:	48 8b 75 50          	mov    0x50(%rbp),%rsi
    1569:	48 89 74 24 40       	mov    %rsi,0x40(%rsp)
    156e:	89 95 7c fd ff ff    	mov    %edx,-0x284(%rbp)
    1574:	f3 0f 10 8d 7c fd ff 	movss  -0x284(%rbp),%xmm1
    157b:	ff 
    157c:	89 85 7c fd ff ff    	mov    %eax,-0x284(%rbp)
    1582:	f3 0f 10 85 7c fd ff 	movss  -0x284(%rbp),%xmm0
    1589:	ff 
    158a:	48 89 cf             	mov    %rcx,%rdi
    158d:	e8 00 00 00 00       	callq  1592 <try_place+0x1592>
    1592:	48 8d 95 0c ff ff ff 	lea    -0xf4(%rbp),%rdx
    1599:	48 8d 85 18 ff ff ff 	lea    -0xe8(%rbp),%rax
    15a0:	48 89 d6             	mov    %rdx,%rsi
    15a3:	48 89 c7             	mov    %rax,%rdi
    15a6:	e8 55 3d 00 00       	callq  5300 <comp_td_costs>
    15ab:	c7 85 6c ff ff ff 00 	movl   $0x0,-0x94(%rbp)
    15b2:	00 00 00 
    15b5:	83 85 6c ff ff ff 01 	addl   $0x1,-0x94(%rbp)
    15bc:	f3 0f 10 8d 14 ff ff 	movss  -0xec(%rbp),%xmm1
    15c3:	ff 
    15c4:	f3 0f 10 05 00 00 00 	movss  0x0(%rip),%xmm0        # 15cc <try_place+0x15cc>
    15cb:	00 
    15cc:	f3 0f 5e c1          	divss  %xmm1,%xmm0
    15d0:	f3 0f 11 45 b0       	movss  %xmm0,-0x50(%rbp)
    15d5:	f3 0f 10 8d 18 ff ff 	movss  -0xe8(%rbp),%xmm1
    15dc:	ff 
    15dd:	f3 0f 10 05 00 00 00 	movss  0x0(%rip),%xmm0        # 15e5 <try_place+0x15e5>
    15e4:	00 
    15e5:	f3 0f 5e c1          	divss  %xmm1,%xmm0
    15e9:	f3 0f 11 45 ac       	movss  %xmm0,-0x54(%rbp)
    15ee:	c7 85 68 ff ff ff 01 	movl   $0x1,-0x98(%rbp)
    15f5:	00 00 00 
    15f8:	c7 45 c8 00 00 00 00 	movl   $0x0,-0x38(%rbp)
    15ff:	e9 d5 02 00 00       	jmpq   18d9 <try_place+0x18d9>
    1604:	8b 4d 14             	mov    0x14(%rbp),%ecx
    1607:	44 8b 4d 10          	mov    0x10(%rbp),%r9d
    160b:	44 8b 45 3c          	mov    0x3c(%rbp),%r8d
    160f:	4c 8b bd f8 fe ff ff 	mov    -0x108(%rbp),%r15
    1616:	4c 8b b5 00 ff ff ff 	mov    -0x100(%rbp),%r14
    161d:	8b 45 1c             	mov    0x1c(%rbp),%eax
    1620:	41 89 c4             	mov    %eax,%r12d
    1623:	8b 95 20 ff ff ff    	mov    -0xe0(%rbp),%edx
    1629:	8b 85 24 ff ff ff    	mov    -0xdc(%rbp),%eax
    162f:	8b 7d ac             	mov    -0x54(%rbp),%edi
    1632:	8b 75 b0             	mov    -0x50(%rbp),%esi
    1635:	48 8d 9d 18 ff ff ff 	lea    -0xe8(%rbp),%rbx
    163c:	4c 8d 9d 14 ff ff ff 	lea    -0xec(%rbp),%r11
    1643:	4c 8d 95 1c ff ff ff 	lea    -0xe4(%rbp),%r10
    164a:	4c 8b ad 50 ff ff ff 	mov    -0xb0(%rbp),%r13
    1651:	4c 89 6c 24 20       	mov    %r13,0x20(%rsp)
    1656:	4c 8d ad 0c ff ff ff 	lea    -0xf4(%rbp),%r13
    165d:	4c 89 6c 24 18       	mov    %r13,0x18(%rsp)
    1662:	44 89 4c 24 10       	mov    %r9d,0x10(%rsp)
    1667:	44 8b 8d 7c ff ff ff 	mov    -0x84(%rbp),%r9d
    166e:	44 89 4c 24 08       	mov    %r9d,0x8(%rsp)
    1673:	44 89 04 24          	mov    %r8d,(%rsp)
    1677:	89 bd 7c fd ff ff    	mov    %edi,-0x284(%rbp)
    167d:	f3 0f 10 a5 7c fd ff 	movss  -0x284(%rbp),%xmm4
    1684:	ff 
    1685:	89 b5 7c fd ff ff    	mov    %esi,-0x284(%rbp)
    168b:	f3 0f 10 9d 7c fd ff 	movss  -0x284(%rbp),%xmm3
    1692:	ff 
    1693:	89 8d 7c fd ff ff    	mov    %ecx,-0x284(%rbp)
    1699:	f3 0f 10 95 7c fd ff 	movss  -0x284(%rbp),%xmm2
    16a0:	ff 
    16a1:	4d 89 f9             	mov    %r15,%r9
    16a4:	4d 89 f0             	mov    %r14,%r8
    16a7:	44 89 e1             	mov    %r12d,%ecx
    16aa:	89 95 7c fd ff ff    	mov    %edx,-0x284(%rbp)
    16b0:	f3 0f 10 8d 7c fd ff 	movss  -0x284(%rbp),%xmm1
    16b7:	ff 
    16b8:	48 89 da             	mov    %rbx,%rdx
    16bb:	4c 89 de             	mov    %r11,%rsi
    16be:	4c 89 d7             	mov    %r10,%rdi
    16c1:	89 85 7c fd ff ff    	mov    %eax,-0x284(%rbp)
    16c7:	f3 0f 10 85 7c fd ff 	movss  -0x284(%rbp),%xmm0
    16ce:	ff 
    16cf:	e8 81 0f 00 00       	callq  2655 <try_swap>
    16d4:	83 f8 01             	cmp    $0x1,%eax
    16d7:	0f 85 f8 01 00 00    	jne    18d5 <try_place+0x18d5>
    16dd:	83 45 c4 01          	addl   $0x1,-0x3c(%rbp)
    16e1:	f3 0f 10 85 1c ff ff 	movss  -0xe4(%rbp),%xmm0
    16e8:	ff 
    16e9:	0f 14 c0             	unpcklps %xmm0,%xmm0
    16ec:	0f 5a c0             	cvtps2pd %xmm0,%xmm0
    16ef:	f2 0f 10 4d a0       	movsd  -0x60(%rbp),%xmm1
    16f4:	f2 0f 58 c1          	addsd  %xmm1,%xmm0
    16f8:	f2 0f 11 45 a0       	movsd  %xmm0,-0x60(%rbp)
    16fd:	f3 0f 10 85 14 ff ff 	movss  -0xec(%rbp),%xmm0
    1704:	ff 
    1705:	0f 14 c0             	unpcklps %xmm0,%xmm0
    1708:	0f 5a c0             	cvtps2pd %xmm0,%xmm0
    170b:	f2 0f 10 4d 98       	movsd  -0x68(%rbp),%xmm1
    1710:	f2 0f 58 c1          	addsd  %xmm1,%xmm0
    1714:	f2 0f 11 45 98       	movsd  %xmm0,-0x68(%rbp)
    1719:	f3 0f 10 85 0c ff ff 	movss  -0xf4(%rbp),%xmm0
    1720:	ff 
    1721:	0f 14 c0             	unpcklps %xmm0,%xmm0
    1724:	0f 5a c0             	cvtps2pd %xmm0,%xmm0
    1727:	f2 0f 10 4d 88       	movsd  -0x78(%rbp),%xmm1
    172c:	f2 0f 58 c1          	addsd  %xmm1,%xmm0
    1730:	f2 0f 11 45 88       	movsd  %xmm0,-0x78(%rbp)
    1735:	f3 0f 10 85 18 ff ff 	movss  -0xe8(%rbp),%xmm0
    173c:	ff 
    173d:	0f 14 c0             	unpcklps %xmm0,%xmm0
    1740:	0f 5a c0             	cvtps2pd %xmm0,%xmm0
    1743:	f2 0f 10 4d 90       	movsd  -0x70(%rbp),%xmm1
    1748:	f2 0f 58 c1          	addsd  %xmm1,%xmm0
    174c:	f2 0f 11 45 90       	movsd  %xmm0,-0x70(%rbp)
    1751:	f3 0f 10 8d 1c ff ff 	movss  -0xe4(%rbp),%xmm1
    1758:	ff 
    1759:	f3 0f 10 85 1c ff ff 	movss  -0xe4(%rbp),%xmm0
    1760:	ff 
    1761:	f3 0f 59 c1          	mulss  %xmm1,%xmm0
    1765:	0f 14 c0             	unpcklps %xmm0,%xmm0
    1768:	0f 5a c0             	cvtps2pd %xmm0,%xmm0
    176b:	f2 0f 10 4d 80       	movsd  -0x80(%rbp),%xmm1
    1770:	f2 0f 58 c1          	addsd  %xmm1,%xmm0
    1774:	f2 0f 11 45 80       	movsd  %xmm0,-0x80(%rbp)
    1779:	8b 45 10             	mov    0x10(%rbp),%eax
    177c:	83 f8 01             	cmp    $0x1,%eax
    177f:	74 0c                	je     178d <try_place+0x178d>
    1781:	8b 45 10             	mov    0x10(%rbp),%eax
    1784:	83 f8 02             	cmp    $0x2,%eax
    1787:	0f 85 48 01 00 00    	jne    18d5 <try_place+0x18d5>
    178d:	8b 85 68 ff ff ff    	mov    -0x98(%rbp),%eax
    1793:	3b 85 64 ff ff ff    	cmp    -0x9c(%rbp),%eax
    1799:	0f 8c 2f 01 00 00    	jl     18ce <try_place+0x18ce>
    179f:	8b 45 c0             	mov    -0x40(%rbp),%eax
    17a2:	83 e8 01             	sub    $0x1,%eax
    17a5:	3b 45 c8             	cmp    -0x38(%rbp),%eax
    17a8:	0f 84 20 01 00 00    	je     18ce <try_place+0x18ce>
    17ae:	c7 85 68 ff ff ff 00 	movl   $0x0,-0x98(%rbp)
    17b5:	00 00 00 
    17b8:	8b 45 10             	mov    0x10(%rbp),%eax
    17bb:	83 f8 01             	cmp    $0x1,%eax
    17be:	75 3f                	jne    17ff <try_place+0x17ff>
    17c0:	f3 0f 10 8d 0c ff ff 	movss  -0xf4(%rbp),%xmm1
    17c7:	ff 
    17c8:	f3 0f 2a 85 78 ff ff 	cvtsi2ssl -0x88(%rbp),%xmm0
    17cf:	ff 
    17d0:	0f 28 d1             	movaps %xmm1,%xmm2
    17d3:	f3 0f 5e d0          	divss  %xmm0,%xmm2
    17d7:	0f 28 c2             	movaps %xmm2,%xmm0
    17da:	f3 0f 11 45 b4       	movss  %xmm0,-0x4c(%rbp)
    17df:	48 8b 95 b0 fd ff ff 	mov    -0x250(%rbp),%rdx
    17e6:	8b 45 b4             	mov    -0x4c(%rbp),%eax
    17e9:	89 85 7c fd ff ff    	mov    %eax,-0x284(%rbp)
    17ef:	f3 0f 10 85 7c fd ff 	movss  -0x284(%rbp),%xmm0
    17f6:	ff 
    17f7:	48 89 d7             	mov    %rdx,%rdi
    17fa:	e8 00 00 00 00       	callq  17ff <try_place+0x17ff>
    17ff:	48 8b 85 b0 fd ff ff 	mov    -0x250(%rbp),%rax
    1806:	48 89 c7             	mov    %rax,%rdi
    1809:	e8 00 00 00 00       	callq  180e <try_place+0x180e>
    180e:	48 8b 85 b8 fd ff ff 	mov    -0x248(%rbp),%rax
    1815:	0f 57 c0             	xorps  %xmm0,%xmm0
    1818:	48 89 c7             	mov    %rax,%rdi
    181b:	e8 00 00 00 00       	callq  1820 <try_place+0x1820>
    1820:	f3 0f 11 85 7c fd ff 	movss  %xmm0,-0x284(%rbp)
    1827:	ff 
    1828:	8b 85 7c fd ff ff    	mov    -0x284(%rbp),%eax
    182e:	89 45 b8             	mov    %eax,-0x48(%rbp)
    1831:	48 8b 8d b8 fd ff ff 	mov    -0x248(%rbp),%rcx
    1838:	8b 95 60 ff ff ff    	mov    -0xa0(%rbp),%edx
    183e:	8b 45 b8             	mov    -0x48(%rbp),%eax
    1841:	48 8b 75 10          	mov    0x10(%rbp),%rsi
    1845:	48 89 34 24          	mov    %rsi,(%rsp)
    1849:	48 8b 75 18          	mov    0x18(%rbp),%rsi
    184d:	48 89 74 24 08       	mov    %rsi,0x8(%rsp)
    1852:	48 8b 75 20          	mov    0x20(%rbp),%rsi
    1856:	48 89 74 24 10       	mov    %rsi,0x10(%rsp)
    185b:	48 8b 75 28          	mov    0x28(%rbp),%rsi
    185f:	48 89 74 24 18       	mov    %rsi,0x18(%rsp)
    1864:	48 8b 75 30          	mov    0x30(%rbp),%rsi
    1868:	48 89 74 24 20       	mov    %rsi,0x20(%rsp)
    186d:	48 8b 75 38          	mov    0x38(%rbp),%rsi
    1871:	48 89 74 24 28       	mov    %rsi,0x28(%rsp)
    1876:	48 8b 75 40          	mov    0x40(%rbp),%rsi
    187a:	48 89 74 24 30       	mov    %rsi,0x30(%rsp)
    187f:	48 8b 75 48          	mov    0x48(%rbp),%rsi
    1883:	48 89 74 24 38       	mov    %rsi,0x38(%rsp)
    1888:	48 8b 75 50          	mov    0x50(%rbp),%rsi
    188c:	48 89 74 24 40       	mov    %rsi,0x40(%rsp)
    1891:	89 95 7c fd ff ff    	mov    %edx,-0x284(%rbp)
    1897:	f3 0f 10 8d 7c fd ff 	movss  -0x284(%rbp),%xmm1
    189e:	ff 
    189f:	89 85 7c fd ff ff    	mov    %eax,-0x284(%rbp)
    18a5:	f3 0f 10 85 7c fd ff 	movss  -0x284(%rbp),%xmm0
    18ac:	ff 
    18ad:	48 89 cf             	mov    %rcx,%rdi
    18b0:	e8 00 00 00 00       	callq  18b5 <try_place+0x18b5>
    18b5:	48 8d 95 0c ff ff ff 	lea    -0xf4(%rbp),%rdx
    18bc:	48 8d 85 18 ff ff ff 	lea    -0xe8(%rbp),%rax
    18c3:	48 89 d6             	mov    %rdx,%rsi
    18c6:	48 89 c7             	mov    %rax,%rdi
    18c9:	e8 32 3a 00 00       	callq  5300 <comp_td_costs>
    18ce:	83 85 68 ff ff ff 01 	addl   $0x1,-0x98(%rbp)
    18d5:	83 45 c8 01          	addl   $0x1,-0x38(%rbp)
    18d9:	8b 45 c8             	mov    -0x38(%rbp),%eax
    18dc:	3b 45 c0             	cmp    -0x40(%rbp),%eax
    18df:	0f 8c 1f fd ff ff    	jl     1604 <try_place+0x1604>
    18e5:	8b 45 c0             	mov    -0x40(%rbp),%eax
    18e8:	01 45 cc             	add    %eax,-0x34(%rbp)
    18eb:	f3 0f 2a 45 c4       	cvtsi2ssl -0x3c(%rbp),%xmm0
    18f0:	f3 0f 2a 4d c0       	cvtsi2ssl -0x40(%rbp),%xmm1
    18f5:	f3 0f 5e c1          	divss  %xmm1,%xmm0
    18f9:	f3 0f 11 85 38 ff ff 	movss  %xmm0,-0xc8(%rbp)
    1900:	ff 
    1901:	83 7d c4 00          	cmpl   $0x0,-0x3c(%rbp)
    1905:	75 4e                	jne    1955 <try_place+0x1955>
    1907:	f3 0f 10 85 1c ff ff 	movss  -0xe4(%rbp),%xmm0
    190e:	ff 
    190f:	0f 14 c0             	unpcklps %xmm0,%xmm0
    1912:	0f 5a c0             	cvtps2pd %xmm0,%xmm0
    1915:	f2 0f 11 45 a0       	movsd  %xmm0,-0x60(%rbp)
    191a:	f3 0f 10 85 14 ff ff 	movss  -0xec(%rbp),%xmm0
    1921:	ff 
    1922:	0f 14 c0             	unpcklps %xmm0,%xmm0
    1925:	0f 5a c0             	cvtps2pd %xmm0,%xmm0
    1928:	f2 0f 11 45 98       	movsd  %xmm0,-0x68(%rbp)
    192d:	f3 0f 10 85 0c ff ff 	movss  -0xf4(%rbp),%xmm0
    1934:	ff 
    1935:	0f 14 c0             	unpcklps %xmm0,%xmm0
    1938:	0f 5a c0             	cvtps2pd %xmm0,%xmm0
    193b:	f2 0f 11 45 88       	movsd  %xmm0,-0x78(%rbp)
    1940:	f3 0f 10 85 18 ff ff 	movss  -0xe8(%rbp),%xmm0
    1947:	ff 
    1948:	0f 14 c0             	unpcklps %xmm0,%xmm0
    194b:	0f 5a c0             	cvtps2pd %xmm0,%xmm0
    194e:	f2 0f 11 45 90       	movsd  %xmm0,-0x70(%rbp)
    1953:	eb 6c                	jmp    19c1 <try_place+0x19c1>
    1955:	f2 0f 2a 45 c4       	cvtsi2sdl -0x3c(%rbp),%xmm0
    195a:	f2 0f 10 4d a0       	movsd  -0x60(%rbp),%xmm1
    195f:	66 0f 28 d1          	movapd %xmm1,%xmm2
    1963:	f2 0f 5e d0          	divsd  %xmm0,%xmm2
    1967:	66 0f 28 c2          	movapd %xmm2,%xmm0
    196b:	f2 0f 11 45 a0       	movsd  %xmm0,-0x60(%rbp)
    1970:	f2 0f 2a 45 c4       	cvtsi2sdl -0x3c(%rbp),%xmm0
    1975:	f2 0f 10 4d 98       	movsd  -0x68(%rbp),%xmm1
    197a:	66 0f 28 d1          	movapd %xmm1,%xmm2
    197e:	f2 0f 5e d0          	divsd  %xmm0,%xmm2
    1982:	66 0f 28 c2          	movapd %xmm2,%xmm0
    1986:	f2 0f 11 45 98       	movsd  %xmm0,-0x68(%rbp)
    198b:	f2 0f 2a 45 c4       	cvtsi2sdl -0x3c(%rbp),%xmm0
    1990:	f2 0f 10 4d 88       	movsd  -0x78(%rbp),%xmm1
    1995:	66 0f 28 d1          	movapd %xmm1,%xmm2
    1999:	f2 0f 5e d0          	divsd  %xmm0,%xmm2
    199d:	66 0f 28 c2          	movapd %xmm2,%xmm0
    19a1:	f2 0f 11 45 88       	movsd  %xmm0,-0x78(%rbp)
    19a6:	f2 0f 2a 45 c4       	cvtsi2sdl -0x3c(%rbp),%xmm0
    19ab:	f2 0f 10 4d 90       	movsd  -0x70(%rbp),%xmm1
    19b0:	66 0f 28 d1          	movapd %xmm1,%xmm2
    19b4:	f2 0f 5e d0          	divsd  %xmm0,%xmm2
    19b8:	66 0f 28 c2          	movapd %xmm2,%xmm0
    19bc:	f2 0f 11 45 90       	movsd  %xmm0,-0x70(%rbp)
    19c1:	48 8b 55 a0          	mov    -0x60(%rbp),%rdx
    19c5:	48 8b 45 80          	mov    -0x80(%rbp),%rax
    19c9:	8b 4d c4             	mov    -0x3c(%rbp),%ecx
    19cc:	48 89 95 70 fd ff ff 	mov    %rdx,-0x290(%rbp)
    19d3:	f2 0f 10 8d 70 fd ff 	movsd  -0x290(%rbp),%xmm1
    19da:	ff 
    19db:	48 89 85 70 fd ff ff 	mov    %rax,-0x290(%rbp)
    19e2:	f2 0f 10 85 70 fd ff 	movsd  -0x290(%rbp),%xmm0
    19e9:	ff 
    19ea:	89 cf                	mov    %ecx,%edi
    19ec:	e8 17 07 00 00       	callq  2108 <get_std_dev>
    19f1:	f2 0f 11 85 70 fd ff 	movsd  %xmm0,-0x290(%rbp)
    19f8:	ff 
    19f9:	48 8b 85 70 fd ff ff 	mov    -0x290(%rbp),%rax
    1a00:	48 89 85 30 ff ff ff 	mov    %rax,-0xd0(%rbp)
    1a07:	f3 0f 10 ad 60 ff ff 	movss  -0xa0(%rbp),%xmm5
    1a0e:	ff 
    1a0f:	0f 5a ed             	cvtps2pd %xmm5,%xmm5
    1a12:	f3 0f 10 85 20 ff ff 	movss  -0xe0(%rbp),%xmm0
    1a19:	ff 
    1a1a:	0f 14 c0             	unpcklps %xmm0,%xmm0
    1a1d:	0f 5a e0             	cvtps2pd %xmm0,%xmm4
    1a20:	f3 0f 10 9d 38 ff ff 	movss  -0xc8(%rbp),%xmm3
    1a27:	ff 
    1a28:	0f 5a db             	cvtps2pd %xmm3,%xmm3
    1a2b:	f3 0f 10 55 b8       	movss  -0x48(%rbp),%xmm2
    1a30:	0f 5a d2             	cvtps2pd %xmm2,%xmm2
    1a33:	f3 0f 10 4d b4       	movss  -0x4c(%rbp),%xmm1
    1a38:	0f 5a c9             	cvtps2pd %xmm1,%xmm1
    1a3b:	f3 0f 10 85 24 ff ff 	movss  -0xdc(%rbp),%xmm0
    1a42:	ff 
    1a43:	0f 14 c0             	unpcklps %xmm0,%xmm0
    1a46:	0f 5a c0             	cvtps2pd %xmm0,%xmm0
    1a49:	44 8b 45 cc          	mov    -0x34(%rbp),%r8d
    1a4d:	48 8b 7d 88          	mov    -0x78(%rbp),%rdi
    1a51:	48 8b 4d 90          	mov    -0x70(%rbp),%rcx
    1a55:	48 8b 55 98          	mov    -0x68(%rbp),%rdx
    1a59:	48 8b 45 a0          	mov    -0x60(%rbp),%rax
    1a5d:	f2 0f 11 6c 24 10    	movsd  %xmm5,0x10(%rsp)
    1a63:	f2 0f 11 64 24 08    	movsd  %xmm4,0x8(%rsp)
    1a69:	48 8b b5 30 ff ff ff 	mov    -0xd0(%rbp),%rsi
    1a70:	48 89 34 24          	mov    %rsi,(%rsp)
    1a74:	44 89 c6             	mov    %r8d,%esi
    1a77:	66 0f 28 fb          	movapd %xmm3,%xmm7
    1a7b:	66 0f 28 f2          	movapd %xmm2,%xmm6
    1a7f:	66 0f 28 e9          	movapd %xmm1,%xmm5
    1a83:	48 89 bd 70 fd ff ff 	mov    %rdi,-0x290(%rbp)
    1a8a:	f2 0f 10 a5 70 fd ff 	movsd  -0x290(%rbp),%xmm4
    1a91:	ff 
    1a92:	48 89 8d 70 fd ff ff 	mov    %rcx,-0x290(%rbp)
    1a99:	f2 0f 10 9d 70 fd ff 	movsd  -0x290(%rbp),%xmm3
    1aa0:	ff 
    1aa1:	48 89 95 70 fd ff ff 	mov    %rdx,-0x290(%rbp)
    1aa8:	f2 0f 10 95 70 fd ff 	movsd  -0x290(%rbp),%xmm2
    1aaf:	ff 
    1ab0:	48 89 85 70 fd ff ff 	mov    %rax,-0x290(%rbp)
    1ab7:	f2 0f 10 8d 70 fd ff 	movsd  -0x290(%rbp),%xmm1
    1abe:	ff 
    1abf:	bf 00 00 00 00       	mov    $0x0,%edi
    1ac4:	b8 08 00 00 00       	mov    $0x8,%eax
    1ac9:	e8 00 00 00 00       	callq  1ace <try_place+0x1ace>
    1ace:	8b 95 0c ff ff ff    	mov    -0xf4(%rbp),%edx
    1ad4:	44 8b 45 10          	mov    0x10(%rbp),%r8d
    1ad8:	8b 75 3c             	mov    0x3c(%rbp),%esi
    1adb:	8b 45 1c             	mov    0x1c(%rbp),%eax
    1ade:	89 c7                	mov    %eax,%edi
    1ae0:	8b 8d 18 ff ff ff    	mov    -0xe8(%rbp),%ecx
    1ae6:	8b 85 14 ff ff ff    	mov    -0xec(%rbp),%eax
    1aec:	89 95 7c fd ff ff    	mov    %edx,-0x284(%rbp)
    1af2:	f3 0f 10 95 7c fd ff 	movss  -0x284(%rbp),%xmm2
    1af9:	ff 
    1afa:	44 89 c2             	mov    %r8d,%edx
    1afd:	89 8d 7c fd ff ff    	mov    %ecx,-0x284(%rbp)
    1b03:	f3 0f 10 8d 7c fd ff 	movss  -0x284(%rbp),%xmm1
    1b0a:	ff 
    1b0b:	89 85 7c fd ff ff    	mov    %eax,-0x284(%rbp)
    1b11:	f3 0f 10 85 7c fd ff 	movss  -0x284(%rbp),%xmm0
    1b18:	ff 
    1b19:	e8 25 78 00 00       	callq  9343 <check_place>
    1b1e:	8b 45 44             	mov    0x44(%rbp),%eax
    1b21:	85 c0                	test   %eax,%eax
    1b23:	0f 84 ba 00 00 00    	je     1be3 <try_place+0x1be3>
    1b29:	8b 45 10             	mov    0x10(%rbp),%eax
    1b2c:	85 c0                	test   %eax,%eax
    1b2e:	0f 85 af 00 00 00    	jne    1be3 <try_place+0x1be3>
    1b34:	c7 85 74 ff ff ff 00 	movl   $0x0,-0x8c(%rbp)
    1b3b:	00 00 00 
    1b3e:	eb 78                	jmp    1bb8 <try_place+0x1bb8>
    1b40:	c7 85 70 ff ff ff 01 	movl   $0x1,-0x90(%rbp)
    1b47:	00 00 00 
    1b4a:	eb 39                	jmp    1b85 <try_place+0x1b85>
    1b4c:	48 8b 05 00 00 00 00 	mov    0x0(%rip),%rax        # 1b53 <try_place+0x1b53>
    1b53:	8b 95 74 ff ff ff    	mov    -0x8c(%rbp),%edx
    1b59:	48 63 d2             	movslq %edx,%rdx
    1b5c:	48 c1 e2 03          	shl    $0x3,%rdx
    1b60:	48 01 d0             	add    %rdx,%rax
    1b63:	48 8b 00             	mov    (%rax),%rax
    1b66:	8b 95 70 ff ff ff    	mov    -0x90(%rbp),%edx
    1b6c:	48 63 d2             	movslq %edx,%rdx
    1b6f:	48 c1 e2 02          	shl    $0x2,%rdx
    1b73:	48 01 c2             	add    %rax,%rdx
    1b76:	8b 05 00 00 00 00    	mov    0x0(%rip),%eax        # 1b7c <try_place+0x1b7c>
    1b7c:	89 02                	mov    %eax,(%rdx)
    1b7e:	83 85 70 ff ff ff 01 	addl   $0x1,-0x90(%rbp)
    1b85:	48 8b 0d 00 00 00 00 	mov    0x0(%rip),%rcx        # 1b8c <try_place+0x1b8c>
    1b8c:	8b 85 74 ff ff ff    	mov    -0x8c(%rbp),%eax
    1b92:	48 63 d0             	movslq %eax,%rdx
    1b95:	48 89 d0             	mov    %rdx,%rax
    1b98:	48 c1 e0 02          	shl    $0x2,%rax
    1b9c:	48 01 d0             	add    %rdx,%rax
    1b9f:	48 c1 e0 03          	shl    $0x3,%rax
    1ba3:	48 01 c8             	add    %rcx,%rax
    1ba6:	8b 40 08             	mov    0x8(%rax),%eax
    1ba9:	3b 85 70 ff ff ff    	cmp    -0x90(%rbp),%eax
    1baf:	7d 9b                	jge    1b4c <try_place+0x1b4c>
    1bb1:	83 85 74 ff ff ff 01 	addl   $0x1,-0x8c(%rbp)
    1bb8:	8b 05 00 00 00 00    	mov    0x0(%rip),%eax        # 1bbe <try_place+0x1bbe>
    1bbe:	39 85 74 ff ff ff    	cmp    %eax,-0x8c(%rbp)
    1bc4:	0f 8c 76 ff ff ff    	jl     1b40 <try_place+0x1b40>
    1bca:	48 8d 95 0c ff ff ff 	lea    -0xf4(%rbp),%rdx
    1bd1:	48 8d 85 18 ff ff ff 	lea    -0xe8(%rbp),%rax
    1bd8:	48 89 d6             	mov    %rdx,%rsi
    1bdb:	48 89 c7             	mov    %rax,%rdi
    1bde:	e8 1d 37 00 00       	callq  5300 <comp_td_costs>
    1be3:	8b 45 10             	mov    0x10(%rbp),%eax
    1be6:	83 f8 01             	cmp    $0x1,%eax
    1be9:	74 0f                	je     1bfa <try_place+0x1bfa>
    1beb:	8b 45 10             	mov    0x10(%rbp),%eax
    1bee:	83 f8 02             	cmp    $0x2,%eax
    1bf1:	74 07                	je     1bfa <try_place+0x1bfa>
    1bf3:	8b 45 44             	mov    0x44(%rbp),%eax
    1bf6:	85 c0                	test   %eax,%eax
    1bf8:	74 5d                	je     1c57 <try_place+0x1c57>
    1bfa:	48 8b 05 00 00 00 00 	mov    0x0(%rip),%rax        # 1c01 <try_place+0x1c01>
    1c01:	48 89 85 b0 fd ff ff 	mov    %rax,-0x250(%rbp)
    1c08:	48 8b 85 b0 fd ff ff 	mov    -0x250(%rbp),%rax
    1c0f:	48 89 c7             	mov    %rax,%rdi
    1c12:	e8 00 00 00 00       	callq  1c17 <try_place+0x1c17>
    1c17:	48 8b 85 b8 fd ff ff 	mov    -0x248(%rbp),%rax
    1c1e:	0f 57 c0             	xorps  %xmm0,%xmm0
    1c21:	48 89 c7             	mov    %rax,%rdi
    1c24:	e8 00 00 00 00       	callq  1c29 <try_place+0x1c29>
    1c29:	f3 0f 11 85 7c fd ff 	movss  %xmm0,-0x284(%rbp)
    1c30:	ff 
    1c31:	8b 85 7c fd ff ff    	mov    -0x284(%rbp),%eax
    1c37:	89 85 28 ff ff ff    	mov    %eax,-0xd8(%rbp)
    1c3d:	f3 0f 10 85 28 ff ff 	movss  -0xd8(%rbp),%xmm0
    1c44:	ff 
    1c45:	0f 5a c0             	cvtps2pd %xmm0,%xmm0
    1c48:	bf 00 00 00 00       	mov    $0x0,%edi
    1c4d:	b8 01 00 00 00       	mov    $0x1,%eax
    1c52:	e8 00 00 00 00       	callq  1c57 <try_place+0x1c57>
    1c57:	f3 0f 10 5d b8       	movss  -0x48(%rbp),%xmm3
    1c5c:	0f 5a db             	cvtps2pd %xmm3,%xmm3
    1c5f:	f3 0f 10 85 18 ff ff 	movss  -0xe8(%rbp),%xmm0
    1c66:	ff 
    1c67:	0f 14 c0             	unpcklps %xmm0,%xmm0
    1c6a:	0f 5a d0             	cvtps2pd %xmm0,%xmm2
    1c6d:	f3 0f 10 85 14 ff ff 	movss  -0xec(%rbp),%xmm0
    1c74:	ff 
    1c75:	0f 14 c0             	unpcklps %xmm0,%xmm0
    1c78:	0f 5a c8             	cvtps2pd %xmm0,%xmm1
    1c7b:	f3 0f 10 85 1c ff ff 	movss  -0xe4(%rbp),%xmm0
    1c82:	ff 
    1c83:	0f 14 c0             	unpcklps %xmm0,%xmm0
    1c86:	0f 5a c0             	cvtps2pd %xmm0,%xmm0
    1c89:	8b 95 4c ff ff ff    	mov    -0xb4(%rbp),%edx
    1c8f:	48 8d 85 c0 fd ff ff 	lea    -0x240(%rbp),%rax
    1c96:	be 00 00 00 00       	mov    $0x0,%esi
    1c9b:	48 89 c7             	mov    %rax,%rdi
    1c9e:	b8 04 00 00 00       	mov    $0x4,%eax
    1ca3:	e8 00 00 00 00       	callq  1ca8 <try_place+0x1ca8>
    1ca8:	f3 0f 10 85 0c ff ff 	movss  -0xf4(%rbp),%xmm0
    1caf:	ff 
    1cb0:	0f 14 c0             	unpcklps %xmm0,%xmm0
    1cb3:	0f 5a d8             	cvtps2pd %xmm0,%xmm3
    1cb6:	f3 0f 10 85 18 ff ff 	movss  -0xe8(%rbp),%xmm0
    1cbd:	ff 
    1cbe:	0f 14 c0             	unpcklps %xmm0,%xmm0
    1cc1:	0f 5a d0             	cvtps2pd %xmm0,%xmm2
    1cc4:	f3 0f 10 85 14 ff ff 	movss  -0xec(%rbp),%xmm0
    1ccb:	ff 
    1ccc:	0f 14 c0             	unpcklps %xmm0,%xmm0
    1ccf:	0f 5a c8             	cvtps2pd %xmm0,%xmm1
    1cd2:	f3 0f 10 85 1c ff ff 	movss  -0xe4(%rbp),%xmm0
    1cd9:	ff 
    1cda:	0f 14 c0             	unpcklps %xmm0,%xmm0
    1cdd:	0f 5a c0             	cvtps2pd %xmm0,%xmm0
    1ce0:	bf 00 00 00 00       	mov    $0x0,%edi
    1ce5:	b8 04 00 00 00       	mov    $0x4,%eax
    1cea:	e8 00 00 00 00       	callq  1cef <try_place+0x1cef>
    1cef:	48 8d 85 c0 fd ff ff 	lea    -0x240(%rbp),%rax
    1cf6:	b9 00 00 00 00       	mov    $0x0,%ecx
    1cfb:	ba 01 00 00 00       	mov    $0x1,%edx
    1d00:	48 89 c6             	mov    %rax,%rsi
    1d03:	bf 01 00 00 00       	mov    $0x1,%edi
    1d08:	e8 00 00 00 00       	callq  1d0d <try_place+0x1d0d>
    1d0d:	8b 45 10             	mov    0x10(%rbp),%eax
    1d10:	83 f8 01             	cmp    $0x1,%eax
    1d13:	74 13                	je     1d28 <try_place+0x1d28>
    1d15:	8b 45 10             	mov    0x10(%rbp),%eax
    1d18:	83 f8 02             	cmp    $0x2,%eax
    1d1b:	74 0b                	je     1d28 <try_place+0x1d28>
    1d1d:	8b 45 44             	mov    0x44(%rbp),%eax
    1d20:	85 c0                	test   %eax,%eax
    1d22:	0f 84 92 00 00 00    	je     1dba <try_place+0x1dba>
    1d28:	48 8b 85 58 ff ff ff 	mov    -0xa8(%rbp),%rax
    1d2f:	48 89 85 b0 fd ff ff 	mov    %rax,-0x250(%rbp)
    1d36:	48 8b 8d f8 fe ff ff 	mov    -0x108(%rbp),%rcx
    1d3d:	48 8b 95 00 ff ff ff 	mov    -0x100(%rbp),%rdx
    1d44:	8b 75 3c             	mov    0x3c(%rbp),%esi
    1d47:	8b 45 1c             	mov    0x1c(%rbp),%eax
    1d4a:	48 8b 7d 10          	mov    0x10(%rbp),%rdi
    1d4e:	48 89 3c 24          	mov    %rdi,(%rsp)
    1d52:	48 8b 7d 18          	mov    0x18(%rbp),%rdi
    1d56:	48 89 7c 24 08       	mov    %rdi,0x8(%rsp)
    1d5b:	48 8b 7d 20          	mov    0x20(%rbp),%rdi
    1d5f:	48 89 7c 24 10       	mov    %rdi,0x10(%rsp)
    1d64:	48 8b 7d 28          	mov    0x28(%rbp),%rdi
    1d68:	48 89 7c 24 18       	mov    %rdi,0x18(%rsp)
    1d6d:	48 8b 7d 30          	mov    0x30(%rbp),%rdi
    1d71:	48 89 7c 24 20       	mov    %rdi,0x20(%rsp)
    1d76:	48 8b 7d 38          	mov    0x38(%rbp),%rdi
    1d7a:	48 89 7c 24 28       	mov    %rdi,0x28(%rsp)
    1d7f:	48 8b 7d 40          	mov    0x40(%rbp),%rdi
    1d83:	48 89 7c 24 30       	mov    %rdi,0x30(%rsp)
    1d88:	48 8b 7d 48          	mov    0x48(%rbp),%rdi
    1d8c:	48 89 7c 24 38       	mov    %rdi,0x38(%rsp)
    1d91:	48 8b 7d 50          	mov    0x50(%rbp),%rdi
    1d95:	48 89 7c 24 40       	mov    %rdi,0x40(%rsp)
    1d9a:	89 c7                	mov    %eax,%edi
    1d9c:	e8 3d 42 00 00       	callq  5fde <free_placement_structs>
    1da1:	48 8d 95 b8 fd ff ff 	lea    -0x248(%rbp),%rdx
    1da8:	48 8d 85 b0 fd ff ff 	lea    -0x250(%rbp),%rax
    1daf:	48 89 d6             	mov    %rdx,%rsi
    1db2:	48 89 c7             	mov    %rax,%rdi
    1db5:	e8 00 00 00 00       	callq  1dba <try_place+0x1dba>
    1dba:	48 8b 85 88 fd ff ff 	mov    -0x278(%rbp),%rax
    1dc1:	48 8b 00             	mov    (%rax),%rax
    1dc4:	48 85 c0             	test   %rax,%rax
    1dc7:	0f 84 93 00 00 00    	je     1e60 <try_place+0x1e60>
    1dcd:	c7 85 74 ff ff ff 00 	movl   $0x0,-0x8c(%rbp)
    1dd4:	00 00 00 
    1dd7:	eb 67                	jmp    1e40 <try_place+0x1e40>
    1dd9:	48 8b 85 88 fd ff ff 	mov    -0x278(%rbp),%rax
    1de0:	48 8b 00             	mov    (%rax),%rax
    1de3:	8b 95 74 ff ff ff    	mov    -0x8c(%rbp),%edx
    1de9:	48 63 d2             	movslq %edx,%rdx
    1dec:	48 c1 e2 03          	shl    $0x3,%rdx
    1df0:	48 01 d0             	add    %rdx,%rax
    1df3:	48 8b 00             	mov    (%rax),%rax
    1df6:	48 85 c0             	test   %rax,%rax
    1df9:	75 19                	jne    1e14 <try_place+0x1e14>
    1dfb:	b9 00 00 00 00       	mov    $0x0,%ecx
    1e00:	ba c2 03 00 00       	mov    $0x3c2,%edx
    1e05:	be 00 00 00 00       	mov    $0x0,%esi
    1e0a:	bf 00 00 00 00       	mov    $0x0,%edi
    1e0f:	e8 00 00 00 00       	callq  1e14 <try_place+0x1e14>
    1e14:	48 8b 85 88 fd ff ff 	mov    -0x278(%rbp),%rax
    1e1b:	48 8b 00             	mov    (%rax),%rax
    1e1e:	8b 95 74 ff ff ff    	mov    -0x8c(%rbp),%edx
    1e24:	48 63 d2             	movslq %edx,%rdx
    1e27:	48 c1 e2 03          	shl    $0x3,%rdx
    1e2b:	48 01 d0             	add    %rdx,%rax
    1e2e:	48 8b 00             	mov    (%rax),%rax
    1e31:	48 89 c7             	mov    %rax,%rdi
    1e34:	e8 00 00 00 00       	callq  1e39 <try_place+0x1e39>
    1e39:	83 85 74 ff ff ff 01 	addl   $0x1,-0x8c(%rbp)
    1e40:	8b 05 00 00 00 00    	mov    0x0(%rip),%eax        # 1e46 <try_place+0x1e46>
    1e46:	39 85 74 ff ff ff    	cmp    %eax,-0x8c(%rbp)
    1e4c:	7c 8b                	jl     1dd9 <try_place+0x1dd9>
    1e4e:	48 8b 85 88 fd ff ff 	mov    -0x278(%rbp),%rax
    1e55:	48 8b 00             	mov    (%rax),%rax
    1e58:	48 89 c7             	mov    %rax,%rdi
    1e5b:	e8 00 00 00 00       	callq  1e60 <try_place+0x1e60>
    1e60:	8b 05 00 00 00 00    	mov    0x0(%rip),%eax        # 1e66 <try_place+0x1e66>
    1e66:	48 98                	cltq   
    1e68:	48 c1 e0 03          	shl    $0x3,%rax
    1e6c:	48 89 c7             	mov    %rax,%rdi
    1e6f:	e8 00 00 00 00       	callq  1e74 <try_place+0x1e74>
    1e74:	48 8b 95 88 fd ff ff 	mov    -0x278(%rbp),%rdx
    1e7b:	48 89 02             	mov    %rax,(%rdx)
    1e7e:	c7 85 74 ff ff ff 00 	movl   $0x0,-0x8c(%rbp)
    1e85:	00 00 00 
    1e88:	eb 32                	jmp    1ebc <try_place+0x1ebc>
    1e8a:	48 8b 85 88 fd ff ff 	mov    -0x278(%rbp),%rax
    1e91:	48 8b 00             	mov    (%rax),%rax
    1e94:	8b 95 74 ff ff ff    	mov    -0x8c(%rbp),%edx
    1e9a:	48 63 d2             	movslq %edx,%rdx
    1e9d:	48 c1 e2 03          	shl    $0x3,%rdx
    1ea1:	48 8d 1c 10          	lea    (%rax,%rdx,1),%rbx
    1ea5:	8b 85 74 ff ff ff    	mov    -0x8c(%rbp),%eax
    1eab:	89 c7                	mov    %eax,%edi
    1ead:	e8 00 00 00 00       	callq  1eb2 <try_place+0x1eb2>
    1eb2:	48 89 03             	mov    %rax,(%rbx)
    1eb5:	83 85 74 ff ff ff 01 	addl   $0x1,-0x8c(%rbp)
    1ebc:	8b 05 00 00 00 00    	mov    0x0(%rip),%eax        # 1ec2 <try_place+0x1ec2>
    1ec2:	39 85 74 ff ff ff    	cmp    %eax,-0x8c(%rbp)
    1ec8:	7c c0                	jl     1e8a <try_place+0x1e8a>
    1eca:	48 8b 85 50 ff ff ff 	mov    -0xb0(%rbp),%rax
    1ed1:	48 89 c7             	mov    %rax,%rdi
    1ed4:	e8 00 00 00 00       	callq  1ed9 <try_place+0x1ed9>
    1ed9:	48 81 c4 18 03 00 00 	add    $0x318,%rsp
    1ee0:	5b                   	pop    %rbx
    1ee1:	41 5c                	pop    %r12
    1ee3:	41 5d                	pop    %r13
    1ee5:	41 5e                	pop    %r14
    1ee7:	41 5f                	pop    %r15
    1ee9:	5d                   	pop    %rbp
    1eea:	c3                   	retq   

0000000000001eeb <count_connections>:
    1eeb:	55                   	push   %rbp
    1eec:	48 89 e5             	mov    %rsp,%rbp
    1eef:	48 83 ec 10          	sub    $0x10,%rsp
    1ef3:	e8 00 00 00 00       	callq  1ef8 <count_connections+0xd>
    1ef8:	c7 45 fc 00 00 00 00 	movl   $0x0,-0x4(%rbp)
    1eff:	c7 45 f8 00 00 00 00 	movl   $0x0,-0x8(%rbp)
    1f06:	eb 50                	jmp    1f58 <count_connections+0x6d>
    1f08:	48 8b 0d 00 00 00 00 	mov    0x0(%rip),%rcx        # 1f0f <count_connections+0x24>
    1f0f:	8b 45 f8             	mov    -0x8(%rbp),%eax
    1f12:	48 63 d0             	movslq %eax,%rdx
    1f15:	48 89 d0             	mov    %rdx,%rax
    1f18:	48 c1 e0 02          	shl    $0x2,%rax
    1f1c:	48 01 d0             	add    %rdx,%rax
    1f1f:	48 c1 e0 03          	shl    $0x3,%rax
    1f23:	48 01 c8             	add    %rcx,%rax
    1f26:	8b 40 20             	mov    0x20(%rax),%eax
    1f29:	85 c0                	test   %eax,%eax
    1f2b:	75 26                	jne    1f53 <count_connections+0x68>
    1f2d:	48 8b 0d 00 00 00 00 	mov    0x0(%rip),%rcx        # 1f34 <count_connections+0x49>
    1f34:	8b 45 f8             	mov    -0x8(%rbp),%eax
    1f37:	48 63 d0             	movslq %eax,%rdx
    1f3a:	48 89 d0             	mov    %rdx,%rax
    1f3d:	48 c1 e0 02          	shl    $0x2,%rax
    1f41:	48 01 d0             	add    %rdx,%rax
    1f44:	48 c1 e0 03          	shl    $0x3,%rax
    1f48:	48 01 c8             	add    %rcx,%rax
    1f4b:	8b 40 08             	mov    0x8(%rax),%eax
    1f4e:	01 45 fc             	add    %eax,-0x4(%rbp)
    1f51:	eb 01                	jmp    1f54 <count_connections+0x69>
    1f53:	90                   	nop
    1f54:	83 45 f8 01          	addl   $0x1,-0x8(%rbp)
    1f58:	8b 05 00 00 00 00    	mov    0x0(%rip),%eax        # 1f5e <count_connections+0x73>
    1f5e:	39 45 f8             	cmp    %eax,-0x8(%rbp)
    1f61:	7c a5                	jl     1f08 <count_connections+0x1d>
    1f63:	8b 45 fc             	mov    -0x4(%rbp),%eax
    1f66:	c9                   	leaveq 
    1f67:	c3                   	retq   

0000000000001f68 <compute_net_pin_index_values>:
    1f68:	55                   	push   %rbp
    1f69:	48 89 e5             	mov    %rsp,%rbp
    1f6c:	48 83 ec 20          	sub    $0x20,%rsp
    1f70:	e8 00 00 00 00       	callq  1f75 <compute_net_pin_index_values+0xd>
    1f75:	c7 45 f4 00 00 00 00 	movl   $0x0,-0xc(%rbp)
    1f7c:	eb 6d                	jmp    1feb <compute_net_pin_index_values+0x83>
    1f7e:	48 8b 0d 00 00 00 00 	mov    0x0(%rip),%rcx        # 1f85 <compute_net_pin_index_values+0x1d>
    1f85:	8b 45 f4             	mov    -0xc(%rbp),%eax
    1f88:	48 63 d0             	movslq %eax,%rdx
    1f8b:	48 89 d0             	mov    %rdx,%rax
    1f8e:	48 c1 e0 02          	shl    $0x2,%rax
    1f92:	48 01 d0             	add    %rdx,%rax
    1f95:	48 c1 e0 03          	shl    $0x3,%rax
    1f99:	48 01 c8             	add    %rcx,%rax
    1f9c:	48 8b 40 08          	mov    0x8(%rax),%rax
    1fa0:	48 89 45 e8          	mov    %rax,-0x18(%rbp)
    1fa4:	c7 45 f0 00 00 00 00 	movl   $0x0,-0x10(%rbp)
    1fab:	eb 2e                	jmp    1fdb <compute_net_pin_index_values+0x73>
    1fad:	48 8b 05 00 00 00 00 	mov    0x0(%rip),%rax        # 1fb4 <compute_net_pin_index_values+0x4c>
    1fb4:	8b 55 f4             	mov    -0xc(%rbp),%edx
    1fb7:	48 63 d2             	movslq %edx,%rdx
    1fba:	48 c1 e2 03          	shl    $0x3,%rdx
    1fbe:	48 01 d0             	add    %rdx,%rax
    1fc1:	48 8b 00             	mov    (%rax),%rax
    1fc4:	8b 55 f0             	mov    -0x10(%rbp),%edx
    1fc7:	48 63 d2             	movslq %edx,%rdx
    1fca:	48 c1 e2 02          	shl    $0x2,%rdx
    1fce:	48 01 d0             	add    %rdx,%rax
    1fd1:	c7 00 ff ff ff ff    	movl   $0xffffffff,(%rax)
    1fd7:	83 45 f0 01          	addl   $0x1,-0x10(%rbp)
    1fdb:	48 8b 45 e8          	mov    -0x18(%rbp),%rax
    1fdf:	8b 40 08             	mov    0x8(%rax),%eax
    1fe2:	3b 45 f0             	cmp    -0x10(%rbp),%eax
    1fe5:	7f c6                	jg     1fad <compute_net_pin_index_values+0x45>
    1fe7:	83 45 f4 01          	addl   $0x1,-0xc(%rbp)
    1feb:	8b 05 00 00 00 00    	mov    0x0(%rip),%eax        # 1ff1 <compute_net_pin_index_values+0x89>
    1ff1:	39 45 f4             	cmp    %eax,-0xc(%rbp)
    1ff4:	7c 88                	jl     1f7e <compute_net_pin_index_values+0x16>
    1ff6:	c7 45 fc 00 00 00 00 	movl   $0x0,-0x4(%rbp)
    1ffd:	e9 f5 00 00 00       	jmpq   20f7 <compute_net_pin_index_values+0x18f>
    2002:	48 8b 0d 00 00 00 00 	mov    0x0(%rip),%rcx        # 2009 <compute_net_pin_index_values+0xa1>
    2009:	8b 45 fc             	mov    -0x4(%rbp),%eax
    200c:	48 63 d0             	movslq %eax,%rdx
    200f:	48 89 d0             	mov    %rdx,%rax
    2012:	48 c1 e0 02          	shl    $0x2,%rax
    2016:	48 01 d0             	add    %rdx,%rax
    2019:	48 c1 e0 03          	shl    $0x3,%rax
    201d:	48 01 c8             	add    %rcx,%rax
    2020:	8b 40 20             	mov    0x20(%rax),%eax
    2023:	85 c0                	test   %eax,%eax
    2025:	0f 85 c7 00 00 00    	jne    20f2 <compute_net_pin_index_values+0x18a>
    202b:	c7 45 f8 00 00 00 00 	movl   $0x0,-0x8(%rbp)
    2032:	e9 8f 00 00 00       	jmpq   20c6 <compute_net_pin_index_values+0x15e>
    2037:	48 8b 0d 00 00 00 00 	mov    0x0(%rip),%rcx        # 203e <compute_net_pin_index_values+0xd6>
    203e:	8b 45 fc             	mov    -0x4(%rbp),%eax
    2041:	48 63 d0             	movslq %eax,%rdx
    2044:	48 89 d0             	mov    %rdx,%rax
    2047:	48 c1 e0 02          	shl    $0x2,%rax
    204b:	48 01 d0             	add    %rdx,%rax
    204e:	48 c1 e0 03          	shl    $0x3,%rax
    2052:	48 01 c8             	add    %rcx,%rax
    2055:	48 8b 40 10          	mov    0x10(%rax),%rax
    2059:	8b 55 f8             	mov    -0x8(%rbp),%edx
    205c:	48 63 d2             	movslq %edx,%rdx
    205f:	48 c1 e2 02          	shl    $0x2,%rdx
    2063:	48 01 d0             	add    %rdx,%rax
    2066:	8b 00                	mov    (%rax),%eax
    2068:	89 45 e4             	mov    %eax,-0x1c(%rbp)
    206b:	48 8b 05 00 00 00 00 	mov    0x0(%rip),%rax        # 2072 <compute_net_pin_index_values+0x10a>
    2072:	8b 55 e4             	mov    -0x1c(%rbp),%edx
    2075:	48 63 d2             	movslq %edx,%rdx
    2078:	48 c1 e2 03          	shl    $0x3,%rdx
    207c:	48 01 d0             	add    %rdx,%rax
    207f:	48 8b 08             	mov    (%rax),%rcx
    2082:	48 8b 35 00 00 00 00 	mov    0x0(%rip),%rsi        # 2089 <compute_net_pin_index_values+0x121>
    2089:	8b 45 fc             	mov    -0x4(%rbp),%eax
    208c:	48 63 d0             	movslq %eax,%rdx
    208f:	48 89 d0             	mov    %rdx,%rax
    2092:	48 c1 e0 02          	shl    $0x2,%rax
    2096:	48 01 d0             	add    %rdx,%rax
    2099:	48 c1 e0 03          	shl    $0x3,%rax
    209d:	48 01 f0             	add    %rsi,%rax
    20a0:	48 8b 40 18          	mov    0x18(%rax),%rax
    20a4:	8b 55 f8             	mov    -0x8(%rbp),%edx
    20a7:	48 63 d2             	movslq %edx,%rdx
    20aa:	48 c1 e2 02          	shl    $0x2,%rdx
    20ae:	48 01 d0             	add    %rdx,%rax
    20b1:	8b 00                	mov    (%rax),%eax
    20b3:	48 98                	cltq   
    20b5:	48 c1 e0 02          	shl    $0x2,%rax
    20b9:	48 8d 14 01          	lea    (%rcx,%rax,1),%rdx
    20bd:	8b 45 f8             	mov    -0x8(%rbp),%eax
    20c0:	89 02                	mov    %eax,(%rdx)
    20c2:	83 45 f8 01          	addl   $0x1,-0x8(%rbp)
    20c6:	48 8b 0d 00 00 00 00 	mov    0x0(%rip),%rcx        # 20cd <compute_net_pin_index_values+0x165>
    20cd:	8b 45 fc             	mov    -0x4(%rbp),%eax
    20d0:	48 63 d0             	movslq %eax,%rdx
    20d3:	48 89 d0             	mov    %rdx,%rax
    20d6:	48 c1 e0 02          	shl    $0x2,%rax
    20da:	48 01 d0             	add    %rdx,%rax
    20dd:	48 c1 e0 03          	shl    $0x3,%rax
    20e1:	48 01 c8             	add    %rcx,%rax
    20e4:	8b 40 08             	mov    0x8(%rax),%eax
    20e7:	3b 45 f8             	cmp    -0x8(%rbp),%eax
    20ea:	0f 8d 47 ff ff ff    	jge    2037 <compute_net_pin_index_values+0xcf>
    20f0:	eb 01                	jmp    20f3 <compute_net_pin_index_values+0x18b>
    20f2:	90                   	nop
    20f3:	83 45 fc 01          	addl   $0x1,-0x4(%rbp)
    20f7:	8b 05 00 00 00 00    	mov    0x0(%rip),%eax        # 20fd <compute_net_pin_index_values+0x195>
    20fd:	39 45 fc             	cmp    %eax,-0x4(%rbp)
    2100:	0f 8c fc fe ff ff    	jl     2002 <compute_net_pin_index_values+0x9a>
    2106:	c9                   	leaveq 
    2107:	c3                   	retq   

0000000000002108 <get_std_dev>:
    2108:	55                   	push   %rbp
    2109:	48 89 e5             	mov    %rsp,%rbp
    210c:	48 83 ec 30          	sub    $0x30,%rsp
    2110:	e8 00 00 00 00       	callq  2115 <get_std_dev+0xd>
    2115:	89 7d ec             	mov    %edi,-0x14(%rbp)
    2118:	f2 0f 11 45 e0       	movsd  %xmm0,-0x20(%rbp)
    211d:	f2 0f 11 4d d8       	movsd  %xmm1,-0x28(%rbp)
    2122:	83 7d ec 01          	cmpl   $0x1,-0x14(%rbp)
    2126:	7f 0b                	jg     2133 <get_std_dev+0x2b>
    2128:	b8 00 00 00 00       	mov    $0x0,%eax
    212d:	48 89 45 f8          	mov    %rax,-0x8(%rbp)
    2131:	eb 33                	jmp    2166 <get_std_dev+0x5e>
    2133:	f2 0f 2a 45 ec       	cvtsi2sdl -0x14(%rbp),%xmm0
    2138:	f2 0f 59 45 d8       	mulsd  -0x28(%rbp),%xmm0
    213d:	f2 0f 59 45 d8       	mulsd  -0x28(%rbp),%xmm0
    2142:	f2 0f 10 4d e0       	movsd  -0x20(%rbp),%xmm1
    2147:	66 0f 28 d1          	movapd %xmm1,%xmm2
    214b:	f2 0f 5c d0          	subsd  %xmm0,%xmm2
    214f:	66 0f 28 c2          	movapd %xmm2,%xmm0
    2153:	8b 45 ec             	mov    -0x14(%rbp),%eax
    2156:	83 e8 01             	sub    $0x1,%eax
    2159:	f2 0f 2a c8          	cvtsi2sd %eax,%xmm1
    215d:	f2 0f 5e c1          	divsd  %xmm1,%xmm0
    2161:	f2 0f 11 45 f8       	movsd  %xmm0,-0x8(%rbp)
    2166:	f2 0f 10 45 f8       	movsd  -0x8(%rbp),%xmm0
    216b:	66 0f 57 c9          	xorpd  %xmm1,%xmm1
    216f:	66 0f 2e c1          	ucomisd %xmm1,%xmm0
    2173:	76 21                	jbe    2196 <get_std_dev+0x8e>
    2175:	48 8b 45 f8          	mov    -0x8(%rbp),%rax
    2179:	48 89 45 d0          	mov    %rax,-0x30(%rbp)
    217d:	f2 0f 10 45 d0       	movsd  -0x30(%rbp),%xmm0
    2182:	e8 00 00 00 00       	callq  2187 <get_std_dev+0x7f>
    2187:	f2 0f 11 45 d0       	movsd  %xmm0,-0x30(%rbp)
    218c:	48 8b 45 d0          	mov    -0x30(%rbp),%rax
    2190:	48 89 45 f8          	mov    %rax,-0x8(%rbp)
    2194:	eb 09                	jmp    219f <get_std_dev+0x97>
    2196:	b8 00 00 00 00       	mov    $0x0,%eax
    219b:	48 89 45 f8          	mov    %rax,-0x8(%rbp)
    219f:	48 8b 45 f8          	mov    -0x8(%rbp),%rax
    21a3:	48 89 45 d0          	mov    %rax,-0x30(%rbp)
    21a7:	f2 0f 10 45 d0       	movsd  -0x30(%rbp),%xmm0
    21ac:	c9                   	leaveq 
    21ad:	c3                   	retq   

00000000000021ae <update_rlim>:
    21ae:	55                   	push   %rbp
    21af:	48 89 e5             	mov    %rsp,%rbp
    21b2:	48 83 ec 20          	sub    $0x20,%rsp
    21b6:	e8 00 00 00 00       	callq  21bb <update_rlim+0xd>
    21bb:	48 89 7d e8          	mov    %rdi,-0x18(%rbp)
    21bf:	f3 0f 11 45 e4       	movss  %xmm0,-0x1c(%rbp)
    21c4:	48 8b 45 e8          	mov    -0x18(%rbp),%rax
    21c8:	f3 0f 10 00          	movss  (%rax),%xmm0
    21cc:	0f 14 c0             	unpcklps %xmm0,%xmm0
    21cf:	0f 5a c8             	cvtps2pd %xmm0,%xmm1
    21d2:	f3 0f 10 45 e4       	movss  -0x1c(%rbp),%xmm0
    21d7:	0f 5a c0             	cvtps2pd %xmm0,%xmm0
    21da:	f2 0f 10 15 00 00 00 	movsd  0x0(%rip),%xmm2        # 21e2 <update_rlim+0x34>
    21e1:	00 
    21e2:	f2 0f 58 c2          	addsd  %xmm2,%xmm0
    21e6:	f2 0f 59 c1          	mulsd  %xmm1,%xmm0
    21ea:	66 0f 14 c0          	unpcklpd %xmm0,%xmm0
    21ee:	66 0f 5a c0          	cvtpd2ps %xmm0,%xmm0
    21f2:	48 8b 45 e8          	mov    -0x18(%rbp),%rax
    21f6:	f3 0f 11 00          	movss  %xmm0,(%rax)
    21fa:	8b 15 00 00 00 00    	mov    0x0(%rip),%edx        # 2200 <update_rlim+0x52>
    2200:	8b 05 00 00 00 00    	mov    0x0(%rip),%eax        # 2206 <update_rlim+0x58>
    2206:	39 c2                	cmp    %eax,%edx
    2208:	0f 4d c2             	cmovge %edx,%eax
    220b:	f3 0f 2a c0          	cvtsi2ss %eax,%xmm0
    220f:	f3 0f 11 45 fc       	movss  %xmm0,-0x4(%rbp)
    2214:	48 8b 45 e8          	mov    -0x18(%rbp),%rax
    2218:	f3 0f 10 00          	movss  (%rax),%xmm0
    221c:	0f 2e 45 fc          	ucomiss -0x4(%rbp),%xmm0
    2220:	76 05                	jbe    2227 <update_rlim+0x79>
    2222:	8b 45 fc             	mov    -0x4(%rbp),%eax
    2225:	eb 06                	jmp    222d <update_rlim+0x7f>
    2227:	48 8b 45 e8          	mov    -0x18(%rbp),%rax
    222b:	8b 00                	mov    (%rax),%eax
    222d:	48 8b 55 e8          	mov    -0x18(%rbp),%rdx
    2231:	89 02                	mov    %eax,(%rdx)
    2233:	48 8b 45 e8          	mov    -0x18(%rbp),%rax
    2237:	f3 0f 10 00          	movss  (%rax),%xmm0
    223b:	f3 0f 10 0d 00 00 00 	movss  0x0(%rip),%xmm1        # 2243 <update_rlim+0x95>
    2242:	00 
    2243:	0f 2e c1             	ucomiss %xmm1,%xmm0
    2246:	76 08                	jbe    2250 <update_rlim+0xa2>
    2248:	48 8b 45 e8          	mov    -0x18(%rbp),%rax
    224c:	8b 00                	mov    (%rax),%eax
    224e:	eb 06                	jmp    2256 <update_rlim+0xa8>
    2250:	8b 05 00 00 00 00    	mov    0x0(%rip),%eax        # 2256 <update_rlim+0xa8>
    2256:	48 8b 55 e8          	mov    -0x18(%rbp),%rdx
    225a:	89 02                	mov    %eax,(%rdx)
    225c:	c9                   	leaveq 
    225d:	c3                   	retq   

000000000000225e <update_t>:
    225e:	55                   	push   %rbp
    225f:	48 89 e5             	mov    %rsp,%rbp
    2262:	48 83 ec 18          	sub    $0x18,%rsp
    2266:	e8 00 00 00 00       	callq  226b <update_t+0xd>
    226b:	48 89 7d f8          	mov    %rdi,-0x8(%rbp)
    226f:	f3 0f 11 45 f4       	movss  %xmm0,-0xc(%rbp)
    2274:	f3 0f 11 4d f0       	movss  %xmm1,-0x10(%rbp)
    2279:	f3 0f 11 55 ec       	movss  %xmm2,-0x14(%rbp)
    227e:	8b 45 10             	mov    0x10(%rbp),%eax
    2281:	83 f8 01             	cmp    $0x1,%eax
    2284:	75 1e                	jne    22a4 <update_t+0x46>
    2286:	f3 0f 10 4d 1c       	movss  0x1c(%rbp),%xmm1
    228b:	48 8b 45 f8          	mov    -0x8(%rbp),%rax
    228f:	f3 0f 10 00          	movss  (%rax),%xmm0
    2293:	f3 0f 59 c1          	mulss  %xmm1,%xmm0
    2297:	48 8b 45 f8          	mov    -0x8(%rbp),%rax
    229b:	f3 0f 11 00          	movss  %xmm0,(%rax)
    229f:	e9 eb 00 00 00       	jmpq   238f <update_t+0x131>
    22a4:	f3 0f 10 45 ec       	movss  -0x14(%rbp),%xmm0
    22a9:	0f 5a c0             	cvtps2pd %xmm0,%xmm0
    22ac:	66 0f 2e 05 00 00 00 	ucomisd 0x0(%rip),%xmm0        # 22b4 <update_t+0x56>
    22b3:	00 
    22b4:	76 21                	jbe    22d7 <update_t+0x79>
    22b6:	48 8b 45 f8          	mov    -0x8(%rbp),%rax
    22ba:	f3 0f 10 08          	movss  (%rax),%xmm1
    22be:	f3 0f 10 05 00 00 00 	movss  0x0(%rip),%xmm0        # 22c6 <update_t+0x68>
    22c5:	00 
    22c6:	f3 0f 59 c1          	mulss  %xmm1,%xmm0
    22ca:	48 8b 45 f8          	mov    -0x8(%rbp),%rax
    22ce:	f3 0f 11 00          	movss  %xmm0,(%rax)
    22d2:	e9 b8 00 00 00       	jmpq   238f <update_t+0x131>
    22d7:	f3 0f 10 45 ec       	movss  -0x14(%rbp),%xmm0
    22dc:	0f 5a c0             	cvtps2pd %xmm0,%xmm0
    22df:	66 0f 2e 05 00 00 00 	ucomisd 0x0(%rip),%xmm0        # 22e7 <update_t+0x89>
    22e6:	00 
    22e7:	76 2c                	jbe    2315 <update_t+0xb7>
    22e9:	48 8b 45 f8          	mov    -0x8(%rbp),%rax
    22ed:	f3 0f 10 00          	movss  (%rax),%xmm0
    22f1:	0f 14 c0             	unpcklps %xmm0,%xmm0
    22f4:	0f 5a c0             	cvtps2pd %xmm0,%xmm0
    22f7:	f2 0f 10 0d 00 00 00 	movsd  0x0(%rip),%xmm1        # 22ff <update_t+0xa1>
    22fe:	00 
    22ff:	f2 0f 59 c1          	mulsd  %xmm1,%xmm0
    2303:	66 0f 14 c0          	unpcklpd %xmm0,%xmm0
    2307:	66 0f 5a c0          	cvtpd2ps %xmm0,%xmm0
    230b:	48 8b 45 f8          	mov    -0x8(%rbp),%rax
    230f:	f3 0f 11 00          	movss  %xmm0,(%rax)
    2313:	eb 7a                	jmp    238f <update_t+0x131>
    2315:	f3 0f 10 45 ec       	movss  -0x14(%rbp),%xmm0
    231a:	0f 5a c0             	cvtps2pd %xmm0,%xmm0
    231d:	66 0f 2e 05 00 00 00 	ucomisd 0x0(%rip),%xmm0        # 2325 <update_t+0xc7>
    2324:	00 
    2325:	77 12                	ja     2339 <update_t+0xdb>
    2327:	f3 0f 10 45 f0       	movss  -0x10(%rbp),%xmm0
    232c:	f3 0f 10 0d 00 00 00 	movss  0x0(%rip),%xmm1        # 2334 <update_t+0xd6>
    2333:	00 
    2334:	0f 2e c1             	ucomiss %xmm1,%xmm0
    2337:	76 2c                	jbe    2365 <update_t+0x107>
    2339:	48 8b 45 f8          	mov    -0x8(%rbp),%rax
    233d:	f3 0f 10 00          	movss  (%rax),%xmm0
    2341:	0f 14 c0             	unpcklps %xmm0,%xmm0
    2344:	0f 5a c0             	cvtps2pd %xmm0,%xmm0
    2347:	f2 0f 10 0d 00 00 00 	movsd  0x0(%rip),%xmm1        # 234f <update_t+0xf1>
    234e:	00 
    234f:	f2 0f 59 c1          	mulsd  %xmm1,%xmm0
    2353:	66 0f 14 c0          	unpcklpd %xmm0,%xmm0
    2357:	66 0f 5a c0          	cvtpd2ps %xmm0,%xmm0
    235b:	48 8b 45 f8          	mov    -0x8(%rbp),%rax
    235f:	f3 0f 11 00          	movss  %xmm0,(%rax)
    2363:	eb 2a                	jmp    238f <update_t+0x131>
    2365:	48 8b 45 f8          	mov    -0x8(%rbp),%rax
    2369:	f3 0f 10 00          	movss  (%rax),%xmm0
    236d:	0f 14 c0             	unpcklps %xmm0,%xmm0
    2370:	0f 5a c0             	cvtps2pd %xmm0,%xmm0
    2373:	f2 0f 10 0d 00 00 00 	movsd  0x0(%rip),%xmm1        # 237b <update_t+0x11d>
    237a:	00 
    237b:	f2 0f 59 c1          	mulsd  %xmm1,%xmm0
    237f:	66 0f 14 c0          	unpcklpd %xmm0,%xmm0
    2383:	66 0f 5a c0          	cvtpd2ps %xmm0,%xmm0
    2387:	48 8b 45 f8          	mov    -0x8(%rbp),%rax
    238b:	f3 0f 11 00          	movss  %xmm0,(%rax)
    238f:	c9                   	leaveq 
    2390:	c3                   	retq   

0000000000002391 <exit_crit>:
    2391:	55                   	push   %rbp
    2392:	48 89 e5             	mov    %rsp,%rbp
    2395:	48 83 ec 08          	sub    $0x8,%rsp
    2399:	e8 00 00 00 00       	callq  239e <exit_crit+0xd>
    239e:	f3 0f 11 45 fc       	movss  %xmm0,-0x4(%rbp)
    23a3:	f3 0f 11 4d f8       	movss  %xmm1,-0x8(%rbp)
    23a8:	8b 45 10             	mov    0x10(%rbp),%eax
    23ab:	83 f8 01             	cmp    $0x1,%eax
    23ae:	75 19                	jne    23c9 <exit_crit+0x38>
    23b0:	f3 0f 10 45 20       	movss  0x20(%rbp),%xmm0
    23b5:	0f 2e 45 fc          	ucomiss -0x4(%rbp),%xmm0
    23b9:	76 07                	jbe    23c2 <exit_crit+0x31>
    23bb:	b8 01 00 00 00       	mov    $0x1,%eax
    23c0:	eb 43                	jmp    2405 <exit_crit+0x74>
    23c2:	b8 00 00 00 00       	mov    $0x0,%eax
    23c7:	eb 3c                	jmp    2405 <exit_crit+0x74>
    23c9:	f3 0f 10 4d fc       	movss  -0x4(%rbp),%xmm1
    23ce:	0f 5a c9             	cvtps2pd %xmm1,%xmm1
    23d1:	f3 0f 10 45 f8       	movss  -0x8(%rbp),%xmm0
    23d6:	0f 5a c0             	cvtps2pd %xmm0,%xmm0
    23d9:	f2 0f 10 15 00 00 00 	movsd  0x0(%rip),%xmm2        # 23e1 <exit_crit+0x50>
    23e0:	00 
    23e1:	f2 0f 59 c2          	mulsd  %xmm2,%xmm0
    23e5:	8b 05 00 00 00 00    	mov    0x0(%rip),%eax        # 23eb <exit_crit+0x5a>
    23eb:	f2 0f 2a d0          	cvtsi2sd %eax,%xmm2
    23ef:	f2 0f 5e c2          	divsd  %xmm2,%xmm0
    23f3:	66 0f 2e c1          	ucomisd %xmm1,%xmm0
    23f7:	76 07                	jbe    2400 <exit_crit+0x6f>
    23f9:	b8 01 00 00 00       	mov    $0x1,%eax
    23fe:	eb 05                	jmp    2405 <exit_crit+0x74>
    2400:	b8 00 00 00 00       	mov    $0x0,%eax
    2405:	c9                   	leaveq 
    2406:	c3                   	retq   

0000000000002407 <starting_t>:
    2407:	55                   	push   %rbp
    2408:	48 89 e5             	mov    %rsp,%rbp
    240b:	41 54                	push   %r12
    240d:	53                   	push   %rbx
    240e:	48 81 ec b0 00 00 00 	sub    $0xb0,%rsp
    2415:	e8 00 00 00 00       	callq  241a <starting_t+0x13>
    241a:	48 89 7d b8          	mov    %rdi,-0x48(%rbp)
    241e:	48 89 75 b0          	mov    %rsi,-0x50(%rbp)
    2422:	48 89 55 a8          	mov    %rdx,-0x58(%rbp)
    2426:	89 4d a4             	mov    %ecx,-0x5c(%rbp)
    2429:	4c 89 45 98          	mov    %r8,-0x68(%rbp)
    242d:	4c 89 4d 90          	mov    %r9,-0x70(%rbp)
    2431:	f3 0f 11 45 a0       	movss  %xmm0,-0x60(%rbp)
    2436:	f3 0f 11 4d 8c       	movss  %xmm1,-0x74(%rbp)
    243b:	f3 0f 11 55 88       	movss  %xmm2,-0x78(%rbp)
    2440:	f3 0f 11 5d 84       	movss  %xmm3,-0x7c(%rbp)
    2445:	8b 05 00 00 00 00    	mov    0x0(%rip),%eax        # 244b <starting_t+0x44>
    244b:	48 98                	cltq   
    244d:	48 c1 e0 02          	shl    $0x2,%rax
    2451:	48 89 c7             	mov    %rax,%rdi
    2454:	e8 00 00 00 00       	callq  2459 <starting_t+0x52>
    2459:	48 89 45 d0          	mov    %rax,-0x30(%rbp)
    245d:	8b 45 20             	mov    0x20(%rbp),%eax
    2460:	83 f8 01             	cmp    $0x1,%eax
    2463:	75 08                	jne    246d <starting_t+0x66>
    2465:	8b 45 28             	mov    0x28(%rbp),%eax
    2468:	e9 d4 01 00 00       	jmpq   2641 <starting_t+0x23a>
    246d:	8b 05 00 00 00 00    	mov    0x0(%rip),%eax        # 2473 <starting_t+0x6c>
    2473:	39 45 38             	cmp    %eax,0x38(%rbp)
    2476:	0f 4e 45 38          	cmovle 0x38(%rbp),%eax
    247a:	89 45 cc             	mov    %eax,-0x34(%rbp)
    247d:	c7 45 e8 00 00 00 00 	movl   $0x0,-0x18(%rbp)
    2484:	b8 00 00 00 00       	mov    $0x0,%eax
    2489:	48 89 45 e0          	mov    %rax,-0x20(%rbp)
    248d:	b8 00 00 00 00       	mov    $0x0,%eax
    2492:	48 89 45 d8          	mov    %rax,-0x28(%rbp)
    2496:	c7 45 ec 00 00 00 00 	movl   $0x0,-0x14(%rbp)
    249d:	e9 d8 00 00 00       	jmpq   257a <starting_t+0x173>
    24a2:	8b 75 84             	mov    -0x7c(%rbp),%esi
    24a5:	8b 4d 88             	mov    -0x78(%rbp),%ecx
    24a8:	8b 55 8c             	mov    -0x74(%rbp),%edx
    24ab:	4c 8b 4d 90          	mov    -0x70(%rbp),%r9
    24af:	4c 8b 65 98          	mov    -0x68(%rbp),%r12
    24b3:	8b 5d a4             	mov    -0x5c(%rbp),%ebx
    24b6:	8b 45 a0             	mov    -0x60(%rbp),%eax
    24b9:	4c 8b 5d a8          	mov    -0x58(%rbp),%r11
    24bd:	4c 8b 55 b0          	mov    -0x50(%rbp),%r10
    24c1:	48 8b 7d b8          	mov    -0x48(%rbp),%rdi
    24c5:	4c 8b 45 d0          	mov    -0x30(%rbp),%r8
    24c9:	4c 89 44 24 20       	mov    %r8,0x20(%rsp)
    24ce:	4c 8b 45 48          	mov    0x48(%rbp),%r8
    24d2:	4c 89 44 24 18       	mov    %r8,0x18(%rsp)
    24d7:	44 8b 45 40          	mov    0x40(%rbp),%r8d
    24db:	44 89 44 24 10       	mov    %r8d,0x10(%rsp)
    24e0:	44 8b 45 18          	mov    0x18(%rbp),%r8d
    24e4:	44 89 44 24 08       	mov    %r8d,0x8(%rsp)
    24e9:	44 8b 45 10          	mov    0x10(%rbp),%r8d
    24ed:	44 89 04 24          	mov    %r8d,(%rsp)
    24f1:	89 75 80             	mov    %esi,-0x80(%rbp)
    24f4:	f3 0f 10 65 80       	movss  -0x80(%rbp),%xmm4
    24f9:	89 4d 80             	mov    %ecx,-0x80(%rbp)
    24fc:	f3 0f 10 5d 80       	movss  -0x80(%rbp),%xmm3
    2501:	89 55 80             	mov    %edx,-0x80(%rbp)
    2504:	f3 0f 10 55 80       	movss  -0x80(%rbp),%xmm2
    2509:	4d 89 e0             	mov    %r12,%r8
    250c:	89 d9                	mov    %ebx,%ecx
    250e:	89 45 80             	mov    %eax,-0x80(%rbp)
    2511:	f3 0f 10 4d 80       	movss  -0x80(%rbp),%xmm1
    2516:	4c 89 da             	mov    %r11,%rdx
    2519:	4c 89 d6             	mov    %r10,%rsi
    251c:	f3 0f 10 05 00 00 00 	movss  0x0(%rip),%xmm0        # 2524 <starting_t+0x11d>
    2523:	00 
    2524:	e8 2c 01 00 00       	callq  2655 <try_swap>
    2529:	83 f8 01             	cmp    $0x1,%eax
    252c:	75 48                	jne    2576 <starting_t+0x16f>
    252e:	83 45 e8 01          	addl   $0x1,-0x18(%rbp)
    2532:	48 8b 45 b8          	mov    -0x48(%rbp),%rax
    2536:	f3 0f 10 00          	movss  (%rax),%xmm0
    253a:	0f 14 c0             	unpcklps %xmm0,%xmm0
    253d:	0f 5a c0             	cvtps2pd %xmm0,%xmm0
    2540:	f2 0f 10 4d e0       	movsd  -0x20(%rbp),%xmm1
    2545:	f2 0f 58 c1          	addsd  %xmm1,%xmm0
    2549:	f2 0f 11 45 e0       	movsd  %xmm0,-0x20(%rbp)
    254e:	48 8b 45 b8          	mov    -0x48(%rbp),%rax
    2552:	f3 0f 10 08          	movss  (%rax),%xmm1
    2556:	48 8b 45 b8          	mov    -0x48(%rbp),%rax
    255a:	f3 0f 10 00          	movss  (%rax),%xmm0
    255e:	f3 0f 59 c1          	mulss  %xmm1,%xmm0
    2562:	0f 14 c0             	unpcklps %xmm0,%xmm0
    2565:	0f 5a c0             	cvtps2pd %xmm0,%xmm0
    2568:	f2 0f 10 4d d8       	movsd  -0x28(%rbp),%xmm1
    256d:	f2 0f 58 c1          	addsd  %xmm1,%xmm0
    2571:	f2 0f 11 45 d8       	movsd  %xmm0,-0x28(%rbp)
    2576:	83 45 ec 01          	addl   $0x1,-0x14(%rbp)
    257a:	8b 45 ec             	mov    -0x14(%rbp),%eax
    257d:	3b 45 cc             	cmp    -0x34(%rbp),%eax
    2580:	0f 8c 1c ff ff ff    	jl     24a2 <starting_t+0x9b>
    2586:	83 7d e8 00          	cmpl   $0x0,-0x18(%rbp)
    258a:	74 1d                	je     25a9 <starting_t+0x1a2>
    258c:	f2 0f 2a 45 e8       	cvtsi2sdl -0x18(%rbp),%xmm0
    2591:	f2 0f 10 4d e0       	movsd  -0x20(%rbp),%xmm1
    2596:	66 0f 28 d1          	movapd %xmm1,%xmm2
    259a:	f2 0f 5e d0          	divsd  %xmm0,%xmm2
    259e:	66 0f 28 c2          	movapd %xmm2,%xmm0
    25a2:	f2 0f 11 45 e0       	movsd  %xmm0,-0x20(%rbp)
    25a7:	eb 09                	jmp    25b2 <starting_t+0x1ab>
    25a9:	b8 00 00 00 00       	mov    $0x0,%eax
    25ae:	48 89 45 e0          	mov    %rax,-0x20(%rbp)
    25b2:	48 8b 55 e0          	mov    -0x20(%rbp),%rdx
    25b6:	48 8b 45 d8          	mov    -0x28(%rbp),%rax
    25ba:	8b 4d e8             	mov    -0x18(%rbp),%ecx
    25bd:	48 89 95 78 ff ff ff 	mov    %rdx,-0x88(%rbp)
    25c4:	f2 0f 10 8d 78 ff ff 	movsd  -0x88(%rbp),%xmm1
    25cb:	ff 
    25cc:	48 89 85 78 ff ff ff 	mov    %rax,-0x88(%rbp)
    25d3:	f2 0f 10 85 78 ff ff 	movsd  -0x88(%rbp),%xmm0
    25da:	ff 
    25db:	89 cf                	mov    %ecx,%edi
    25dd:	e8 26 fb ff ff       	callq  2108 <get_std_dev>
    25e2:	f2 0f 11 85 78 ff ff 	movsd  %xmm0,-0x88(%rbp)
    25e9:	ff 
    25ea:	48 8b 85 78 ff ff ff 	mov    -0x88(%rbp),%rax
    25f1:	48 89 45 c0          	mov    %rax,-0x40(%rbp)
    25f5:	8b 45 e8             	mov    -0x18(%rbp),%eax
    25f8:	3b 45 cc             	cmp    -0x34(%rbp),%eax
    25fb:	74 17                	je     2614 <starting_t+0x20d>
    25fd:	8b 55 cc             	mov    -0x34(%rbp),%edx
    2600:	8b 45 e8             	mov    -0x18(%rbp),%eax
    2603:	89 c6                	mov    %eax,%esi
    2605:	bf 00 00 00 00       	mov    $0x0,%edi
    260a:	b8 00 00 00 00       	mov    $0x0,%eax
    260f:	e8 00 00 00 00       	callq  2614 <starting_t+0x20d>
    2614:	48 8b 45 d0          	mov    -0x30(%rbp),%rax
    2618:	48 89 c7             	mov    %rax,%rdi
    261b:	e8 00 00 00 00       	callq  2620 <starting_t+0x219>
    2620:	f2 0f 10 4d c0       	movsd  -0x40(%rbp),%xmm1
    2625:	f2 0f 10 05 00 00 00 	movsd  0x0(%rip),%xmm0        # 262d <starting_t+0x226>
    262c:	00 
    262d:	f2 0f 59 c1          	mulsd  %xmm1,%xmm0
    2631:	66 0f 14 c0          	unpcklpd %xmm0,%xmm0
    2635:	66 0f 5a c0          	cvtpd2ps %xmm0,%xmm0
    2639:	f3 0f 11 45 80       	movss  %xmm0,-0x80(%rbp)
    263e:	8b 45 80             	mov    -0x80(%rbp),%eax
    2641:	89 45 80             	mov    %eax,-0x80(%rbp)
    2644:	f3 0f 10 45 80       	movss  -0x80(%rbp),%xmm0
    2649:	48 81 c4 b0 00 00 00 	add    $0xb0,%rsp
    2650:	5b                   	pop    %rbx
    2651:	41 5c                	pop    %r12
    2653:	5d                   	pop    %rbp
    2654:	c3                   	retq   

0000000000002655 <try_swap>:
    2655:	55                   	push   %rbp
    2656:	48 89 e5             	mov    %rsp,%rbp
    2659:	53                   	push   %rbx
    265a:	48 81 ec c8 00 00 00 	sub    $0xc8,%rsp
    2661:	e8 00 00 00 00       	callq  2666 <try_swap+0x11>
    2666:	f3 0f 11 45 8c       	movss  %xmm0,-0x74(%rbp)
    266b:	48 89 7d 80          	mov    %rdi,-0x80(%rbp)
    266f:	48 89 b5 78 ff ff ff 	mov    %rsi,-0x88(%rbp)
    2676:	48 89 95 70 ff ff ff 	mov    %rdx,-0x90(%rbp)
    267d:	f3 0f 11 4d 88       	movss  %xmm1,-0x78(%rbp)
    2682:	89 8d 6c ff ff ff    	mov    %ecx,-0x94(%rbp)
    2688:	4c 89 85 60 ff ff ff 	mov    %r8,-0xa0(%rbp)
    268f:	4c 89 8d 58 ff ff ff 	mov    %r9,-0xa8(%rbp)
    2696:	f3 0f 11 95 68 ff ff 	movss  %xmm2,-0x98(%rbp)
    269d:	ff 
    269e:	f3 0f 11 9d 54 ff ff 	movss  %xmm3,-0xac(%rbp)
    26a5:	ff 
    26a6:	f3 0f 11 a5 50 ff ff 	movss  %xmm4,-0xb0(%rbp)
    26ad:	ff 
    26ae:	c7 45 d8 00 00 00 00 	movl   $0x0,-0x28(%rbp)
    26b5:	c7 45 e0 00 00 00 00 	movl   $0x0,-0x20(%rbp)
    26bc:	eb 36                	jmp    26f4 <try_swap+0x9f>
    26be:	48 8b 0d 00 00 00 00 	mov    0x0(%rip),%rcx        # 26c5 <try_swap+0x70>
    26c5:	8b 45 e0             	mov    -0x20(%rbp),%eax
    26c8:	48 63 d0             	movslq %eax,%rdx
    26cb:	48 89 d0             	mov    %rdx,%rax
    26ce:	48 c1 e0 03          	shl    $0x3,%rax
    26d2:	48 01 d0             	add    %rdx,%rax
    26d5:	48 01 c0             	add    %rax,%rax
    26d8:	48 01 d0             	add    %rdx,%rax
    26db:	48 c1 e0 03          	shl    $0x3,%rax
    26df:	48 01 c8             	add    %rcx,%rax
    26e2:	8b 50 08             	mov    0x8(%rax),%edx
    26e5:	8b 45 d8             	mov    -0x28(%rbp),%eax
    26e8:	39 c2                	cmp    %eax,%edx
    26ea:	0f 4d c2             	cmovge %edx,%eax
    26ed:	89 45 d8             	mov    %eax,-0x28(%rbp)
    26f0:	83 45 e0 01          	addl   $0x1,-0x20(%rbp)
    26f4:	8b 05 00 00 00 00    	mov    0x0(%rip),%eax        # 26fa <try_swap+0xa5>
    26fa:	39 45 e0             	cmp    %eax,-0x20(%rbp)
    26fd:	7c bf                	jl     26be <try_swap+0x69>
    26ff:	48 8b 05 00 00 00 00 	mov    0x0(%rip),%rax        # 2706 <try_swap+0xb1>
    2706:	48 85 c0             	test   %rax,%rax
    2709:	75 60                	jne    276b <try_swap+0x116>
    270b:	8b 45 d8             	mov    -0x28(%rbp),%eax
    270e:	48 98                	cltq   
    2710:	48 c1 e0 05          	shl    $0x5,%rax
    2714:	48 89 c7             	mov    %rax,%rdi
    2717:	e8 00 00 00 00       	callq  271c <try_swap+0xc7>
    271c:	48 89 05 00 00 00 00 	mov    %rax,0x0(%rip)        # 2723 <try_swap+0xce>
    2723:	8b 45 d8             	mov    -0x28(%rbp),%eax
    2726:	48 98                	cltq   
    2728:	48 c1 e0 05          	shl    $0x5,%rax
    272c:	48 89 c7             	mov    %rax,%rdi
    272f:	e8 00 00 00 00       	callq  2734 <try_swap+0xdf>
    2734:	48 89 05 00 00 00 00 	mov    %rax,0x0(%rip)        # 273b <try_swap+0xe6>
    273b:	8b 45 d8             	mov    -0x28(%rbp),%eax
    273e:	48 98                	cltq   
    2740:	48 c1 e0 03          	shl    $0x3,%rax
    2744:	48 89 c7             	mov    %rax,%rdi
    2747:	e8 00 00 00 00       	callq  274c <try_swap+0xf7>
    274c:	48 89 05 00 00 00 00 	mov    %rax,0x0(%rip)        # 2753 <try_swap+0xfe>
    2753:	8b 45 d8             	mov    -0x28(%rbp),%eax
    2756:	48 98                	cltq   
    2758:	48 c1 e0 03          	shl    $0x3,%rax
    275c:	48 89 c7             	mov    %rax,%rdi
    275f:	e8 00 00 00 00       	callq  2764 <try_swap+0x10f>
    2764:	48 89 05 00 00 00 00 	mov    %rax,0x0(%rip)        # 276b <try_swap+0x116>
    276b:	8b 05 00 00 00 00    	mov    0x0(%rip),%eax        # 2771 <try_swap+0x11c>
    2771:	89 45 9c             	mov    %eax,-0x64(%rbp)
    2774:	8b 05 00 00 00 00    	mov    0x0(%rip),%eax        # 277a <try_swap+0x125>
    277a:	83 e8 01             	sub    $0x1,%eax
    277d:	89 c7                	mov    %eax,%edi
    277f:	e8 00 00 00 00       	callq  2784 <try_swap+0x12f>
    2784:	89 45 ec             	mov    %eax,-0x14(%rbp)
    2787:	83 7d 18 01          	cmpl   $0x1,0x18(%rbp)
    278b:	75 43                	jne    27d0 <try_swap+0x17b>
    278d:	eb 13                	jmp    27a2 <try_swap+0x14d>
    278f:	8b 05 00 00 00 00    	mov    0x0(%rip),%eax        # 2795 <try_swap+0x140>
    2795:	83 e8 01             	sub    $0x1,%eax
    2798:	89 c7                	mov    %eax,%edi
    279a:	e8 00 00 00 00       	callq  279f <try_swap+0x14a>
    279f:	89 45 ec             	mov    %eax,-0x14(%rbp)
    27a2:	48 8b 0d 00 00 00 00 	mov    0x0(%rip),%rcx        # 27a9 <try_swap+0x154>
    27a9:	8b 45 ec             	mov    -0x14(%rbp),%eax
    27ac:	48 63 d0             	movslq %eax,%rdx
    27af:	48 89 d0             	mov    %rdx,%rax
    27b2:	48 c1 e0 02          	shl    $0x2,%rax
    27b6:	48 01 d0             	add    %rdx,%rax
    27b9:	48 c1 e0 03          	shl    $0x3,%rax
    27bd:	48 01 c8             	add    %rcx,%rax
    27c0:	48 8b 50 08          	mov    0x8(%rax),%rdx
    27c4:	48 8b 05 00 00 00 00 	mov    0x0(%rip),%rax        # 27cb <try_swap+0x176>
    27cb:	48 39 c2             	cmp    %rax,%rdx
    27ce:	74 bf                	je     278f <try_swap+0x13a>
    27d0:	48 8b 0d 00 00 00 00 	mov    0x0(%rip),%rcx        # 27d7 <try_swap+0x182>
    27d7:	8b 45 ec             	mov    -0x14(%rbp),%eax
    27da:	48 63 d0             	movslq %eax,%rdx
    27dd:	48 89 d0             	mov    %rdx,%rax
    27e0:	48 c1 e0 02          	shl    $0x2,%rax
    27e4:	48 01 d0             	add    %rdx,%rax
    27e7:	48 c1 e0 03          	shl    $0x3,%rax
    27eb:	48 01 c8             	add    %rcx,%rax
    27ee:	8b 40 18             	mov    0x18(%rax),%eax
    27f1:	89 45 c8             	mov    %eax,-0x38(%rbp)
    27f4:	48 8b 0d 00 00 00 00 	mov    0x0(%rip),%rcx        # 27fb <try_swap+0x1a6>
    27fb:	8b 45 ec             	mov    -0x14(%rbp),%eax
    27fe:	48 63 d0             	movslq %eax,%rdx
    2801:	48 89 d0             	mov    %rdx,%rax
    2804:	48 c1 e0 02          	shl    $0x2,%rax
    2808:	48 01 d0             	add    %rdx,%rax
    280b:	48 c1 e0 03          	shl    $0x3,%rax
    280f:	48 01 c8             	add    %rcx,%rax
    2812:	8b 40 1c             	mov    0x1c(%rax),%eax
    2815:	89 45 c4             	mov    %eax,-0x3c(%rbp)
    2818:	48 8b 0d 00 00 00 00 	mov    0x0(%rip),%rcx        # 281f <try_swap+0x1ca>
    281f:	8b 45 ec             	mov    -0x14(%rbp),%eax
    2822:	48 63 d0             	movslq %eax,%rdx
    2825:	48 89 d0             	mov    %rdx,%rax
    2828:	48 c1 e0 02          	shl    $0x2,%rax
    282c:	48 01 d0             	add    %rdx,%rax
    282f:	48 c1 e0 03          	shl    $0x3,%rax
    2833:	48 01 c8             	add    %rcx,%rax
    2836:	8b 40 20             	mov    0x20(%rax),%eax
    2839:	89 45 c0             	mov    %eax,-0x40(%rbp)
    283c:	48 8b 0d 00 00 00 00 	mov    0x0(%rip),%rcx        # 2843 <try_swap+0x1ee>
    2843:	8b 45 ec             	mov    -0x14(%rbp),%eax
    2846:	48 63 d0             	movslq %eax,%rdx
    2849:	48 89 d0             	mov    %rdx,%rax
    284c:	48 c1 e0 02          	shl    $0x2,%rax
    2850:	48 01 d0             	add    %rdx,%rax
    2853:	48 c1 e0 03          	shl    $0x3,%rax
    2857:	48 01 c8             	add    %rcx,%rax
    285a:	48 8b 50 08          	mov    0x8(%rax),%rdx
    285e:	4c 8d 4d a4          	lea    -0x5c(%rbp),%r9
    2862:	4c 8d 45 a8          	lea    -0x58(%rbp),%r8
    2866:	48 8b 4d 30          	mov    0x30(%rbp),%rcx
    286a:	8b 45 88             	mov    -0x78(%rbp),%eax
    286d:	8b 75 c4             	mov    -0x3c(%rbp),%esi
    2870:	8b 7d c8             	mov    -0x38(%rbp),%edi
    2873:	89 85 4c ff ff ff    	mov    %eax,-0xb4(%rbp)
    2879:	f3 0f 10 85 4c ff ff 	movss  -0xb4(%rbp),%xmm0
    2880:	ff 
    2881:	e8 f1 0e 00 00       	callq  3777 <find_to>
    2886:	85 c0                	test   %eax,%eax
    2888:	75 0a                	jne    2894 <try_swap+0x23f>
    288a:	b8 00 00 00 00       	mov    $0x0,%eax
    288f:	e9 3f 0a 00 00       	jmpq   32d3 <try_swap+0xc7e>
    2894:	c7 45 e8 00 00 00 00 	movl   $0x0,-0x18(%rbp)
    289b:	48 8b 05 00 00 00 00 	mov    0x0(%rip),%rax        # 28a2 <try_swap+0x24d>
    28a2:	8b 55 a8             	mov    -0x58(%rbp),%edx
    28a5:	48 63 d2             	movslq %edx,%rdx
    28a8:	48 c1 e2 03          	shl    $0x3,%rdx
    28ac:	48 01 d0             	add    %rdx,%rax
    28af:	48 8b 08             	mov    (%rax),%rcx
    28b2:	8b 45 a4             	mov    -0x5c(%rbp),%eax
    28b5:	48 63 d0             	movslq %eax,%rdx
    28b8:	48 89 d0             	mov    %rdx,%rax
    28bb:	48 01 c0             	add    %rax,%rax
    28be:	48 01 d0             	add    %rdx,%rax
    28c1:	48 c1 e0 03          	shl    $0x3,%rax
    28c5:	48 01 c8             	add    %rcx,%rax
    28c8:	48 8b 00             	mov    (%rax),%rax
    28cb:	8b 40 0c             	mov    0xc(%rax),%eax
    28ce:	83 f8 01             	cmp    $0x1,%eax
    28d1:	7e 40                	jle    2913 <try_swap+0x2be>
    28d3:	48 8b 05 00 00 00 00 	mov    0x0(%rip),%rax        # 28da <try_swap+0x285>
    28da:	8b 55 a8             	mov    -0x58(%rbp),%edx
    28dd:	48 63 d2             	movslq %edx,%rdx
    28e0:	48 c1 e2 03          	shl    $0x3,%rdx
    28e4:	48 01 d0             	add    %rdx,%rax
    28e7:	48 8b 08             	mov    (%rax),%rcx
    28ea:	8b 45 a4             	mov    -0x5c(%rbp),%eax
    28ed:	48 63 d0             	movslq %eax,%rdx
    28f0:	48 89 d0             	mov    %rdx,%rax
    28f3:	48 01 c0             	add    %rax,%rax
    28f6:	48 01 d0             	add    %rdx,%rax
    28f9:	48 c1 e0 03          	shl    $0x3,%rax
    28fd:	48 01 c8             	add    %rcx,%rax
    2900:	48 8b 00             	mov    (%rax),%rax
    2903:	8b 40 0c             	mov    0xc(%rax),%eax
    2906:	83 e8 01             	sub    $0x1,%eax
    2909:	89 c7                	mov    %eax,%edi
    290b:	e8 00 00 00 00       	callq  2910 <try_swap+0x2bb>
    2910:	89 45 e8             	mov    %eax,-0x18(%rbp)
    2913:	48 8b 05 00 00 00 00 	mov    0x0(%rip),%rax        # 291a <try_swap+0x2c5>
    291a:	8b 55 a8             	mov    -0x58(%rbp),%edx
    291d:	48 63 d2             	movslq %edx,%rdx
    2920:	48 c1 e2 03          	shl    $0x3,%rdx
    2924:	48 01 d0             	add    %rdx,%rax
    2927:	48 8b 08             	mov    (%rax),%rcx
    292a:	8b 45 a4             	mov    -0x5c(%rbp),%eax
    292d:	48 63 d0             	movslq %eax,%rdx
    2930:	48 89 d0             	mov    %rdx,%rax
    2933:	48 01 c0             	add    %rax,%rax
    2936:	48 01 d0             	add    %rdx,%rax
    2939:	48 c1 e0 03          	shl    $0x3,%rax
    293d:	48 01 c8             	add    %rcx,%rax
    2940:	48 8b 40 10          	mov    0x10(%rax),%rax
    2944:	8b 55 e8             	mov    -0x18(%rbp),%edx
    2947:	48 63 d2             	movslq %edx,%rdx
    294a:	48 c1 e2 02          	shl    $0x2,%rdx
    294e:	48 01 d0             	add    %rdx,%rax
    2951:	8b 00                	mov    (%rax),%eax
    2953:	83 f8 ff             	cmp    $0xffffffff,%eax
    2956:	75 7b                	jne    29d3 <try_swap+0x37e>
    2958:	c7 45 e4 ff ff ff ff 	movl   $0xffffffff,-0x1c(%rbp)
    295f:	48 8b 0d 00 00 00 00 	mov    0x0(%rip),%rcx        # 2966 <try_swap+0x311>
    2966:	8b 45 ec             	mov    -0x14(%rbp),%eax
    2969:	48 63 d0             	movslq %eax,%rdx
    296c:	48 89 d0             	mov    %rdx,%rax
    296f:	48 c1 e0 02          	shl    $0x2,%rax
    2973:	48 01 d0             	add    %rdx,%rax
    2976:	48 c1 e0 03          	shl    $0x3,%rax
    297a:	48 8d 14 01          	lea    (%rcx,%rax,1),%rdx
    297e:	8b 45 a8             	mov    -0x58(%rbp),%eax
    2981:	89 42 18             	mov    %eax,0x18(%rdx)
    2984:	48 8b 0d 00 00 00 00 	mov    0x0(%rip),%rcx        # 298b <try_swap+0x336>
    298b:	8b 45 ec             	mov    -0x14(%rbp),%eax
    298e:	48 63 d0             	movslq %eax,%rdx
    2991:	48 89 d0             	mov    %rdx,%rax
    2994:	48 c1 e0 02          	shl    $0x2,%rax
    2998:	48 01 d0             	add    %rdx,%rax
    299b:	48 c1 e0 03          	shl    $0x3,%rax
    299f:	48 8d 14 01          	lea    (%rcx,%rax,1),%rdx
    29a3:	8b 45 a4             	mov    -0x5c(%rbp),%eax
    29a6:	89 42 1c             	mov    %eax,0x1c(%rdx)
    29a9:	48 8b 0d 00 00 00 00 	mov    0x0(%rip),%rcx        # 29b0 <try_swap+0x35b>
    29b0:	8b 45 ec             	mov    -0x14(%rbp),%eax
    29b3:	48 63 d0             	movslq %eax,%rdx
    29b6:	48 89 d0             	mov    %rdx,%rax
    29b9:	48 c1 e0 02          	shl    $0x2,%rax
    29bd:	48 01 d0             	add    %rdx,%rax
    29c0:	48 c1 e0 03          	shl    $0x3,%rax
    29c4:	48 8d 14 01          	lea    (%rcx,%rax,1),%rdx
    29c8:	8b 45 e8             	mov    -0x18(%rbp),%eax
    29cb:	89 42 20             	mov    %eax,0x20(%rdx)
    29ce:	e9 21 01 00 00       	jmpq   2af4 <try_swap+0x49f>
    29d3:	48 8b 05 00 00 00 00 	mov    0x0(%rip),%rax        # 29da <try_swap+0x385>
    29da:	8b 55 a8             	mov    -0x58(%rbp),%edx
    29dd:	48 63 d2             	movslq %edx,%rdx
    29e0:	48 c1 e2 03          	shl    $0x3,%rdx
    29e4:	48 01 d0             	add    %rdx,%rax
    29e7:	48 8b 08             	mov    (%rax),%rcx
    29ea:	8b 45 a4             	mov    -0x5c(%rbp),%eax
    29ed:	48 63 d0             	movslq %eax,%rdx
    29f0:	48 89 d0             	mov    %rdx,%rax
    29f3:	48 01 c0             	add    %rax,%rax
    29f6:	48 01 d0             	add    %rdx,%rax
    29f9:	48 c1 e0 03          	shl    $0x3,%rax
    29fd:	48 01 c8             	add    %rcx,%rax
    2a00:	48 8b 40 10          	mov    0x10(%rax),%rax
    2a04:	8b 55 e8             	mov    -0x18(%rbp),%edx
    2a07:	48 63 d2             	movslq %edx,%rdx
    2a0a:	48 c1 e2 02          	shl    $0x2,%rdx
    2a0e:	48 01 d0             	add    %rdx,%rax
    2a11:	8b 00                	mov    (%rax),%eax
    2a13:	89 45 e4             	mov    %eax,-0x1c(%rbp)
    2a16:	48 8b 0d 00 00 00 00 	mov    0x0(%rip),%rcx        # 2a1d <try_swap+0x3c8>
    2a1d:	8b 45 e4             	mov    -0x1c(%rbp),%eax
    2a20:	48 63 d0             	movslq %eax,%rdx
    2a23:	48 89 d0             	mov    %rdx,%rax
    2a26:	48 c1 e0 02          	shl    $0x2,%rax
    2a2a:	48 01 d0             	add    %rdx,%rax
    2a2d:	48 c1 e0 03          	shl    $0x3,%rax
    2a31:	48 8d 14 01          	lea    (%rcx,%rax,1),%rdx
    2a35:	8b 45 c8             	mov    -0x38(%rbp),%eax
    2a38:	89 42 18             	mov    %eax,0x18(%rdx)
    2a3b:	48 8b 0d 00 00 00 00 	mov    0x0(%rip),%rcx        # 2a42 <try_swap+0x3ed>
    2a42:	8b 45 e4             	mov    -0x1c(%rbp),%eax
    2a45:	48 63 d0             	movslq %eax,%rdx
    2a48:	48 89 d0             	mov    %rdx,%rax
    2a4b:	48 c1 e0 02          	shl    $0x2,%rax
    2a4f:	48 01 d0             	add    %rdx,%rax
    2a52:	48 c1 e0 03          	shl    $0x3,%rax
    2a56:	48 8d 14 01          	lea    (%rcx,%rax,1),%rdx
    2a5a:	8b 45 c4             	mov    -0x3c(%rbp),%eax
    2a5d:	89 42 1c             	mov    %eax,0x1c(%rdx)
    2a60:	48 8b 0d 00 00 00 00 	mov    0x0(%rip),%rcx        # 2a67 <try_swap+0x412>
    2a67:	8b 45 e4             	mov    -0x1c(%rbp),%eax
    2a6a:	48 63 d0             	movslq %eax,%rdx
    2a6d:	48 89 d0             	mov    %rdx,%rax
    2a70:	48 c1 e0 02          	shl    $0x2,%rax
    2a74:	48 01 d0             	add    %rdx,%rax
    2a77:	48 c1 e0 03          	shl    $0x3,%rax
    2a7b:	48 8d 14 01          	lea    (%rcx,%rax,1),%rdx
    2a7f:	8b 45 c0             	mov    -0x40(%rbp),%eax
    2a82:	89 42 20             	mov    %eax,0x20(%rdx)
    2a85:	48 8b 0d 00 00 00 00 	mov    0x0(%rip),%rcx        # 2a8c <try_swap+0x437>
    2a8c:	8b 45 ec             	mov    -0x14(%rbp),%eax
    2a8f:	48 63 d0             	movslq %eax,%rdx
    2a92:	48 89 d0             	mov    %rdx,%rax
    2a95:	48 c1 e0 02          	shl    $0x2,%rax
    2a99:	48 01 d0             	add    %rdx,%rax
    2a9c:	48 c1 e0 03          	shl    $0x3,%rax
    2aa0:	48 8d 14 01          	lea    (%rcx,%rax,1),%rdx
    2aa4:	8b 45 a8             	mov    -0x58(%rbp),%eax
    2aa7:	89 42 18             	mov    %eax,0x18(%rdx)
    2aaa:	48 8b 0d 00 00 00 00 	mov    0x0(%rip),%rcx        # 2ab1 <try_swap+0x45c>
    2ab1:	8b 45 ec             	mov    -0x14(%rbp),%eax
    2ab4:	48 63 d0             	movslq %eax,%rdx
    2ab7:	48 89 d0             	mov    %rdx,%rax
    2aba:	48 c1 e0 02          	shl    $0x2,%rax
    2abe:	48 01 d0             	add    %rdx,%rax
    2ac1:	48 c1 e0 03          	shl    $0x3,%rax
    2ac5:	48 8d 14 01          	lea    (%rcx,%rax,1),%rdx
    2ac9:	8b 45 a4             	mov    -0x5c(%rbp),%eax
    2acc:	89 42 1c             	mov    %eax,0x1c(%rdx)
    2acf:	48 8b 0d 00 00 00 00 	mov    0x0(%rip),%rcx        # 2ad6 <try_swap+0x481>
    2ad6:	8b 45 ec             	mov    -0x14(%rbp),%eax
    2ad9:	48 63 d0             	movslq %eax,%rdx
    2adc:	48 89 d0             	mov    %rdx,%rax
    2adf:	48 c1 e0 02          	shl    $0x2,%rax
    2ae3:	48 01 d0             	add    %rdx,%rax
    2ae6:	48 c1 e0 03          	shl    $0x3,%rax
    2aea:	48 8d 14 01          	lea    (%rcx,%rax,1),%rdx
    2aee:	8b 45 e8             	mov    -0x18(%rbp),%eax
    2af1:	89 42 20             	mov    %eax,0x20(%rdx)
    2af4:	8b 05 00 00 00 00    	mov    0x0(%rip),%eax        # 2afa <try_swap+0x4a5>
    2afa:	89 45 d0             	mov    %eax,-0x30(%rbp)
    2afd:	8b 05 00 00 00 00    	mov    0x0(%rip),%eax        # 2b03 <try_swap+0x4ae>
    2b03:	89 45 cc             	mov    %eax,-0x34(%rbp)
    2b06:	8b 05 00 00 00 00    	mov    0x0(%rip),%eax        # 2b0c <try_swap+0x4b7>
    2b0c:	89 45 a0             	mov    %eax,-0x60(%rbp)
    2b0f:	48 8b 0d 00 00 00 00 	mov    0x0(%rip),%rcx        # 2b16 <try_swap+0x4c1>
    2b16:	8b 45 ec             	mov    -0x14(%rbp),%eax
    2b19:	48 63 d0             	movslq %eax,%rdx
    2b1c:	48 89 d0             	mov    %rdx,%rax
    2b1f:	48 c1 e0 02          	shl    $0x2,%rax
    2b23:	48 01 d0             	add    %rdx,%rax
    2b26:	48 c1 e0 03          	shl    $0x3,%rax
    2b2a:	48 01 c8             	add    %rcx,%rax
    2b2d:	48 8b 40 08          	mov    0x8(%rax),%rax
    2b31:	8b 40 08             	mov    0x8(%rax),%eax
    2b34:	89 45 bc             	mov    %eax,-0x44(%rbp)
    2b37:	48 8b 35 00 00 00 00 	mov    0x0(%rip),%rsi        # 2b3e <try_swap+0x4e9>
    2b3e:	48 8b 05 00 00 00 00 	mov    0x0(%rip),%rax        # 2b45 <try_swap+0x4f0>
    2b45:	8b 7d bc             	mov    -0x44(%rbp),%edi
    2b48:	8b 4d e4             	mov    -0x1c(%rbp),%ecx
    2b4b:	8b 55 ec             	mov    -0x14(%rbp),%edx
    2b4e:	41 89 f8             	mov    %edi,%r8d
    2b51:	48 89 c7             	mov    %rax,%rdi
    2b54:	e8 5c 09 00 00       	callq  34b5 <find_affected_nets>
    2b59:	89 45 b8             	mov    %eax,-0x48(%rbp)
    2b5c:	83 bd 6c ff ff ff 01 	cmpl   $0x1,-0x94(%rbp)
    2b63:	75 1c                	jne    2b81 <try_swap+0x52c>
    2b65:	48 8b 8d 58 ff ff ff 	mov    -0xa8(%rbp),%rcx
    2b6c:	48 8b 85 60 ff ff ff 	mov    -0xa0(%rbp),%rax
    2b73:	8b 55 10             	mov    0x10(%rbp),%edx
    2b76:	48 89 ce             	mov    %rcx,%rsi
    2b79:	48 89 c7             	mov    %rax,%rdi
    2b7c:	e8 5c 07 00 00       	callq  32dd <save_region_occ>
    2b81:	c7 45 d4 00 00 00 00 	movl   $0x0,-0x2c(%rbp)
    2b88:	c7 45 dc 00 00 00 00 	movl   $0x0,-0x24(%rbp)
    2b8f:	e9 24 02 00 00       	jmpq   2db8 <try_swap+0x763>
    2b94:	48 8b 05 00 00 00 00 	mov    0x0(%rip),%rax        # 2b9b <try_swap+0x546>
    2b9b:	8b 55 dc             	mov    -0x24(%rbp),%edx
    2b9e:	48 63 d2             	movslq %edx,%rdx
    2ba1:	48 c1 e2 02          	shl    $0x2,%rdx
    2ba5:	48 01 d0             	add    %rdx,%rax
    2ba8:	8b 00                	mov    (%rax),%eax
    2baa:	89 45 b4             	mov    %eax,-0x4c(%rbp)
    2bad:	48 8b 05 00 00 00 00 	mov    0x0(%rip),%rax        # 2bb4 <try_swap+0x55f>
    2bb4:	8b 55 dc             	mov    -0x24(%rbp),%edx
    2bb7:	48 63 d2             	movslq %edx,%rdx
    2bba:	48 c1 e2 02          	shl    $0x2,%rdx
    2bbe:	48 01 d0             	add    %rdx,%rax
    2bc1:	8b 00                	mov    (%rax),%eax
    2bc3:	83 f8 02             	cmp    $0x2,%eax
    2bc6:	0f 84 e7 01 00 00    	je     2db3 <try_swap+0x75e>
    2bcc:	48 8b 0d 00 00 00 00 	mov    0x0(%rip),%rcx        # 2bd3 <try_swap+0x57e>
    2bd3:	8b 45 b4             	mov    -0x4c(%rbp),%eax
    2bd6:	48 63 d0             	movslq %eax,%rdx
    2bd9:	48 89 d0             	mov    %rdx,%rax
    2bdc:	48 c1 e0 02          	shl    $0x2,%rax
    2be0:	48 01 d0             	add    %rdx,%rax
    2be3:	48 c1 e0 03          	shl    $0x3,%rax
    2be7:	48 01 c8             	add    %rcx,%rax
    2bea:	8b 40 08             	mov    0x8(%rax),%eax
    2bed:	83 f8 03             	cmp    $0x3,%eax
    2bf0:	7f 26                	jg     2c18 <try_swap+0x5c3>
    2bf2:	48 8b 05 00 00 00 00 	mov    0x0(%rip),%rax        # 2bf9 <try_swap+0x5a4>
    2bf9:	8b 55 d4             	mov    -0x2c(%rbp),%edx
    2bfc:	48 63 d2             	movslq %edx,%rdx
    2bff:	48 c1 e2 04          	shl    $0x4,%rdx
    2c03:	48 01 c2             	add    %rax,%rdx
    2c06:	8b 45 b4             	mov    -0x4c(%rbp),%eax
    2c09:	48 89 d6             	mov    %rdx,%rsi
    2c0c:	89 c7                	mov    %eax,%edi
    2c0e:	e8 82 4e 00 00       	callq  7a95 <get_non_updateable_bb>
    2c13:	e9 b0 00 00 00       	jmpq   2cc8 <try_swap+0x673>
    2c18:	48 8b 05 00 00 00 00 	mov    0x0(%rip),%rax        # 2c1f <try_swap+0x5ca>
    2c1f:	8b 55 dc             	mov    -0x24(%rbp),%edx
    2c22:	48 63 d2             	movslq %edx,%rdx
    2c25:	48 c1 e2 02          	shl    $0x2,%rdx
    2c29:	48 01 d0             	add    %rdx,%rax
    2c2c:	8b 00                	mov    (%rax),%eax
    2c2e:	85 c0                	test   %eax,%eax
    2c30:	75 4c                	jne    2c7e <try_swap+0x629>
    2c32:	8b 4d a4             	mov    -0x5c(%rbp),%ecx
    2c35:	44 8b 4d a8          	mov    -0x58(%rbp),%r9d
    2c39:	48 8b 05 00 00 00 00 	mov    0x0(%rip),%rax        # 2c40 <try_swap+0x5eb>
    2c40:	8b 55 d4             	mov    -0x2c(%rbp),%edx
    2c43:	48 63 d2             	movslq %edx,%rdx
    2c46:	48 c1 e2 04          	shl    $0x4,%rdx
    2c4a:	48 8d 3c 10          	lea    (%rax,%rdx,1),%rdi
    2c4e:	48 8b 05 00 00 00 00 	mov    0x0(%rip),%rax        # 2c55 <try_swap+0x600>
    2c55:	8b 55 d4             	mov    -0x2c(%rbp),%edx
    2c58:	48 63 d2             	movslq %edx,%rdx
    2c5b:	48 c1 e2 04          	shl    $0x4,%rdx
    2c5f:	48 8d 34 10          	lea    (%rax,%rdx,1),%rsi
    2c63:	44 8b 45 c4          	mov    -0x3c(%rbp),%r8d
    2c67:	8b 55 c8             	mov    -0x38(%rbp),%edx
    2c6a:	8b 45 b4             	mov    -0x4c(%rbp),%eax
    2c6d:	89 0c 24             	mov    %ecx,(%rsp)
    2c70:	89 d1                	mov    %edx,%ecx
    2c72:	48 89 fa             	mov    %rdi,%rdx
    2c75:	89 c7                	mov    %eax,%edi
    2c77:	e8 65 50 00 00       	callq  7ce1 <update_bb>
    2c7c:	eb 4a                	jmp    2cc8 <try_swap+0x673>
    2c7e:	44 8b 45 a4          	mov    -0x5c(%rbp),%r8d
    2c82:	8b 55 a8             	mov    -0x58(%rbp),%edx
    2c85:	48 8b 05 00 00 00 00 	mov    0x0(%rip),%rax        # 2c8c <try_swap+0x637>
    2c8c:	8b 4d d4             	mov    -0x2c(%rbp),%ecx
    2c8f:	48 63 c9             	movslq %ecx,%rcx
    2c92:	48 c1 e1 04          	shl    $0x4,%rcx
    2c96:	48 8d 3c 08          	lea    (%rax,%rcx,1),%rdi
    2c9a:	48 8b 05 00 00 00 00 	mov    0x0(%rip),%rax        # 2ca1 <try_swap+0x64c>
    2ca1:	8b 4d d4             	mov    -0x2c(%rbp),%ecx
    2ca4:	48 63 c9             	movslq %ecx,%rcx
    2ca7:	48 c1 e1 04          	shl    $0x4,%rcx
    2cab:	48 8d 34 08          	lea    (%rax,%rcx,1),%rsi
    2caf:	44 8b 4d c8          	mov    -0x38(%rbp),%r9d
    2cb3:	8b 45 b4             	mov    -0x4c(%rbp),%eax
    2cb6:	8b 4d c4             	mov    -0x3c(%rbp),%ecx
    2cb9:	89 0c 24             	mov    %ecx,(%rsp)
    2cbc:	89 d1                	mov    %edx,%ecx
    2cbe:	48 89 fa             	mov    %rdi,%rdx
    2cc1:	89 c7                	mov    %eax,%edi
    2cc3:	e8 19 50 00 00       	callq  7ce1 <update_bb>
    2cc8:	83 bd 6c ff ff ff 01 	cmpl   $0x1,-0x94(%rbp)
    2ccf:	0f 84 8a 00 00 00    	je     2d5f <try_swap+0x70a>
    2cd5:	48 8b 05 00 00 00 00 	mov    0x0(%rip),%rax        # 2cdc <try_swap+0x687>
    2cdc:	8b 55 b4             	mov    -0x4c(%rbp),%edx
    2cdf:	48 63 d2             	movslq %edx,%rdx
    2ce2:	48 c1 e2 02          	shl    $0x2,%rdx
    2ce6:	48 8d 1c 10          	lea    (%rax,%rdx,1),%rbx
    2cea:	48 8b 05 00 00 00 00 	mov    0x0(%rip),%rax        # 2cf1 <try_swap+0x69c>
    2cf1:	8b 55 d4             	mov    -0x2c(%rbp),%edx
    2cf4:	48 63 d2             	movslq %edx,%rdx
    2cf7:	48 c1 e2 04          	shl    $0x4,%rdx
    2cfb:	48 01 c2             	add    %rax,%rdx
    2cfe:	8b 45 b4             	mov    -0x4c(%rbp),%eax
    2d01:	48 89 d6             	mov    %rdx,%rsi
    2d04:	89 c7                	mov    %eax,%edi
    2d06:	e8 07 4c 00 00       	callq  7912 <get_net_cost>
    2d0b:	f3 0f 11 85 4c ff ff 	movss  %xmm0,-0xb4(%rbp)
    2d12:	ff 
    2d13:	8b 85 4c ff ff ff    	mov    -0xb4(%rbp),%eax
    2d19:	89 03                	mov    %eax,(%rbx)
    2d1b:	48 8b 05 00 00 00 00 	mov    0x0(%rip),%rax        # 2d22 <try_swap+0x6cd>
    2d22:	8b 55 b4             	mov    -0x4c(%rbp),%edx
    2d25:	48 63 d2             	movslq %edx,%rdx
    2d28:	48 c1 e2 02          	shl    $0x2,%rdx
    2d2c:	48 01 d0             	add    %rdx,%rax
    2d2f:	f3 0f 10 00          	movss  (%rax),%xmm0
    2d33:	48 8b 05 00 00 00 00 	mov    0x0(%rip),%rax        # 2d3a <try_swap+0x6e5>
    2d3a:	8b 55 b4             	mov    -0x4c(%rbp),%edx
    2d3d:	48 63 d2             	movslq %edx,%rdx
    2d40:	48 c1 e2 02          	shl    $0x2,%rdx
    2d44:	48 01 d0             	add    %rdx,%rax
    2d47:	f3 0f 10 08          	movss  (%rax),%xmm1
    2d4b:	f3 0f 5c c1          	subss  %xmm1,%xmm0
    2d4f:	f3 0f 10 4d cc       	movss  -0x34(%rbp),%xmm1
    2d54:	f3 0f 58 c1          	addss  %xmm1,%xmm0
    2d58:	f3 0f 11 45 cc       	movss  %xmm0,-0x34(%rbp)
    2d5d:	eb 4e                	jmp    2dad <try_swap+0x758>
    2d5f:	48 8b 05 00 00 00 00 	mov    0x0(%rip),%rax        # 2d66 <try_swap+0x711>
    2d66:	8b 55 b4             	mov    -0x4c(%rbp),%edx
    2d69:	48 63 d2             	movslq %edx,%rdx
    2d6c:	48 c1 e2 04          	shl    $0x4,%rdx
    2d70:	48 8d 34 10          	lea    (%rax,%rdx,1),%rsi
    2d74:	8b 45 b4             	mov    -0x4c(%rbp),%eax
    2d77:	8b 4d 10             	mov    0x10(%rbp),%ecx
    2d7a:	ba ff ff ff ff       	mov    $0xffffffff,%edx
    2d7f:	89 c7                	mov    %eax,%edi
    2d81:	e8 a9 2c 00 00       	callq  5a2f <update_region_occ>
    2d86:	48 8b 05 00 00 00 00 	mov    0x0(%rip),%rax        # 2d8d <try_swap+0x738>
    2d8d:	8b 55 d4             	mov    -0x2c(%rbp),%edx
    2d90:	48 63 d2             	movslq %edx,%rdx
    2d93:	48 c1 e2 04          	shl    $0x4,%rdx
    2d97:	48 8d 34 10          	lea    (%rax,%rdx,1),%rsi
    2d9b:	8b 45 b4             	mov    -0x4c(%rbp),%eax
    2d9e:	8b 4d 10             	mov    0x10(%rbp),%ecx
    2da1:	ba 01 00 00 00       	mov    $0x1,%edx
    2da6:	89 c7                	mov    %eax,%edi
    2da8:	e8 82 2c 00 00       	callq  5a2f <update_region_occ>
    2dad:	83 45 d4 01          	addl   $0x1,-0x2c(%rbp)
    2db1:	eb 01                	jmp    2db4 <try_swap+0x75f>
    2db3:	90                   	nop
    2db4:	83 45 dc 01          	addl   $0x1,-0x24(%rbp)
    2db8:	8b 45 dc             	mov    -0x24(%rbp),%eax
    2dbb:	3b 45 b8             	cmp    -0x48(%rbp),%eax
    2dbe:	0f 8c d0 fd ff ff    	jl     2b94 <try_swap+0x53f>
    2dc4:	83 bd 6c ff ff ff 01 	cmpl   $0x1,-0x94(%rbp)
    2dcb:	75 32                	jne    2dff <try_swap+0x7aa>
    2dcd:	8b 7d 10             	mov    0x10(%rbp),%edi
    2dd0:	e8 9e 29 00 00       	callq  5773 <nonlinear_cong_cost>
    2dd5:	f3 0f 11 85 4c ff ff 	movss  %xmm0,-0xb4(%rbp)
    2ddc:	ff 
    2ddd:	8b 85 4c ff ff ff    	mov    -0xb4(%rbp),%eax
    2de3:	89 45 b0             	mov    %eax,-0x50(%rbp)
    2de6:	48 8b 85 78 ff ff ff 	mov    -0x88(%rbp),%rax
    2ded:	f3 0f 10 08          	movss  (%rax),%xmm1
    2df1:	f3 0f 10 45 b0       	movss  -0x50(%rbp),%xmm0
    2df6:	f3 0f 5c c1          	subss  %xmm1,%xmm0
    2dfa:	f3 0f 11 45 cc       	movss  %xmm0,-0x34(%rbp)
    2dff:	83 7d 20 01          	cmpl   $0x1,0x20(%rbp)
    2e03:	74 06                	je     2e0b <try_swap+0x7b6>
    2e05:	83 7d 20 02          	cmpl   $0x2,0x20(%rbp)
    2e09:	75 5b                	jne    2e66 <try_swap+0x811>
    2e0b:	48 8d 7d 9c          	lea    -0x64(%rbp),%rdi
    2e0f:	48 8d 4d a0          	lea    -0x60(%rbp),%rcx
    2e13:	8b 55 bc             	mov    -0x44(%rbp),%edx
    2e16:	8b 75 e4             	mov    -0x1c(%rbp),%esi
    2e19:	8b 45 ec             	mov    -0x14(%rbp),%eax
    2e1c:	49 89 f8             	mov    %rdi,%r8
    2e1f:	89 c7                	mov    %eax,%edi
    2e21:	e8 72 1c 00 00       	callq  4a98 <comp_delta_td_cost>
    2e26:	f3 0f 10 05 00 00 00 	movss  0x0(%rip),%xmm0        # 2e2e <try_swap+0x7d9>
    2e2d:	00 
    2e2e:	f3 0f 5c 85 68 ff ff 	subss  -0x98(%rbp),%xmm0
    2e35:	ff 
    2e36:	f3 0f 59 45 cc       	mulss  -0x34(%rbp),%xmm0
    2e3b:	0f 28 c8             	movaps %xmm0,%xmm1
    2e3e:	f3 0f 59 8d 54 ff ff 	mulss  -0xac(%rbp),%xmm1
    2e45:	ff 
    2e46:	f3 0f 10 45 a0       	movss  -0x60(%rbp),%xmm0
    2e4b:	f3 0f 59 85 68 ff ff 	mulss  -0x98(%rbp),%xmm0
    2e52:	ff 
    2e53:	f3 0f 59 85 50 ff ff 	mulss  -0xb0(%rbp),%xmm0
    2e5a:	ff 
    2e5b:	f3 0f 58 c1          	addss  %xmm1,%xmm0
    2e5f:	f3 0f 11 45 d0       	movss  %xmm0,-0x30(%rbp)
    2e64:	eb 06                	jmp    2e6c <try_swap+0x817>
    2e66:	8b 45 cc             	mov    -0x34(%rbp),%eax
    2e69:	89 45 d0             	mov    %eax,-0x30(%rbp)
    2e6c:	8b 55 8c             	mov    -0x74(%rbp),%edx
    2e6f:	8b 45 d0             	mov    -0x30(%rbp),%eax
    2e72:	89 95 4c ff ff ff    	mov    %edx,-0xb4(%rbp)
    2e78:	f3 0f 10 8d 4c ff ff 	movss  -0xb4(%rbp),%xmm1
    2e7f:	ff 
    2e80:	89 85 4c ff ff ff    	mov    %eax,-0xb4(%rbp)
    2e86:	f3 0f 10 85 4c ff ff 	movss  -0xb4(%rbp),%xmm0
    2e8d:	ff 
    2e8e:	e8 a6 10 00 00       	callq  3f39 <assess_swap>
    2e93:	89 45 ac             	mov    %eax,-0x54(%rbp)
    2e96:	83 7d ac 00          	cmpl   $0x0,-0x54(%rbp)
    2e9a:	0f 84 dd 02 00 00    	je     317d <try_swap+0xb28>
    2ea0:	48 8b 45 80          	mov    -0x80(%rbp),%rax
    2ea4:	f3 0f 10 00          	movss  (%rax),%xmm0
    2ea8:	f3 0f 58 45 d0       	addss  -0x30(%rbp),%xmm0
    2ead:	48 8b 45 80          	mov    -0x80(%rbp),%rax
    2eb1:	f3 0f 11 00          	movss  %xmm0,(%rax)
    2eb5:	48 8b 85 78 ff ff ff 	mov    -0x88(%rbp),%rax
    2ebc:	f3 0f 10 00          	movss  (%rax),%xmm0
    2ec0:	f3 0f 58 45 cc       	addss  -0x34(%rbp),%xmm0
    2ec5:	48 8b 85 78 ff ff ff 	mov    -0x88(%rbp),%rax
    2ecc:	f3 0f 11 00          	movss  %xmm0,(%rax)
    2ed0:	83 7d 20 01          	cmpl   $0x1,0x20(%rbp)
    2ed4:	74 06                	je     2edc <try_swap+0x887>
    2ed6:	83 7d 20 02          	cmpl   $0x2,0x20(%rbp)
    2eda:	75 4a                	jne    2f26 <try_swap+0x8d1>
    2edc:	48 8b 85 70 ff ff ff 	mov    -0x90(%rbp),%rax
    2ee3:	f3 0f 10 08          	movss  (%rax),%xmm1
    2ee7:	f3 0f 10 45 a0       	movss  -0x60(%rbp),%xmm0
    2eec:	f3 0f 58 c1          	addss  %xmm1,%xmm0
    2ef0:	48 8b 85 70 ff ff ff 	mov    -0x90(%rbp),%rax
    2ef7:	f3 0f 11 00          	movss  %xmm0,(%rax)
    2efb:	48 8b 45 28          	mov    0x28(%rbp),%rax
    2eff:	f3 0f 10 08          	movss  (%rax),%xmm1
    2f03:	f3 0f 10 45 9c       	movss  -0x64(%rbp),%xmm0
    2f08:	f3 0f 58 c1          	addss  %xmm1,%xmm0
    2f0c:	48 8b 45 28          	mov    0x28(%rbp),%rax
    2f10:	f3 0f 11 00          	movss  %xmm0,(%rax)
    2f14:	8b 55 bc             	mov    -0x44(%rbp),%edx
    2f17:	8b 4d e4             	mov    -0x1c(%rbp),%ecx
    2f1a:	8b 45 ec             	mov    -0x14(%rbp),%eax
    2f1d:	89 ce                	mov    %ecx,%esi
    2f1f:	89 c7                	mov    %eax,%edi
    2f21:	e8 e6 14 00 00       	callq  440c <update_td_cost>
    2f26:	c7 45 d4 00 00 00 00 	movl   $0x0,-0x2c(%rbp)
    2f2d:	c7 45 dc 00 00 00 00 	movl   $0x0,-0x24(%rbp)
    2f34:	e9 37 01 00 00       	jmpq   3070 <try_swap+0xa1b>
    2f39:	48 8b 05 00 00 00 00 	mov    0x0(%rip),%rax        # 2f40 <try_swap+0x8eb>
    2f40:	8b 55 dc             	mov    -0x24(%rbp),%edx
    2f43:	48 63 d2             	movslq %edx,%rdx
    2f46:	48 c1 e2 02          	shl    $0x2,%rdx
    2f4a:	48 01 d0             	add    %rdx,%rax
    2f4d:	8b 00                	mov    (%rax),%eax
    2f4f:	89 45 b4             	mov    %eax,-0x4c(%rbp)
    2f52:	48 8b 05 00 00 00 00 	mov    0x0(%rip),%rax        # 2f59 <try_swap+0x904>
    2f59:	8b 55 dc             	mov    -0x24(%rbp),%edx
    2f5c:	48 63 d2             	movslq %edx,%rdx
    2f5f:	48 c1 e2 02          	shl    $0x2,%rdx
    2f63:	48 01 d0             	add    %rdx,%rax
    2f66:	8b 00                	mov    (%rax),%eax
    2f68:	83 f8 02             	cmp    $0x2,%eax
    2f6b:	75 21                	jne    2f8e <try_swap+0x939>
    2f6d:	48 8b 05 00 00 00 00 	mov    0x0(%rip),%rax        # 2f74 <try_swap+0x91f>
    2f74:	8b 55 b4             	mov    -0x4c(%rbp),%edx
    2f77:	48 63 d2             	movslq %edx,%rdx
    2f7a:	48 c1 e2 02          	shl    $0x2,%rdx
    2f7e:	48 01 c2             	add    %rax,%rdx
    2f81:	8b 05 00 00 00 00    	mov    0x0(%rip),%eax        # 2f87 <try_swap+0x932>
    2f87:	89 02                	mov    %eax,(%rdx)
    2f89:	e9 de 00 00 00       	jmpq   306c <try_swap+0xa17>
    2f8e:	48 8b 05 00 00 00 00 	mov    0x0(%rip),%rax        # 2f95 <try_swap+0x940>
    2f95:	8b 55 b4             	mov    -0x4c(%rbp),%edx
    2f98:	48 63 d2             	movslq %edx,%rdx
    2f9b:	48 c1 e2 04          	shl    $0x4,%rdx
    2f9f:	48 01 d0             	add    %rdx,%rax
    2fa2:	48 8b 15 00 00 00 00 	mov    0x0(%rip),%rdx        # 2fa9 <try_swap+0x954>
    2fa9:	8b 4d d4             	mov    -0x2c(%rbp),%ecx
    2fac:	48 63 c9             	movslq %ecx,%rcx
    2faf:	48 c1 e1 04          	shl    $0x4,%rcx
    2fb3:	48 01 ca             	add    %rcx,%rdx
    2fb6:	48 8b 0a             	mov    (%rdx),%rcx
    2fb9:	48 89 08             	mov    %rcx,(%rax)
    2fbc:	48 8b 52 08          	mov    0x8(%rdx),%rdx
    2fc0:	48 89 50 08          	mov    %rdx,0x8(%rax)
    2fc4:	48 8b 0d 00 00 00 00 	mov    0x0(%rip),%rcx        # 2fcb <try_swap+0x976>
    2fcb:	8b 45 b4             	mov    -0x4c(%rbp),%eax
    2fce:	48 63 d0             	movslq %eax,%rdx
    2fd1:	48 89 d0             	mov    %rdx,%rax
    2fd4:	48 c1 e0 02          	shl    $0x2,%rax
    2fd8:	48 01 d0             	add    %rdx,%rax
    2fdb:	48 c1 e0 03          	shl    $0x3,%rax
    2fdf:	48 01 c8             	add    %rcx,%rax
    2fe2:	8b 40 08             	mov    0x8(%rax),%eax
    2fe5:	83 f8 03             	cmp    $0x3,%eax
    2fe8:	7e 36                	jle    3020 <try_swap+0x9cb>
    2fea:	48 8b 05 00 00 00 00 	mov    0x0(%rip),%rax        # 2ff1 <try_swap+0x99c>
    2ff1:	8b 55 b4             	mov    -0x4c(%rbp),%edx
    2ff4:	48 63 d2             	movslq %edx,%rdx
    2ff7:	48 c1 e2 04          	shl    $0x4,%rdx
    2ffb:	48 01 d0             	add    %rdx,%rax
    2ffe:	48 8b 15 00 00 00 00 	mov    0x0(%rip),%rdx        # 3005 <try_swap+0x9b0>
    3005:	8b 4d d4             	mov    -0x2c(%rbp),%ecx
    3008:	48 63 c9             	movslq %ecx,%rcx
    300b:	48 c1 e1 04          	shl    $0x4,%rcx
    300f:	48 01 ca             	add    %rcx,%rdx
    3012:	48 8b 0a             	mov    (%rdx),%rcx
    3015:	48 89 08             	mov    %rcx,(%rax)
    3018:	48 8b 52 08          	mov    0x8(%rdx),%rdx
    301c:	48 89 50 08          	mov    %rdx,0x8(%rax)
    3020:	83 45 d4 01          	addl   $0x1,-0x2c(%rbp)
    3024:	48 8b 05 00 00 00 00 	mov    0x0(%rip),%rax        # 302b <try_swap+0x9d6>
    302b:	8b 55 b4             	mov    -0x4c(%rbp),%edx
    302e:	48 63 d2             	movslq %edx,%rdx
    3031:	48 c1 e2 02          	shl    $0x2,%rdx
    3035:	48 01 c2             	add    %rax,%rdx
    3038:	48 8b 05 00 00 00 00 	mov    0x0(%rip),%rax        # 303f <try_swap+0x9ea>
    303f:	8b 4d b4             	mov    -0x4c(%rbp),%ecx
    3042:	48 63 c9             	movslq %ecx,%rcx
    3045:	48 c1 e1 02          	shl    $0x2,%rcx
    3049:	48 01 c8             	add    %rcx,%rax
    304c:	8b 00                	mov    (%rax),%eax
    304e:	89 02                	mov    %eax,(%rdx)
    3050:	48 8b 05 00 00 00 00 	mov    0x0(%rip),%rax        # 3057 <try_swap+0xa02>
    3057:	8b 55 b4             	mov    -0x4c(%rbp),%edx
    305a:	48 63 d2             	movslq %edx,%rdx
    305d:	48 c1 e2 02          	shl    $0x2,%rdx
    3061:	48 01 c2             	add    %rax,%rdx
    3064:	8b 05 00 00 00 00    	mov    0x0(%rip),%eax        # 306a <try_swap+0xa15>
    306a:	89 02                	mov    %eax,(%rdx)
    306c:	83 45 dc 01          	addl   $0x1,-0x24(%rbp)
    3070:	8b 45 dc             	mov    -0x24(%rbp),%eax
    3073:	3b 45 b8             	cmp    -0x48(%rbp),%eax
    3076:	0f 8c bd fe ff ff    	jl     2f39 <try_swap+0x8e4>
    307c:	48 8b 05 00 00 00 00 	mov    0x0(%rip),%rax        # 3083 <try_swap+0xa2e>
    3083:	8b 55 a8             	mov    -0x58(%rbp),%edx
    3086:	48 63 d2             	movslq %edx,%rdx
    3089:	48 c1 e2 03          	shl    $0x3,%rdx
    308d:	48 01 d0             	add    %rdx,%rax
    3090:	48 8b 08             	mov    (%rax),%rcx
    3093:	8b 45 a4             	mov    -0x5c(%rbp),%eax
    3096:	48 63 d0             	movslq %eax,%rdx
    3099:	48 89 d0             	mov    %rdx,%rax
    309c:	48 01 c0             	add    %rax,%rax
    309f:	48 01 d0             	add    %rdx,%rax
    30a2:	48 c1 e0 03          	shl    $0x3,%rax
    30a6:	48 01 c8             	add    %rcx,%rax
    30a9:	48 8b 40 10          	mov    0x10(%rax),%rax
    30ad:	8b 55 e8             	mov    -0x18(%rbp),%edx
    30b0:	48 63 d2             	movslq %edx,%rdx
    30b3:	48 c1 e2 02          	shl    $0x2,%rdx
    30b7:	48 01 c2             	add    %rax,%rdx
    30ba:	8b 45 ec             	mov    -0x14(%rbp),%eax
    30bd:	89 02                	mov    %eax,(%rdx)
    30bf:	48 8b 05 00 00 00 00 	mov    0x0(%rip),%rax        # 30c6 <try_swap+0xa71>
    30c6:	8b 55 c8             	mov    -0x38(%rbp),%edx
    30c9:	48 63 d2             	movslq %edx,%rdx
    30cc:	48 c1 e2 03          	shl    $0x3,%rdx
    30d0:	48 01 d0             	add    %rdx,%rax
    30d3:	48 8b 08             	mov    (%rax),%rcx
    30d6:	8b 45 c4             	mov    -0x3c(%rbp),%eax
    30d9:	48 63 d0             	movslq %eax,%rdx
    30dc:	48 89 d0             	mov    %rdx,%rax
    30df:	48 01 c0             	add    %rax,%rax
    30e2:	48 01 d0             	add    %rdx,%rax
    30e5:	48 c1 e0 03          	shl    $0x3,%rax
    30e9:	48 01 c8             	add    %rcx,%rax
    30ec:	48 8b 40 10          	mov    0x10(%rax),%rax
    30f0:	8b 55 c0             	mov    -0x40(%rbp),%edx
    30f3:	48 63 d2             	movslq %edx,%rdx
    30f6:	48 c1 e2 02          	shl    $0x2,%rdx
    30fa:	48 01 c2             	add    %rax,%rdx
    30fd:	8b 45 e4             	mov    -0x1c(%rbp),%eax
    3100:	89 02                	mov    %eax,(%rdx)
    3102:	83 7d e4 ff          	cmpl   $0xffffffff,-0x1c(%rbp)
    3106:	0f 85 c4 01 00 00    	jne    32d0 <try_swap+0xc7b>
    310c:	48 8b 05 00 00 00 00 	mov    0x0(%rip),%rax        # 3113 <try_swap+0xabe>
    3113:	8b 55 a8             	mov    -0x58(%rbp),%edx
    3116:	48 63 d2             	movslq %edx,%rdx
    3119:	48 c1 e2 03          	shl    $0x3,%rdx
    311d:	48 01 d0             	add    %rdx,%rax
    3120:	48 8b 08             	mov    (%rax),%rcx
    3123:	8b 45 a4             	mov    -0x5c(%rbp),%eax
    3126:	48 63 d0             	movslq %eax,%rdx
    3129:	48 89 d0             	mov    %rdx,%rax
    312c:	48 01 c0             	add    %rax,%rax
    312f:	48 01 d0             	add    %rdx,%rax
    3132:	48 c1 e0 03          	shl    $0x3,%rax
    3136:	48 01 c8             	add    %rcx,%rax
    3139:	8b 50 0c             	mov    0xc(%rax),%edx
    313c:	83 c2 01             	add    $0x1,%edx
    313f:	89 50 0c             	mov    %edx,0xc(%rax)
    3142:	48 8b 05 00 00 00 00 	mov    0x0(%rip),%rax        # 3149 <try_swap+0xaf4>
    3149:	8b 55 c8             	mov    -0x38(%rbp),%edx
    314c:	48 63 d2             	movslq %edx,%rdx
    314f:	48 c1 e2 03          	shl    $0x3,%rdx
    3153:	48 01 d0             	add    %rdx,%rax
    3156:	48 8b 08             	mov    (%rax),%rcx
    3159:	8b 45 c4             	mov    -0x3c(%rbp),%eax
    315c:	48 63 d0             	movslq %eax,%rdx
    315f:	48 89 d0             	mov    %rdx,%rax
    3162:	48 01 c0             	add    %rax,%rax
    3165:	48 01 d0             	add    %rdx,%rax
    3168:	48 c1 e0 03          	shl    $0x3,%rax
    316c:	48 01 c8             	add    %rcx,%rax
    316f:	8b 50 0c             	mov    0xc(%rax),%edx
    3172:	83 ea 01             	sub    $0x1,%edx
    3175:	89 50 0c             	mov    %edx,0xc(%rax)
    3178:	e9 53 01 00 00       	jmpq   32d0 <try_swap+0xc7b>
    317d:	c7 45 dc 00 00 00 00 	movl   $0x0,-0x24(%rbp)
    3184:	eb 39                	jmp    31bf <try_swap+0xb6a>
    3186:	48 8b 05 00 00 00 00 	mov    0x0(%rip),%rax        # 318d <try_swap+0xb38>
    318d:	8b 55 dc             	mov    -0x24(%rbp),%edx
    3190:	48 63 d2             	movslq %edx,%rdx
    3193:	48 c1 e2 02          	shl    $0x2,%rdx
    3197:	48 01 d0             	add    %rdx,%rax
    319a:	8b 00                	mov    (%rax),%eax
    319c:	89 45 b4             	mov    %eax,-0x4c(%rbp)
    319f:	48 8b 05 00 00 00 00 	mov    0x0(%rip),%rax        # 31a6 <try_swap+0xb51>
    31a6:	8b 55 b4             	mov    -0x4c(%rbp),%edx
    31a9:	48 63 d2             	movslq %edx,%rdx
    31ac:	48 c1 e2 02          	shl    $0x2,%rdx
    31b0:	48 01 c2             	add    %rax,%rdx
    31b3:	8b 05 00 00 00 00    	mov    0x0(%rip),%eax        # 31b9 <try_swap+0xb64>
    31b9:	89 02                	mov    %eax,(%rdx)
    31bb:	83 45 dc 01          	addl   $0x1,-0x24(%rbp)
    31bf:	8b 45 dc             	mov    -0x24(%rbp),%eax
    31c2:	3b 45 b8             	cmp    -0x48(%rbp),%eax
    31c5:	7c bf                	jl     3186 <try_swap+0xb31>
    31c7:	48 8b 0d 00 00 00 00 	mov    0x0(%rip),%rcx        # 31ce <try_swap+0xb79>
    31ce:	8b 45 ec             	mov    -0x14(%rbp),%eax
    31d1:	48 63 d0             	movslq %eax,%rdx
    31d4:	48 89 d0             	mov    %rdx,%rax
    31d7:	48 c1 e0 02          	shl    $0x2,%rax
    31db:	48 01 d0             	add    %rdx,%rax
    31de:	48 c1 e0 03          	shl    $0x3,%rax
    31e2:	48 8d 14 01          	lea    (%rcx,%rax,1),%rdx
    31e6:	8b 45 c8             	mov    -0x38(%rbp),%eax
    31e9:	89 42 18             	mov    %eax,0x18(%rdx)
    31ec:	48 8b 0d 00 00 00 00 	mov    0x0(%rip),%rcx        # 31f3 <try_swap+0xb9e>
    31f3:	8b 45 ec             	mov    -0x14(%rbp),%eax
    31f6:	48 63 d0             	movslq %eax,%rdx
    31f9:	48 89 d0             	mov    %rdx,%rax
    31fc:	48 c1 e0 02          	shl    $0x2,%rax
    3200:	48 01 d0             	add    %rdx,%rax
    3203:	48 c1 e0 03          	shl    $0x3,%rax
    3207:	48 8d 14 01          	lea    (%rcx,%rax,1),%rdx
    320b:	8b 45 c4             	mov    -0x3c(%rbp),%eax
    320e:	89 42 1c             	mov    %eax,0x1c(%rdx)
    3211:	48 8b 0d 00 00 00 00 	mov    0x0(%rip),%rcx        # 3218 <try_swap+0xbc3>
    3218:	8b 45 ec             	mov    -0x14(%rbp),%eax
    321b:	48 63 d0             	movslq %eax,%rdx
    321e:	48 89 d0             	mov    %rdx,%rax
    3221:	48 c1 e0 02          	shl    $0x2,%rax
    3225:	48 01 d0             	add    %rdx,%rax
    3228:	48 c1 e0 03          	shl    $0x3,%rax
    322c:	48 8d 14 01          	lea    (%rcx,%rax,1),%rdx
    3230:	8b 45 c0             	mov    -0x40(%rbp),%eax
    3233:	89 42 20             	mov    %eax,0x20(%rdx)
    3236:	83 7d e4 ff          	cmpl   $0xffffffff,-0x1c(%rbp)
    323a:	74 6f                	je     32ab <try_swap+0xc56>
    323c:	48 8b 0d 00 00 00 00 	mov    0x0(%rip),%rcx        # 3243 <try_swap+0xbee>
    3243:	8b 45 e4             	mov    -0x1c(%rbp),%eax
    3246:	48 63 d0             	movslq %eax,%rdx
    3249:	48 89 d0             	mov    %rdx,%rax
    324c:	48 c1 e0 02          	shl    $0x2,%rax
    3250:	48 01 d0             	add    %rdx,%rax
    3253:	48 c1 e0 03          	shl    $0x3,%rax
    3257:	48 8d 14 01          	lea    (%rcx,%rax,1),%rdx
    325b:	8b 45 a8             	mov    -0x58(%rbp),%eax
    325e:	89 42 18             	mov    %eax,0x18(%rdx)
    3261:	48 8b 0d 00 00 00 00 	mov    0x0(%rip),%rcx        # 3268 <try_swap+0xc13>
    3268:	8b 45 e4             	mov    -0x1c(%rbp),%eax
    326b:	48 63 d0             	movslq %eax,%rdx
    326e:	48 89 d0             	mov    %rdx,%rax
    3271:	48 c1 e0 02          	shl    $0x2,%rax
    3275:	48 01 d0             	add    %rdx,%rax
    3278:	48 c1 e0 03          	shl    $0x3,%rax
    327c:	48 8d 14 01          	lea    (%rcx,%rax,1),%rdx
    3280:	8b 45 a4             	mov    -0x5c(%rbp),%eax
    3283:	89 42 1c             	mov    %eax,0x1c(%rdx)
    3286:	48 8b 0d 00 00 00 00 	mov    0x0(%rip),%rcx        # 328d <try_swap+0xc38>
    328d:	8b 45 e4             	mov    -0x1c(%rbp),%eax
    3290:	48 63 d0             	movslq %eax,%rdx
    3293:	48 89 d0             	mov    %rdx,%rax
    3296:	48 c1 e0 02          	shl    $0x2,%rax
    329a:	48 01 d0             	add    %rdx,%rax
    329d:	48 c1 e0 03          	shl    $0x3,%rax
    32a1:	48 8d 14 01          	lea    (%rcx,%rax,1),%rdx
    32a5:	8b 45 e8             	mov    -0x18(%rbp),%eax
    32a8:	89 42 20             	mov    %eax,0x20(%rdx)
    32ab:	83 bd 6c ff ff ff 01 	cmpl   $0x1,-0x94(%rbp)
    32b2:	75 1c                	jne    32d0 <try_swap+0xc7b>
    32b4:	48 8b 8d 58 ff ff ff 	mov    -0xa8(%rbp),%rcx
    32bb:	48 8b 85 60 ff ff ff 	mov    -0xa0(%rbp),%rax
    32c2:	8b 55 10             	mov    0x10(%rbp),%edx
    32c5:	48 89 ce             	mov    %rcx,%rsi
    32c8:	48 89 c7             	mov    %rax,%rdi
    32cb:	e8 f9 00 00 00       	callq  33c9 <restore_region_occ>
    32d0:	8b 45 ac             	mov    -0x54(%rbp),%eax
    32d3:	48 81 c4 c8 00 00 00 	add    $0xc8,%rsp
    32da:	5b                   	pop    %rbx
    32db:	5d                   	pop    %rbp
    32dc:	c3                   	retq   

00000000000032dd <save_region_occ>:
    32dd:	55                   	push   %rbp
    32de:	48 89 e5             	mov    %rsp,%rbp
    32e1:	48 83 ec 28          	sub    $0x28,%rsp
    32e5:	e8 00 00 00 00       	callq  32ea <save_region_occ+0xd>
    32ea:	48 89 7d e8          	mov    %rdi,-0x18(%rbp)
    32ee:	48 89 75 e0          	mov    %rsi,-0x20(%rbp)
    32f2:	89 55 dc             	mov    %edx,-0x24(%rbp)
    32f5:	c7 45 fc 00 00 00 00 	movl   $0x0,-0x4(%rbp)
    32fc:	e9 ba 00 00 00       	jmpq   33bb <save_region_occ+0xde>
    3301:	c7 45 f8 00 00 00 00 	movl   $0x0,-0x8(%rbp)
    3308:	e9 9e 00 00 00       	jmpq   33ab <save_region_occ+0xce>
    330d:	8b 45 fc             	mov    -0x4(%rbp),%eax
    3310:	48 98                	cltq   
    3312:	48 8d 14 c5 00 00 00 	lea    0x0(,%rax,8),%rdx
    3319:	00 
    331a:	48 8b 45 e8          	mov    -0x18(%rbp),%rax
    331e:	48 01 d0             	add    %rdx,%rax
    3321:	48 8b 00             	mov    (%rax),%rax
    3324:	8b 55 f8             	mov    -0x8(%rbp),%edx
    3327:	48 63 d2             	movslq %edx,%rdx
    332a:	48 c1 e2 02          	shl    $0x2,%rdx
    332e:	48 01 c2             	add    %rax,%rdx
    3331:	48 8b 05 00 00 00 00 	mov    0x0(%rip),%rax        # 3338 <save_region_occ+0x5b>
    3338:	8b 4d fc             	mov    -0x4(%rbp),%ecx
    333b:	48 63 c9             	movslq %ecx,%rcx
    333e:	48 c1 e1 03          	shl    $0x3,%rcx
    3342:	48 01 c8             	add    %rcx,%rax
    3345:	48 8b 00             	mov    (%rax),%rax
    3348:	8b 4d f8             	mov    -0x8(%rbp),%ecx
    334b:	48 63 c9             	movslq %ecx,%rcx
    334e:	48 c1 e1 04          	shl    $0x4,%rcx
    3352:	48 01 c8             	add    %rcx,%rax
    3355:	8b 40 08             	mov    0x8(%rax),%eax
    3358:	89 02                	mov    %eax,(%rdx)
    335a:	8b 45 fc             	mov    -0x4(%rbp),%eax
    335d:	48 98                	cltq   
    335f:	48 8d 14 c5 00 00 00 	lea    0x0(,%rax,8),%rdx
    3366:	00 
    3367:	48 8b 45 e0          	mov    -0x20(%rbp),%rax
    336b:	48 01 d0             	add    %rdx,%rax
    336e:	48 8b 00             	mov    (%rax),%rax
    3371:	8b 55 f8             	mov    -0x8(%rbp),%edx
    3374:	48 63 d2             	movslq %edx,%rdx
    3377:	48 c1 e2 02          	shl    $0x2,%rdx
    337b:	48 01 c2             	add    %rax,%rdx
    337e:	48 8b 05 00 00 00 00 	mov    0x0(%rip),%rax        # 3385 <save_region_occ+0xa8>
    3385:	8b 4d fc             	mov    -0x4(%rbp),%ecx
    3388:	48 63 c9             	movslq %ecx,%rcx
    338b:	48 c1 e1 03          	shl    $0x3,%rcx
    338f:	48 01 c8             	add    %rcx,%rax
    3392:	48 8b 00             	mov    (%rax),%rax
    3395:	8b 4d f8             	mov    -0x8(%rbp),%ecx
    3398:	48 63 c9             	movslq %ecx,%rcx
    339b:	48 c1 e1 04          	shl    $0x4,%rcx
    339f:	48 01 c8             	add    %rcx,%rax
    33a2:	8b 40 08             	mov    0x8(%rax),%eax
    33a5:	89 02                	mov    %eax,(%rdx)
    33a7:	83 45 f8 01          	addl   $0x1,-0x8(%rbp)
    33ab:	8b 45 f8             	mov    -0x8(%rbp),%eax
    33ae:	3b 45 dc             	cmp    -0x24(%rbp),%eax
    33b1:	0f 8c 56 ff ff ff    	jl     330d <save_region_occ+0x30>
    33b7:	83 45 fc 01          	addl   $0x1,-0x4(%rbp)
    33bb:	8b 45 fc             	mov    -0x4(%rbp),%eax
    33be:	3b 45 dc             	cmp    -0x24(%rbp),%eax
    33c1:	0f 8c 3a ff ff ff    	jl     3301 <save_region_occ+0x24>
    33c7:	c9                   	leaveq 
    33c8:	c3                   	retq   

00000000000033c9 <restore_region_occ>:
    33c9:	55                   	push   %rbp
    33ca:	48 89 e5             	mov    %rsp,%rbp
    33cd:	48 83 ec 28          	sub    $0x28,%rsp
    33d1:	e8 00 00 00 00       	callq  33d6 <restore_region_occ+0xd>
    33d6:	48 89 7d e8          	mov    %rdi,-0x18(%rbp)
    33da:	48 89 75 e0          	mov    %rsi,-0x20(%rbp)
    33de:	89 55 dc             	mov    %edx,-0x24(%rbp)
    33e1:	c7 45 fc 00 00 00 00 	movl   $0x0,-0x4(%rbp)
    33e8:	e9 ba 00 00 00       	jmpq   34a7 <restore_region_occ+0xde>
    33ed:	c7 45 f8 00 00 00 00 	movl   $0x0,-0x8(%rbp)
    33f4:	e9 9e 00 00 00       	jmpq   3497 <restore_region_occ+0xce>
    33f9:	48 8b 05 00 00 00 00 	mov    0x0(%rip),%rax        # 3400 <restore_region_occ+0x37>
    3400:	8b 55 fc             	mov    -0x4(%rbp),%edx
    3403:	48 63 d2             	movslq %edx,%rdx
    3406:	48 c1 e2 03          	shl    $0x3,%rdx
    340a:	48 01 d0             	add    %rdx,%rax
    340d:	48 8b 00             	mov    (%rax),%rax
    3410:	8b 55 f8             	mov    -0x8(%rbp),%edx
    3413:	48 63 d2             	movslq %edx,%rdx
    3416:	48 c1 e2 04          	shl    $0x4,%rdx
    341a:	48 01 c2             	add    %rax,%rdx
    341d:	8b 45 fc             	mov    -0x4(%rbp),%eax
    3420:	48 98                	cltq   
    3422:	48 8d 0c c5 00 00 00 	lea    0x0(,%rax,8),%rcx
    3429:	00 
    342a:	48 8b 45 e8          	mov    -0x18(%rbp),%rax
    342e:	48 01 c8             	add    %rcx,%rax
    3431:	48 8b 00             	mov    (%rax),%rax
    3434:	8b 4d f8             	mov    -0x8(%rbp),%ecx
    3437:	48 63 c9             	movslq %ecx,%rcx
    343a:	48 c1 e1 02          	shl    $0x2,%rcx
    343e:	48 01 c8             	add    %rcx,%rax
    3441:	8b 00                	mov    (%rax),%eax
    3443:	89 42 08             	mov    %eax,0x8(%rdx)
    3446:	48 8b 05 00 00 00 00 	mov    0x0(%rip),%rax        # 344d <restore_region_occ+0x84>
    344d:	8b 55 fc             	mov    -0x4(%rbp),%edx
    3450:	48 63 d2             	movslq %edx,%rdx
    3453:	48 c1 e2 03          	shl    $0x3,%rdx
    3457:	48 01 d0             	add    %rdx,%rax
    345a:	48 8b 00             	mov    (%rax),%rax
    345d:	8b 55 f8             	mov    -0x8(%rbp),%edx
    3460:	48 63 d2             	movslq %edx,%rdx
    3463:	48 c1 e2 04          	shl    $0x4,%rdx
    3467:	48 01 c2             	add    %rax,%rdx
    346a:	8b 45 fc             	mov    -0x4(%rbp),%eax
    346d:	48 98                	cltq   
    346f:	48 8d 0c c5 00 00 00 	lea    0x0(,%rax,8),%rcx
    3476:	00 
    3477:	48 8b 45 e0          	mov    -0x20(%rbp),%rax
    347b:	48 01 c8             	add    %rcx,%rax
    347e:	48 8b 00             	mov    (%rax),%rax
    3481:	8b 4d f8             	mov    -0x8(%rbp),%ecx
    3484:	48 63 c9             	movslq %ecx,%rcx
    3487:	48 c1 e1 02          	shl    $0x2,%rcx
    348b:	48 01 c8             	add    %rcx,%rax
    348e:	8b 00                	mov    (%rax),%eax
    3490:	89 42 08             	mov    %eax,0x8(%rdx)
    3493:	83 45 f8 01          	addl   $0x1,-0x8(%rbp)
    3497:	8b 45 f8             	mov    -0x8(%rbp),%eax
    349a:	3b 45 dc             	cmp    -0x24(%rbp),%eax
    349d:	0f 8c 56 ff ff ff    	jl     33f9 <restore_region_occ+0x30>
    34a3:	83 45 fc 01          	addl   $0x1,-0x4(%rbp)
    34a7:	8b 45 fc             	mov    -0x4(%rbp),%eax
    34aa:	3b 45 dc             	cmp    -0x24(%rbp),%eax
    34ad:	0f 8c 3a ff ff ff    	jl     33ed <restore_region_occ+0x24>
    34b3:	c9                   	leaveq 
    34b4:	c3                   	retq   

00000000000034b5 <find_affected_nets>:
    34b5:	55                   	push   %rbp
    34b6:	48 89 e5             	mov    %rsp,%rbp
    34b9:	48 83 ec 30          	sub    $0x30,%rsp
    34bd:	e8 00 00 00 00       	callq  34c2 <find_affected_nets+0xd>
    34c2:	48 89 7d e8          	mov    %rdi,-0x18(%rbp)
    34c6:	48 89 75 e0          	mov    %rsi,-0x20(%rbp)
    34ca:	89 55 dc             	mov    %edx,-0x24(%rbp)
    34cd:	89 4d d8             	mov    %ecx,-0x28(%rbp)
    34d0:	44 89 45 d4          	mov    %r8d,-0x2c(%rbp)
    34d4:	c7 45 f8 00 00 00 00 	movl   $0x0,-0x8(%rbp)
    34db:	c7 45 fc 00 00 00 00 	movl   $0x0,-0x4(%rbp)
    34e2:	e9 e3 00 00 00       	jmpq   35ca <find_affected_nets+0x115>
    34e7:	48 8b 0d 00 00 00 00 	mov    0x0(%rip),%rcx        # 34ee <find_affected_nets+0x39>
    34ee:	8b 45 dc             	mov    -0x24(%rbp),%eax
    34f1:	48 63 d0             	movslq %eax,%rdx
    34f4:	48 89 d0             	mov    %rdx,%rax
    34f7:	48 c1 e0 02          	shl    $0x2,%rax
    34fb:	48 01 d0             	add    %rdx,%rax
    34fe:	48 c1 e0 03          	shl    $0x3,%rax
    3502:	48 01 c8             	add    %rcx,%rax
    3505:	48 8b 40 10          	mov    0x10(%rax),%rax
    3509:	8b 55 fc             	mov    -0x4(%rbp),%edx
    350c:	48 63 d2             	movslq %edx,%rdx
    350f:	48 c1 e2 02          	shl    $0x2,%rdx
    3513:	48 01 d0             	add    %rdx,%rax
    3516:	8b 00                	mov    (%rax),%eax
    3518:	89 45 f0             	mov    %eax,-0x10(%rbp)
    351b:	83 7d f0 ff          	cmpl   $0xffffffff,-0x10(%rbp)
    351f:	0f 84 9a 00 00 00    	je     35bf <find_affected_nets+0x10a>
    3525:	48 8b 0d 00 00 00 00 	mov    0x0(%rip),%rcx        # 352c <find_affected_nets+0x77>
    352c:	8b 45 f0             	mov    -0x10(%rbp),%eax
    352f:	48 63 d0             	movslq %eax,%rdx
    3532:	48 89 d0             	mov    %rdx,%rax
    3535:	48 c1 e0 02          	shl    $0x2,%rax
    3539:	48 01 d0             	add    %rdx,%rax
    353c:	48 c1 e0 03          	shl    $0x3,%rax
    3540:	48 01 c8             	add    %rcx,%rax
    3543:	8b 40 20             	mov    0x20(%rax),%eax
    3546:	85 c0                	test   %eax,%eax
    3548:	75 78                	jne    35c2 <find_affected_nets+0x10d>
    354a:	48 8b 05 00 00 00 00 	mov    0x0(%rip),%rax        # 3551 <find_affected_nets+0x9c>
    3551:	8b 55 f0             	mov    -0x10(%rbp),%edx
    3554:	48 63 d2             	movslq %edx,%rdx
    3557:	48 c1 e2 02          	shl    $0x2,%rdx
    355b:	48 01 d0             	add    %rdx,%rax
    355e:	f3 0f 10 00          	movss  (%rax),%xmm0
    3562:	0f 57 c9             	xorps  %xmm1,%xmm1
    3565:	0f 2e c1             	ucomiss %xmm1,%xmm0
    3568:	77 5b                	ja     35c5 <find_affected_nets+0x110>
    356a:	8b 45 f8             	mov    -0x8(%rbp),%eax
    356d:	48 98                	cltq   
    356f:	48 8d 14 85 00 00 00 	lea    0x0(,%rax,4),%rdx
    3576:	00 
    3577:	48 8b 45 e8          	mov    -0x18(%rbp),%rax
    357b:	48 01 c2             	add    %rax,%rdx
    357e:	8b 45 f0             	mov    -0x10(%rbp),%eax
    3581:	89 02                	mov    %eax,(%rdx)
    3583:	8b 45 f8             	mov    -0x8(%rbp),%eax
    3586:	48 98                	cltq   
    3588:	48 8d 14 85 00 00 00 	lea    0x0(,%rax,4),%rdx
    358f:	00 
    3590:	48 8b 45 e0          	mov    -0x20(%rbp),%rax
    3594:	48 01 d0             	add    %rdx,%rax
    3597:	c7 00 00 00 00 00    	movl   $0x0,(%rax)
    359d:	83 45 f8 01          	addl   $0x1,-0x8(%rbp)
    35a1:	48 8b 05 00 00 00 00 	mov    0x0(%rip),%rax        # 35a8 <find_affected_nets+0xf3>
    35a8:	8b 55 f0             	mov    -0x10(%rbp),%edx
    35ab:	48 63 d2             	movslq %edx,%rdx
    35ae:	48 c1 e2 02          	shl    $0x2,%rdx
    35b2:	48 01 c2             	add    %rax,%rdx
    35b5:	8b 05 00 00 00 00    	mov    0x0(%rip),%eax        # 35bb <find_affected_nets+0x106>
    35bb:	89 02                	mov    %eax,(%rdx)
    35bd:	eb 07                	jmp    35c6 <find_affected_nets+0x111>
    35bf:	90                   	nop
    35c0:	eb 04                	jmp    35c6 <find_affected_nets+0x111>
    35c2:	90                   	nop
    35c3:	eb 01                	jmp    35c6 <find_affected_nets+0x111>
    35c5:	90                   	nop
    35c6:	83 45 fc 01          	addl   $0x1,-0x4(%rbp)
    35ca:	8b 45 fc             	mov    -0x4(%rbp),%eax
    35cd:	3b 45 d4             	cmp    -0x2c(%rbp),%eax
    35d0:	0f 8c 11 ff ff ff    	jl     34e7 <find_affected_nets+0x32>
    35d6:	83 7d d8 ff          	cmpl   $0xffffffff,-0x28(%rbp)
    35da:	0f 84 92 01 00 00    	je     3772 <find_affected_nets+0x2bd>
    35e0:	c7 45 fc 00 00 00 00 	movl   $0x0,-0x4(%rbp)
    35e7:	e9 7a 01 00 00       	jmpq   3766 <find_affected_nets+0x2b1>
    35ec:	48 8b 0d 00 00 00 00 	mov    0x0(%rip),%rcx        # 35f3 <find_affected_nets+0x13e>
    35f3:	8b 45 d8             	mov    -0x28(%rbp),%eax
    35f6:	48 63 d0             	movslq %eax,%rdx
    35f9:	48 89 d0             	mov    %rdx,%rax
    35fc:	48 c1 e0 02          	shl    $0x2,%rax
    3600:	48 01 d0             	add    %rdx,%rax
    3603:	48 c1 e0 03          	shl    $0x3,%rax
    3607:	48 01 c8             	add    %rcx,%rax
    360a:	48 8b 40 10          	mov    0x10(%rax),%rax
    360e:	8b 55 fc             	mov    -0x4(%rbp),%edx
    3611:	48 63 d2             	movslq %edx,%rdx
    3614:	48 c1 e2 02          	shl    $0x2,%rdx
    3618:	48 01 d0             	add    %rdx,%rax
    361b:	8b 00                	mov    (%rax),%eax
    361d:	89 45 f0             	mov    %eax,-0x10(%rbp)
    3620:	83 7d f0 ff          	cmpl   $0xffffffff,-0x10(%rbp)
    3624:	0f 84 34 01 00 00    	je     375e <find_affected_nets+0x2a9>
    362a:	48 8b 0d 00 00 00 00 	mov    0x0(%rip),%rcx        # 3631 <find_affected_nets+0x17c>
    3631:	8b 45 f0             	mov    -0x10(%rbp),%eax
    3634:	48 63 d0             	movslq %eax,%rdx
    3637:	48 89 d0             	mov    %rdx,%rax
    363a:	48 c1 e0 02          	shl    $0x2,%rax
    363e:	48 01 d0             	add    %rdx,%rax
    3641:	48 c1 e0 03          	shl    $0x3,%rax
    3645:	48 01 c8             	add    %rcx,%rax
    3648:	8b 40 20             	mov    0x20(%rax),%eax
    364b:	85 c0                	test   %eax,%eax
    364d:	0f 85 0e 01 00 00    	jne    3761 <find_affected_nets+0x2ac>
    3653:	48 8b 05 00 00 00 00 	mov    0x0(%rip),%rax        # 365a <find_affected_nets+0x1a5>
    365a:	8b 55 f0             	mov    -0x10(%rbp),%edx
    365d:	48 63 d2             	movslq %edx,%rdx
    3660:	48 c1 e2 02          	shl    $0x2,%rdx
    3664:	48 01 d0             	add    %rdx,%rax
    3667:	f3 0f 10 00          	movss  (%rax),%xmm0
    366b:	0f 57 c9             	xorps  %xmm1,%xmm1
    366e:	0f 2e c1             	ucomiss %xmm1,%xmm0
    3671:	0f 86 92 00 00 00    	jbe    3709 <find_affected_nets+0x254>
    3677:	c7 45 f4 00 00 00 00 	movl   $0x0,-0xc(%rbp)
    367e:	eb 55                	jmp    36d5 <find_affected_nets+0x220>
    3680:	8b 45 f4             	mov    -0xc(%rbp),%eax
    3683:	48 98                	cltq   
    3685:	48 8d 14 85 00 00 00 	lea    0x0(,%rax,4),%rdx
    368c:	00 
    368d:	48 8b 45 e8          	mov    -0x18(%rbp),%rax
    3691:	48 01 d0             	add    %rdx,%rax
    3694:	8b 00                	mov    (%rax),%eax
    3696:	3b 45 f0             	cmp    -0x10(%rbp),%eax
    3699:	75 36                	jne    36d1 <find_affected_nets+0x21c>
    369b:	8b 45 f4             	mov    -0xc(%rbp),%eax
    369e:	48 98                	cltq   
    36a0:	48 8d 14 85 00 00 00 	lea    0x0(,%rax,4),%rdx
    36a7:	00 
    36a8:	48 8b 45 e0          	mov    -0x20(%rbp),%rax
    36ac:	48 01 d0             	add    %rdx,%rax
    36af:	8b 00                	mov    (%rax),%eax
    36b1:	85 c0                	test   %eax,%eax
    36b3:	75 2a                	jne    36df <find_affected_nets+0x22a>
    36b5:	8b 45 f4             	mov    -0xc(%rbp),%eax
    36b8:	48 98                	cltq   
    36ba:	48 8d 14 85 00 00 00 	lea    0x0(,%rax,4),%rdx
    36c1:	00 
    36c2:	48 8b 45 e0          	mov    -0x20(%rbp),%rax
    36c6:	48 01 d0             	add    %rdx,%rax
    36c9:	c7 00 02 00 00 00    	movl   $0x2,(%rax)
    36cf:	eb 0e                	jmp    36df <find_affected_nets+0x22a>
    36d1:	83 45 f4 01          	addl   $0x1,-0xc(%rbp)
    36d5:	8b 45 f4             	mov    -0xc(%rbp),%eax
    36d8:	3b 45 f8             	cmp    -0x8(%rbp),%eax
    36db:	7c a3                	jl     3680 <find_affected_nets+0x1cb>
    36dd:	eb 01                	jmp    36e0 <find_affected_nets+0x22b>
    36df:	90                   	nop
    36e0:	8b 45 f4             	mov    -0xc(%rbp),%eax
    36e3:	3b 45 f8             	cmp    -0x8(%rbp),%eax
    36e6:	7e 7a                	jle    3762 <find_affected_nets+0x2ad>
    36e8:	8b 55 f8             	mov    -0x8(%rbp),%edx
    36eb:	8b 45 f4             	mov    -0xc(%rbp),%eax
    36ee:	89 c6                	mov    %eax,%esi
    36f0:	bf 00 00 00 00       	mov    $0x0,%edi
    36f5:	b8 00 00 00 00       	mov    $0x0,%eax
    36fa:	e8 00 00 00 00       	callq  36ff <find_affected_nets+0x24a>
    36ff:	bf 01 00 00 00       	mov    $0x1,%edi
    3704:	e8 00 00 00 00       	callq  3709 <find_affected_nets+0x254>
    3709:	8b 45 f8             	mov    -0x8(%rbp),%eax
    370c:	48 98                	cltq   
    370e:	48 8d 14 85 00 00 00 	lea    0x0(,%rax,4),%rdx
    3715:	00 
    3716:	48 8b 45 e8          	mov    -0x18(%rbp),%rax
    371a:	48 01 c2             	add    %rax,%rdx
    371d:	8b 45 f0             	mov    -0x10(%rbp),%eax
    3720:	89 02                	mov    %eax,(%rdx)
    3722:	8b 45 f8             	mov    -0x8(%rbp),%eax
    3725:	48 98                	cltq   
    3727:	48 8d 14 85 00 00 00 	lea    0x0(,%rax,4),%rdx
    372e:	00 
    372f:	48 8b 45 e0          	mov    -0x20(%rbp),%rax
    3733:	48 01 d0             	add    %rdx,%rax
    3736:	c7 00 01 00 00 00    	movl   $0x1,(%rax)
    373c:	83 45 f8 01          	addl   $0x1,-0x8(%rbp)
    3740:	48 8b 05 00 00 00 00 	mov    0x0(%rip),%rax        # 3747 <find_affected_nets+0x292>
    3747:	8b 55 f0             	mov    -0x10(%rbp),%edx
    374a:	48 63 d2             	movslq %edx,%rdx
    374d:	48 c1 e2 02          	shl    $0x2,%rdx
    3751:	48 01 c2             	add    %rax,%rdx
    3754:	8b 05 00 00 00 00    	mov    0x0(%rip),%eax        # 375a <find_affected_nets+0x2a5>
    375a:	89 02                	mov    %eax,(%rdx)
    375c:	eb 04                	jmp    3762 <find_affected_nets+0x2ad>
    375e:	90                   	nop
    375f:	eb 01                	jmp    3762 <find_affected_nets+0x2ad>
    3761:	90                   	nop
    3762:	83 45 fc 01          	addl   $0x1,-0x4(%rbp)
    3766:	8b 45 fc             	mov    -0x4(%rbp),%eax
    3769:	3b 45 d4             	cmp    -0x2c(%rbp),%eax
    376c:	0f 8c 7a fe ff ff    	jl     35ec <find_affected_nets+0x137>
    3772:	8b 45 f8             	mov    -0x8(%rbp),%eax
    3775:	c9                   	leaveq 
    3776:	c3                   	retq   

0000000000003777 <find_to>:
    3777:	55                   	push   %rbp
    3778:	48 89 e5             	mov    %rsp,%rbp
    377b:	53                   	push   %rbx
    377c:	48 83 ec 78          	sub    $0x78,%rsp
    3780:	e8 00 00 00 00       	callq  3785 <find_to+0xe>
    3785:	89 7d ac             	mov    %edi,-0x54(%rbp)
    3788:	89 75 a8             	mov    %esi,-0x58(%rbp)
    378b:	48 89 55 a0          	mov    %rdx,-0x60(%rbp)
    378f:	f3 0f 11 45 9c       	movss  %xmm0,-0x64(%rbp)
    3794:	48 89 4d 90          	mov    %rcx,-0x70(%rbp)
    3798:	4c 89 45 88          	mov    %r8,-0x78(%rbp)
    379c:	4c 89 4d 80          	mov    %r9,-0x80(%rbp)
    37a0:	8b 05 00 00 00 00    	mov    0x0(%rip),%eax        # 37a6 <find_to+0x2f>
    37a6:	f3 0f 2a c0          	cvtsi2ss %eax,%xmm0
    37aa:	0f 2e 45 9c          	ucomiss -0x64(%rbp),%xmm0
    37ae:	76 0b                	jbe    37bb <find_to+0x44>
    37b0:	f3 0f 10 45 9c       	movss  -0x64(%rbp),%xmm0
    37b5:	f3 0f 2c c0          	cvttss2si %xmm0,%eax
    37b9:	eb 0e                	jmp    37c9 <find_to+0x52>
    37bb:	8b 05 00 00 00 00    	mov    0x0(%rip),%eax        # 37c1 <find_to+0x4a>
    37c1:	f3 0f 2a c0          	cvtsi2ss %eax,%xmm0
    37c5:	f3 0f 2c c0          	cvttss2si %xmm0,%eax
    37c9:	89 45 e0             	mov    %eax,-0x20(%rbp)
    37cc:	8b 05 00 00 00 00    	mov    0x0(%rip),%eax        # 37d2 <find_to+0x5b>
    37d2:	f3 0f 2a c0          	cvtsi2ss %eax,%xmm0
    37d6:	0f 2e 45 9c          	ucomiss -0x64(%rbp),%xmm0
    37da:	76 0b                	jbe    37e7 <find_to+0x70>
    37dc:	f3 0f 10 45 9c       	movss  -0x64(%rbp),%xmm0
    37e1:	f3 0f 2c c0          	cvttss2si %xmm0,%eax
    37e5:	eb 0e                	jmp    37f5 <find_to+0x7e>
    37e7:	8b 05 00 00 00 00    	mov    0x0(%rip),%eax        # 37ed <find_to+0x76>
    37ed:	f3 0f 2a c0          	cvtsi2ss %eax,%xmm0
    37f1:	f3 0f 2c c0          	cvttss2si %xmm0,%eax
    37f5:	89 45 dc             	mov    %eax,-0x24(%rbp)
    37f8:	8b 45 e0             	mov    -0x20(%rbp),%eax
    37fb:	8b 55 ac             	mov    -0x54(%rbp),%edx
    37fe:	89 d1                	mov    %edx,%ecx
    3800:	29 c1                	sub    %eax,%ecx
    3802:	89 c8                	mov    %ecx,%eax
    3804:	ba 01 00 00 00       	mov    $0x1,%edx
    3809:	85 c0                	test   %eax,%eax
    380b:	0f 4e c2             	cmovle %edx,%eax
    380e:	89 45 d8             	mov    %eax,-0x28(%rbp)
    3811:	8b 45 e0             	mov    -0x20(%rbp),%eax
    3814:	8b 55 ac             	mov    -0x54(%rbp),%edx
    3817:	01 c2                	add    %eax,%edx
    3819:	8b 05 00 00 00 00    	mov    0x0(%rip),%eax        # 381f <find_to+0xa8>
    381f:	39 c2                	cmp    %eax,%edx
    3821:	0f 4e c2             	cmovle %edx,%eax
    3824:	89 45 d4             	mov    %eax,-0x2c(%rbp)
    3827:	8b 45 dc             	mov    -0x24(%rbp),%eax
    382a:	8b 55 a8             	mov    -0x58(%rbp),%edx
    382d:	89 d1                	mov    %edx,%ecx
    382f:	29 c1                	sub    %eax,%ecx
    3831:	89 c8                	mov    %ecx,%eax
    3833:	ba 01 00 00 00       	mov    $0x1,%edx
    3838:	85 c0                	test   %eax,%eax
    383a:	0f 4e c2             	cmovle %edx,%eax
    383d:	89 45 d0             	mov    %eax,-0x30(%rbp)
    3840:	8b 45 dc             	mov    -0x24(%rbp),%eax
    3843:	8b 55 a8             	mov    -0x58(%rbp),%edx
    3846:	01 c2                	add    %eax,%edx
    3848:	8b 05 00 00 00 00    	mov    0x0(%rip),%eax        # 384e <find_to+0xd7>
    384e:	39 c2                	cmp    %eax,%edx
    3850:	0f 4e c2             	cmovle %edx,%eax
    3853:	89 45 cc             	mov    %eax,-0x34(%rbp)
    3856:	c7 45 ec 00 00 00 00 	movl   $0x0,-0x14(%rbp)
    385d:	c7 45 e4 00 00 00 00 	movl   $0x0,-0x1c(%rbp)
    3864:	48 8b 05 00 00 00 00 	mov    0x0(%rip),%rax        # 386b <find_to+0xf4>
    386b:	48 39 45 a0          	cmp    %rax,-0x60(%rbp)
    386f:	0f 84 c7 00 00 00    	je     393c <find_to+0x1c5>
    3875:	8b 45 d8             	mov    -0x28(%rbp),%eax
    3878:	89 45 e8             	mov    %eax,-0x18(%rbp)
    387b:	eb 49                	jmp    38c6 <find_to+0x14f>
    387d:	48 8b 05 00 00 00 00 	mov    0x0(%rip),%rax        # 3884 <find_to+0x10d>
    3884:	8b 55 e8             	mov    -0x18(%rbp),%edx
    3887:	48 63 d2             	movslq %edx,%rdx
    388a:	48 c1 e2 03          	shl    $0x3,%rdx
    388e:	48 01 d0             	add    %rdx,%rax
    3891:	48 8b 00             	mov    (%rax),%rax
    3894:	48 83 c0 18          	add    $0x18,%rax
    3898:	48 8b 00             	mov    (%rax),%rax
    389b:	48 3b 45 a0          	cmp    -0x60(%rbp),%rax
    389f:	75 21                	jne    38c2 <find_to+0x14b>
    38a1:	83 45 ec 01          	addl   $0x1,-0x14(%rbp)
    38a5:	8b 45 e4             	mov    -0x1c(%rbp),%eax
    38a8:	48 98                	cltq   
    38aa:	48 8d 14 85 00 00 00 	lea    0x0(,%rax,4),%rdx
    38b1:	00 
    38b2:	48 8b 45 90          	mov    -0x70(%rbp),%rax
    38b6:	48 01 c2             	add    %rax,%rdx
    38b9:	8b 45 e8             	mov    -0x18(%rbp),%eax
    38bc:	89 02                	mov    %eax,(%rdx)
    38be:	83 45 e4 01          	addl   $0x1,-0x1c(%rbp)
    38c2:	83 45 e8 01          	addl   $0x1,-0x18(%rbp)
    38c6:	8b 45 e8             	mov    -0x18(%rbp),%eax
    38c9:	3b 45 d4             	cmp    -0x2c(%rbp),%eax
    38cc:	7e af                	jle    387d <find_to+0x106>
    38ce:	83 7d ec 00          	cmpl   $0x0,-0x14(%rbp)
    38d2:	75 19                	jne    38ed <find_to+0x176>
    38d4:	b9 00 00 00 00       	mov    $0x0,%ecx
    38d9:	ba b2 06 00 00       	mov    $0x6b2,%edx
    38de:	be 00 00 00 00       	mov    $0x0,%esi
    38e3:	bf 00 00 00 00       	mov    $0x0,%edi
    38e8:	e8 00 00 00 00       	callq  38ed <find_to+0x176>
    38ed:	83 7d ec 01          	cmpl   $0x1,-0x14(%rbp)
    38f1:	75 49                	jne    393c <find_to+0x1c5>
    38f3:	8b 45 d0             	mov    -0x30(%rbp),%eax
    38f6:	8b 55 cc             	mov    -0x34(%rbp),%edx
    38f9:	89 d1                	mov    %edx,%ecx
    38fb:	29 c1                	sub    %eax,%ecx
    38fd:	48 8b 45 a0          	mov    -0x60(%rbp),%rax
    3901:	8b 40 10             	mov    0x10(%rax),%eax
    3904:	89 45 98             	mov    %eax,-0x68(%rbp)
    3907:	89 c8                	mov    %ecx,%eax
    3909:	89 c2                	mov    %eax,%edx
    390b:	c1 fa 1f             	sar    $0x1f,%edx
    390e:	f7 7d 98             	idivl  -0x68(%rbp)
    3911:	83 e8 01             	sub    $0x1,%eax
    3914:	85 c0                	test   %eax,%eax
    3916:	7e 1a                	jle    3932 <find_to+0x1bb>
    3918:	48 8b 45 a0          	mov    -0x60(%rbp),%rax
    391c:	8b 50 10             	mov    0x10(%rax),%edx
    391f:	8b 05 00 00 00 00    	mov    0x0(%rip),%eax        # 3925 <find_to+0x1ae>
    3925:	89 c1                	mov    %eax,%ecx
    3927:	c1 e9 1f             	shr    $0x1f,%ecx
    392a:	01 c8                	add    %ecx,%eax
    392c:	d1 f8                	sar    %eax
    392e:	39 c2                	cmp    %eax,%edx
    3930:	7e 0a                	jle    393c <find_to+0x1c5>
    3932:	b8 00 00 00 00       	mov    $0x0,%eax
    3937:	e9 f6 05 00 00       	jmpq   3f32 <find_to+0x7bb>
    393c:	83 7d e0 00          	cmpl   $0x0,-0x20(%rbp)
    3940:	7e 0b                	jle    394d <find_to+0x1d6>
    3942:	8b 05 00 00 00 00    	mov    0x0(%rip),%eax        # 3948 <find_to+0x1d1>
    3948:	39 45 e0             	cmp    %eax,-0x20(%rbp)
    394b:	7e 1e                	jle    396b <find_to+0x1f4>
    394d:	8b 45 e0             	mov    -0x20(%rbp),%eax
    3950:	89 c6                	mov    %eax,%esi
    3952:	bf 00 00 00 00       	mov    $0x0,%edi
    3957:	b8 00 00 00 00       	mov    $0x0,%eax
    395c:	e8 00 00 00 00       	callq  3961 <find_to+0x1ea>
    3961:	bf 01 00 00 00       	mov    $0x1,%edi
    3966:	e8 00 00 00 00       	callq  396b <find_to+0x1f4>
    396b:	48 8b 05 00 00 00 00 	mov    0x0(%rip),%rax        # 3972 <find_to+0x1fb>
    3972:	48 39 45 a0          	cmp    %rax,-0x60(%rbp)
    3976:	0f 85 be 03 00 00    	jne    3d3a <find_to+0x5c3>
    397c:	8b 05 00 00 00 00    	mov    0x0(%rip),%eax        # 3982 <find_to+0x20b>
    3982:	39 45 e0             	cmp    %eax,-0x20(%rbp)
    3985:	0f 8c 0d 01 00 00    	jl     3a98 <find_to+0x321>
    398b:	bf 03 00 00 00       	mov    $0x3,%edi
    3990:	e8 00 00 00 00       	callq  3995 <find_to+0x21e>
    3995:	89 45 c8             	mov    %eax,-0x38(%rbp)
    3998:	8b 45 c8             	mov    -0x38(%rbp),%eax
    399b:	83 f8 01             	cmp    $0x1,%eax
    399e:	74 4f                	je     39ef <find_to+0x278>
    39a0:	83 f8 01             	cmp    $0x1,%eax
    39a3:	7f 09                	jg     39ae <find_to+0x237>
    39a5:	85 c0                	test   %eax,%eax
    39a7:	74 18                	je     39c1 <find_to+0x24a>
    39a9:	e9 d6 00 00 00       	jmpq   3a84 <find_to+0x30d>
    39ae:	83 f8 02             	cmp    $0x2,%eax
    39b1:	74 6f                	je     3a22 <find_to+0x2ab>
    39b3:	83 f8 03             	cmp    $0x3,%eax
    39b6:	0f 84 99 00 00 00    	je     3a55 <find_to+0x2de>
    39bc:	e9 c3 00 00 00       	jmpq   3a84 <find_to+0x30d>
    39c1:	8b 05 00 00 00 00    	mov    0x0(%rip),%eax        # 39c7 <find_to+0x250>
    39c7:	83 e8 01             	sub    $0x1,%eax
    39ca:	89 c7                	mov    %eax,%edi
    39cc:	e8 00 00 00 00       	callq  39d1 <find_to+0x25a>
    39d1:	83 c0 01             	add    $0x1,%eax
    39d4:	89 45 c4             	mov    %eax,-0x3c(%rbp)
    39d7:	48 8b 45 88          	mov    -0x78(%rbp),%rax
    39db:	c7 00 00 00 00 00    	movl   $0x0,(%rax)
    39e1:	48 8b 45 80          	mov    -0x80(%rbp),%rax
    39e5:	8b 55 c4             	mov    -0x3c(%rbp),%edx
    39e8:	89 10                	mov    %edx,(%rax)
    39ea:	e9 6f 04 00 00       	jmpq   3e5e <find_to+0x6e7>
    39ef:	8b 05 00 00 00 00    	mov    0x0(%rip),%eax        # 39f5 <find_to+0x27e>
    39f5:	83 e8 01             	sub    $0x1,%eax
    39f8:	89 c7                	mov    %eax,%edi
    39fa:	e8 00 00 00 00       	callq  39ff <find_to+0x288>
    39ff:	83 c0 01             	add    $0x1,%eax
    3a02:	89 45 c4             	mov    %eax,-0x3c(%rbp)
    3a05:	48 8b 45 88          	mov    -0x78(%rbp),%rax
    3a09:	8b 55 c4             	mov    -0x3c(%rbp),%edx
    3a0c:	89 10                	mov    %edx,(%rax)
    3a0e:	8b 05 00 00 00 00    	mov    0x0(%rip),%eax        # 3a14 <find_to+0x29d>
    3a14:	8d 50 01             	lea    0x1(%rax),%edx
    3a17:	48 8b 45 80          	mov    -0x80(%rbp),%rax
    3a1b:	89 10                	mov    %edx,(%rax)
    3a1d:	e9 3c 04 00 00       	jmpq   3e5e <find_to+0x6e7>
    3a22:	8b 05 00 00 00 00    	mov    0x0(%rip),%eax        # 3a28 <find_to+0x2b1>
    3a28:	83 e8 01             	sub    $0x1,%eax
    3a2b:	89 c7                	mov    %eax,%edi
    3a2d:	e8 00 00 00 00       	callq  3a32 <find_to+0x2bb>
    3a32:	83 c0 01             	add    $0x1,%eax
    3a35:	89 45 c4             	mov    %eax,-0x3c(%rbp)
    3a38:	8b 05 00 00 00 00    	mov    0x0(%rip),%eax        # 3a3e <find_to+0x2c7>
    3a3e:	8d 50 01             	lea    0x1(%rax),%edx
    3a41:	48 8b 45 88          	mov    -0x78(%rbp),%rax
    3a45:	89 10                	mov    %edx,(%rax)
    3a47:	48 8b 45 80          	mov    -0x80(%rbp),%rax
    3a4b:	8b 55 c4             	mov    -0x3c(%rbp),%edx
    3a4e:	89 10                	mov    %edx,(%rax)
    3a50:	e9 09 04 00 00       	jmpq   3e5e <find_to+0x6e7>
    3a55:	8b 05 00 00 00 00    	mov    0x0(%rip),%eax        # 3a5b <find_to+0x2e4>
    3a5b:	83 e8 01             	sub    $0x1,%eax
    3a5e:	89 c7                	mov    %eax,%edi
    3a60:	e8 00 00 00 00       	callq  3a65 <find_to+0x2ee>
    3a65:	83 c0 01             	add    $0x1,%eax
    3a68:	89 45 c4             	mov    %eax,-0x3c(%rbp)
    3a6b:	48 8b 45 88          	mov    -0x78(%rbp),%rax
    3a6f:	8b 55 c4             	mov    -0x3c(%rbp),%edx
    3a72:	89 10                	mov    %edx,(%rax)
    3a74:	48 8b 45 80          	mov    -0x80(%rbp),%rax
    3a78:	c7 00 00 00 00 00    	movl   $0x0,(%rax)
    3a7e:	90                   	nop
    3a7f:	e9 da 03 00 00       	jmpq   3e5e <find_to+0x6e7>
    3a84:	bf 00 00 00 00       	mov    $0x0,%edi
    3a89:	e8 00 00 00 00       	callq  3a8e <find_to+0x317>
    3a8e:	bf 01 00 00 00       	mov    $0x1,%edi
    3a93:	e8 00 00 00 00       	callq  3a98 <find_to+0x321>
    3a98:	83 7d ac 00          	cmpl   $0x0,-0x54(%rbp)
    3a9c:	0f 85 98 00 00 00    	jne    3b3a <find_to+0x3c3>
    3aa2:	8b 45 dc             	mov    -0x24(%rbp),%eax
    3aa5:	01 c0                	add    %eax,%eax
    3aa7:	89 c7                	mov    %eax,%edi
    3aa9:	e8 00 00 00 00       	callq  3aae <find_to+0x337>
    3aae:	89 45 c4             	mov    %eax,-0x3c(%rbp)
    3ab1:	8b 45 dc             	mov    -0x24(%rbp),%eax
    3ab4:	8b 55 a8             	mov    -0x58(%rbp),%edx
    3ab7:	29 c2                	sub    %eax,%edx
    3ab9:	8b 45 c4             	mov    -0x3c(%rbp),%eax
    3abc:	01 c2                	add    %eax,%edx
    3abe:	48 8b 45 80          	mov    -0x80(%rbp),%rax
    3ac2:	89 10                	mov    %edx,(%rax)
    3ac4:	48 8b 45 88          	mov    -0x78(%rbp),%rax
    3ac8:	8b 55 ac             	mov    -0x54(%rbp),%edx
    3acb:	89 10                	mov    %edx,(%rax)
    3acd:	48 8b 45 80          	mov    -0x80(%rbp),%rax
    3ad1:	8b 10                	mov    (%rax),%edx
    3ad3:	8b 05 00 00 00 00    	mov    0x0(%rip),%eax        # 3ad9 <find_to+0x362>
    3ad9:	39 c2                	cmp    %eax,%edx
    3adb:	7e 2a                	jle    3b07 <find_to+0x390>
    3add:	8b 05 00 00 00 00    	mov    0x0(%rip),%eax        # 3ae3 <find_to+0x36c>
    3ae3:	8d 50 01             	lea    0x1(%rax),%edx
    3ae6:	48 8b 45 80          	mov    -0x80(%rbp),%rax
    3aea:	89 10                	mov    %edx,(%rax)
    3aec:	8b 45 e0             	mov    -0x20(%rbp),%eax
    3aef:	83 e8 01             	sub    $0x1,%eax
    3af2:	89 c7                	mov    %eax,%edi
    3af4:	e8 00 00 00 00       	callq  3af9 <find_to+0x382>
    3af9:	8d 50 01             	lea    0x1(%rax),%edx
    3afc:	48 8b 45 88          	mov    -0x78(%rbp),%rax
    3b00:	89 10                	mov    %edx,(%rax)
    3b02:	e9 57 03 00 00       	jmpq   3e5e <find_to+0x6e7>
    3b07:	48 8b 45 80          	mov    -0x80(%rbp),%rax
    3b0b:	8b 00                	mov    (%rax),%eax
    3b0d:	85 c0                	test   %eax,%eax
    3b0f:	0f 8f 49 03 00 00    	jg     3e5e <find_to+0x6e7>
    3b15:	48 8b 45 80          	mov    -0x80(%rbp),%rax
    3b19:	c7 00 00 00 00 00    	movl   $0x0,(%rax)
    3b1f:	8b 45 e0             	mov    -0x20(%rbp),%eax
    3b22:	83 e8 01             	sub    $0x1,%eax
    3b25:	89 c7                	mov    %eax,%edi
    3b27:	e8 00 00 00 00       	callq  3b2c <find_to+0x3b5>
    3b2c:	8d 50 01             	lea    0x1(%rax),%edx
    3b2f:	48 8b 45 88          	mov    -0x78(%rbp),%rax
    3b33:	89 10                	mov    %edx,(%rax)
    3b35:	e9 24 03 00 00       	jmpq   3e5e <find_to+0x6e7>
    3b3a:	8b 05 00 00 00 00    	mov    0x0(%rip),%eax        # 3b40 <find_to+0x3c9>
    3b40:	83 c0 01             	add    $0x1,%eax
    3b43:	3b 45 ac             	cmp    -0x54(%rbp),%eax
    3b46:	0f 85 a6 00 00 00    	jne    3bf2 <find_to+0x47b>
    3b4c:	8b 45 dc             	mov    -0x24(%rbp),%eax
    3b4f:	01 c0                	add    %eax,%eax
    3b51:	89 c7                	mov    %eax,%edi
    3b53:	e8 00 00 00 00       	callq  3b58 <find_to+0x3e1>
    3b58:	89 45 c4             	mov    %eax,-0x3c(%rbp)
    3b5b:	8b 45 dc             	mov    -0x24(%rbp),%eax
    3b5e:	8b 55 a8             	mov    -0x58(%rbp),%edx
    3b61:	29 c2                	sub    %eax,%edx
    3b63:	8b 45 c4             	mov    -0x3c(%rbp),%eax
    3b66:	01 c2                	add    %eax,%edx
    3b68:	48 8b 45 80          	mov    -0x80(%rbp),%rax
    3b6c:	89 10                	mov    %edx,(%rax)
    3b6e:	48 8b 45 88          	mov    -0x78(%rbp),%rax
    3b72:	8b 55 ac             	mov    -0x54(%rbp),%edx
    3b75:	89 10                	mov    %edx,(%rax)
    3b77:	48 8b 45 80          	mov    -0x80(%rbp),%rax
    3b7b:	8b 10                	mov    (%rax),%edx
    3b7d:	8b 05 00 00 00 00    	mov    0x0(%rip),%eax        # 3b83 <find_to+0x40c>
    3b83:	39 c2                	cmp    %eax,%edx
    3b85:	7e 31                	jle    3bb8 <find_to+0x441>
    3b87:	8b 05 00 00 00 00    	mov    0x0(%rip),%eax        # 3b8d <find_to+0x416>
    3b8d:	8d 50 01             	lea    0x1(%rax),%edx
    3b90:	48 8b 45 80          	mov    -0x80(%rbp),%rax
    3b94:	89 10                	mov    %edx,(%rax)
    3b96:	8b 1d 00 00 00 00    	mov    0x0(%rip),%ebx        # 3b9c <find_to+0x425>
    3b9c:	8b 45 e0             	mov    -0x20(%rbp),%eax
    3b9f:	83 e8 01             	sub    $0x1,%eax
    3ba2:	89 c7                	mov    %eax,%edi
    3ba4:	e8 00 00 00 00       	callq  3ba9 <find_to+0x432>
    3ba9:	89 da                	mov    %ebx,%edx
    3bab:	29 c2                	sub    %eax,%edx
    3bad:	48 8b 45 88          	mov    -0x78(%rbp),%rax
    3bb1:	89 10                	mov    %edx,(%rax)
    3bb3:	e9 a6 02 00 00       	jmpq   3e5e <find_to+0x6e7>
    3bb8:	48 8b 45 80          	mov    -0x80(%rbp),%rax
    3bbc:	8b 00                	mov    (%rax),%eax
    3bbe:	85 c0                	test   %eax,%eax
    3bc0:	0f 8f 98 02 00 00    	jg     3e5e <find_to+0x6e7>
    3bc6:	48 8b 45 80          	mov    -0x80(%rbp),%rax
    3bca:	c7 00 00 00 00 00    	movl   $0x0,(%rax)
    3bd0:	8b 1d 00 00 00 00    	mov    0x0(%rip),%ebx        # 3bd6 <find_to+0x45f>
    3bd6:	8b 45 e0             	mov    -0x20(%rbp),%eax
    3bd9:	83 e8 01             	sub    $0x1,%eax
    3bdc:	89 c7                	mov    %eax,%edi
    3bde:	e8 00 00 00 00       	callq  3be3 <find_to+0x46c>
    3be3:	89 da                	mov    %ebx,%edx
    3be5:	29 c2                	sub    %eax,%edx
    3be7:	48 8b 45 88          	mov    -0x78(%rbp),%rax
    3beb:	89 10                	mov    %edx,(%rax)
    3bed:	e9 6c 02 00 00       	jmpq   3e5e <find_to+0x6e7>
    3bf2:	83 7d a8 00          	cmpl   $0x0,-0x58(%rbp)
    3bf6:	0f 85 98 00 00 00    	jne    3c94 <find_to+0x51d>
    3bfc:	8b 45 e0             	mov    -0x20(%rbp),%eax
    3bff:	01 c0                	add    %eax,%eax
    3c01:	89 c7                	mov    %eax,%edi
    3c03:	e8 00 00 00 00       	callq  3c08 <find_to+0x491>
    3c08:	89 45 c4             	mov    %eax,-0x3c(%rbp)
    3c0b:	8b 45 e0             	mov    -0x20(%rbp),%eax
    3c0e:	8b 55 ac             	mov    -0x54(%rbp),%edx
    3c11:	29 c2                	sub    %eax,%edx
    3c13:	8b 45 c4             	mov    -0x3c(%rbp),%eax
    3c16:	01 c2                	add    %eax,%edx
    3c18:	48 8b 45 88          	mov    -0x78(%rbp),%rax
    3c1c:	89 10                	mov    %edx,(%rax)
    3c1e:	48 8b 45 80          	mov    -0x80(%rbp),%rax
    3c22:	8b 55 a8             	mov    -0x58(%rbp),%edx
    3c25:	89 10                	mov    %edx,(%rax)
    3c27:	48 8b 45 88          	mov    -0x78(%rbp),%rax
    3c2b:	8b 10                	mov    (%rax),%edx
    3c2d:	8b 05 00 00 00 00    	mov    0x0(%rip),%eax        # 3c33 <find_to+0x4bc>
    3c33:	39 c2                	cmp    %eax,%edx
    3c35:	7e 2a                	jle    3c61 <find_to+0x4ea>
    3c37:	8b 05 00 00 00 00    	mov    0x0(%rip),%eax        # 3c3d <find_to+0x4c6>
    3c3d:	8d 50 01             	lea    0x1(%rax),%edx
    3c40:	48 8b 45 88          	mov    -0x78(%rbp),%rax
    3c44:	89 10                	mov    %edx,(%rax)
    3c46:	8b 45 dc             	mov    -0x24(%rbp),%eax
    3c49:	83 e8 01             	sub    $0x1,%eax
    3c4c:	89 c7                	mov    %eax,%edi
    3c4e:	e8 00 00 00 00       	callq  3c53 <find_to+0x4dc>
    3c53:	8d 50 01             	lea    0x1(%rax),%edx
    3c56:	48 8b 45 80          	mov    -0x80(%rbp),%rax
    3c5a:	89 10                	mov    %edx,(%rax)
    3c5c:	e9 fd 01 00 00       	jmpq   3e5e <find_to+0x6e7>
    3c61:	48 8b 45 88          	mov    -0x78(%rbp),%rax
    3c65:	8b 00                	mov    (%rax),%eax
    3c67:	85 c0                	test   %eax,%eax
    3c69:	0f 8f ef 01 00 00    	jg     3e5e <find_to+0x6e7>
    3c6f:	48 8b 45 88          	mov    -0x78(%rbp),%rax
    3c73:	c7 00 00 00 00 00    	movl   $0x0,(%rax)
    3c79:	8b 45 dc             	mov    -0x24(%rbp),%eax
    3c7c:	83 e8 01             	sub    $0x1,%eax
    3c7f:	89 c7                	mov    %eax,%edi
    3c81:	e8 00 00 00 00       	callq  3c86 <find_to+0x50f>
    3c86:	8d 50 01             	lea    0x1(%rax),%edx
    3c89:	48 8b 45 80          	mov    -0x80(%rbp),%rax
    3c8d:	89 10                	mov    %edx,(%rax)
    3c8f:	e9 ca 01 00 00       	jmpq   3e5e <find_to+0x6e7>
    3c94:	8b 45 e0             	mov    -0x20(%rbp),%eax
    3c97:	01 c0                	add    %eax,%eax
    3c99:	89 c7                	mov    %eax,%edi
    3c9b:	e8 00 00 00 00       	callq  3ca0 <find_to+0x529>
    3ca0:	89 45 c4             	mov    %eax,-0x3c(%rbp)
    3ca3:	8b 45 e0             	mov    -0x20(%rbp),%eax
    3ca6:	8b 55 ac             	mov    -0x54(%rbp),%edx
    3ca9:	29 c2                	sub    %eax,%edx
    3cab:	8b 45 c4             	mov    -0x3c(%rbp),%eax
    3cae:	01 c2                	add    %eax,%edx
    3cb0:	48 8b 45 88          	mov    -0x78(%rbp),%rax
    3cb4:	89 10                	mov    %edx,(%rax)
    3cb6:	48 8b 45 80          	mov    -0x80(%rbp),%rax
    3cba:	8b 55 a8             	mov    -0x58(%rbp),%edx
    3cbd:	89 10                	mov    %edx,(%rax)
    3cbf:	48 8b 45 88          	mov    -0x78(%rbp),%rax
    3cc3:	8b 10                	mov    (%rax),%edx
    3cc5:	8b 05 00 00 00 00    	mov    0x0(%rip),%eax        # 3ccb <find_to+0x554>
    3ccb:	39 c2                	cmp    %eax,%edx
    3ccd:	7e 31                	jle    3d00 <find_to+0x589>
    3ccf:	8b 05 00 00 00 00    	mov    0x0(%rip),%eax        # 3cd5 <find_to+0x55e>
    3cd5:	8d 50 01             	lea    0x1(%rax),%edx
    3cd8:	48 8b 45 88          	mov    -0x78(%rbp),%rax
    3cdc:	89 10                	mov    %edx,(%rax)
    3cde:	8b 1d 00 00 00 00    	mov    0x0(%rip),%ebx        # 3ce4 <find_to+0x56d>
    3ce4:	8b 45 dc             	mov    -0x24(%rbp),%eax
    3ce7:	83 e8 01             	sub    $0x1,%eax
    3cea:	89 c7                	mov    %eax,%edi
    3cec:	e8 00 00 00 00       	callq  3cf1 <find_to+0x57a>
    3cf1:	89 da                	mov    %ebx,%edx
    3cf3:	29 c2                	sub    %eax,%edx
    3cf5:	48 8b 45 80          	mov    -0x80(%rbp),%rax
    3cf9:	89 10                	mov    %edx,(%rax)
    3cfb:	e9 5e 01 00 00       	jmpq   3e5e <find_to+0x6e7>
    3d00:	48 8b 45 88          	mov    -0x78(%rbp),%rax
    3d04:	8b 00                	mov    (%rax),%eax
    3d06:	85 c0                	test   %eax,%eax
    3d08:	0f 8f 50 01 00 00    	jg     3e5e <find_to+0x6e7>
    3d0e:	48 8b 45 88          	mov    -0x78(%rbp),%rax
    3d12:	c7 00 00 00 00 00    	movl   $0x0,(%rax)
    3d18:	8b 1d 00 00 00 00    	mov    0x0(%rip),%ebx        # 3d1e <find_to+0x5a7>
    3d1e:	8b 45 dc             	mov    -0x24(%rbp),%eax
    3d21:	83 e8 01             	sub    $0x1,%eax
    3d24:	89 c7                	mov    %eax,%edi
    3d26:	e8 00 00 00 00       	callq  3d2b <find_to+0x5b4>
    3d2b:	89 da                	mov    %ebx,%edx
    3d2d:	29 c2                	sub    %eax,%edx
    3d2f:	48 8b 45 80          	mov    -0x80(%rbp),%rax
    3d33:	89 10                	mov    %edx,(%rax)
    3d35:	e9 24 01 00 00       	jmpq   3e5e <find_to+0x6e7>
    3d3a:	8b 45 ec             	mov    -0x14(%rbp),%eax
    3d3d:	83 e8 01             	sub    $0x1,%eax
    3d40:	89 c7                	mov    %eax,%edi
    3d42:	e8 00 00 00 00       	callq  3d47 <find_to+0x5d0>
    3d47:	89 45 c0             	mov    %eax,-0x40(%rbp)
    3d4a:	8b 45 d0             	mov    -0x30(%rbp),%eax
    3d4d:	8b 55 cc             	mov    -0x34(%rbp),%edx
    3d50:	89 d1                	mov    %edx,%ecx
    3d52:	29 c1                	sub    %eax,%ecx
    3d54:	48 8b 45 a0          	mov    -0x60(%rbp),%rax
    3d58:	8b 40 10             	mov    0x10(%rax),%eax
    3d5b:	89 45 98             	mov    %eax,-0x68(%rbp)
    3d5e:	89 c8                	mov    %ecx,%eax
    3d60:	89 c2                	mov    %eax,%edx
    3d62:	c1 fa 1f             	sar    $0x1f,%edx
    3d65:	f7 7d 98             	idivl  -0x68(%rbp)
    3d68:	83 e8 01             	sub    $0x1,%eax
    3d6b:	ba 00 00 00 00       	mov    $0x0,%edx
    3d70:	85 c0                	test   %eax,%eax
    3d72:	0f 48 c2             	cmovs  %edx,%eax
    3d75:	89 c7                	mov    %eax,%edi
    3d77:	e8 00 00 00 00       	callq  3d7c <find_to+0x605>
    3d7c:	89 45 bc             	mov    %eax,-0x44(%rbp)
    3d7f:	8b 45 c0             	mov    -0x40(%rbp),%eax
    3d82:	48 98                	cltq   
    3d84:	48 8d 14 85 00 00 00 	lea    0x0(,%rax,4),%rdx
    3d8b:	00 
    3d8c:	48 8b 45 90          	mov    -0x70(%rbp),%rax
    3d90:	48 01 d0             	add    %rdx,%rax
    3d93:	8b 10                	mov    (%rax),%edx
    3d95:	48 8b 45 88          	mov    -0x78(%rbp),%rax
    3d99:	89 10                	mov    %edx,(%rax)
    3d9b:	48 8b 45 a0          	mov    -0x60(%rbp),%rax
    3d9f:	8b 40 10             	mov    0x10(%rax),%eax
    3da2:	89 c2                	mov    %eax,%edx
    3da4:	0f af 55 bc          	imul   -0x44(%rbp),%edx
    3da8:	8b 45 d0             	mov    -0x30(%rbp),%eax
    3dab:	01 c2                	add    %eax,%edx
    3dad:	48 8b 45 80          	mov    -0x80(%rbp),%rax
    3db1:	89 10                	mov    %edx,(%rax)
    3db3:	48 8b 45 80          	mov    -0x80(%rbp),%rax
    3db7:	8b 08                	mov    (%rax),%ecx
    3db9:	48 8b 15 00 00 00 00 	mov    0x0(%rip),%rdx        # 3dc0 <find_to+0x649>
    3dc0:	48 8b 45 88          	mov    -0x78(%rbp),%rax
    3dc4:	8b 00                	mov    (%rax),%eax
    3dc6:	48 98                	cltq   
    3dc8:	48 c1 e0 03          	shl    $0x3,%rax
    3dcc:	48 01 d0             	add    %rdx,%rax
    3dcf:	48 8b 30             	mov    (%rax),%rsi
    3dd2:	48 8b 45 80          	mov    -0x80(%rbp),%rax
    3dd6:	8b 00                	mov    (%rax),%eax
    3dd8:	48 63 d0             	movslq %eax,%rdx
    3ddb:	48 89 d0             	mov    %rdx,%rax
    3dde:	48 01 c0             	add    %rax,%rax
    3de1:	48 01 d0             	add    %rdx,%rax
    3de4:	48 c1 e0 03          	shl    $0x3,%rax
    3de8:	48 01 f0             	add    %rsi,%rax
    3deb:	8b 40 08             	mov    0x8(%rax),%eax
    3dee:	89 ca                	mov    %ecx,%edx
    3df0:	29 c2                	sub    %eax,%edx
    3df2:	48 8b 45 80          	mov    -0x80(%rbp),%rax
    3df6:	89 10                	mov    %edx,(%rax)
    3df8:	48 8b 45 88          	mov    -0x78(%rbp),%rax
    3dfc:	8b 00                	mov    (%rax),%eax
    3dfe:	85 c0                	test   %eax,%eax
    3e00:	7e 10                	jle    3e12 <find_to+0x69b>
    3e02:	48 8b 45 88          	mov    -0x78(%rbp),%rax
    3e06:	8b 10                	mov    (%rax),%edx
    3e08:	8b 05 00 00 00 00    	mov    0x0(%rip),%eax        # 3e0e <find_to+0x697>
    3e0e:	39 c2                	cmp    %eax,%edx
    3e10:	7e 19                	jle    3e2b <find_to+0x6b4>
    3e12:	b9 00 00 00 00       	mov    $0x0,%ecx
    3e17:	ba 3a 07 00 00       	mov    $0x73a,%edx
    3e1c:	be 00 00 00 00       	mov    $0x0,%esi
    3e21:	bf 00 00 00 00       	mov    $0x0,%edi
    3e26:	e8 00 00 00 00       	callq  3e2b <find_to+0x6b4>
    3e2b:	48 8b 45 80          	mov    -0x80(%rbp),%rax
    3e2f:	8b 00                	mov    (%rax),%eax
    3e31:	85 c0                	test   %eax,%eax
    3e33:	7e 10                	jle    3e45 <find_to+0x6ce>
    3e35:	48 8b 45 80          	mov    -0x80(%rbp),%rax
    3e39:	8b 10                	mov    (%rax),%edx
    3e3b:	8b 05 00 00 00 00    	mov    0x0(%rip),%eax        # 3e41 <find_to+0x6ca>
    3e41:	39 c2                	cmp    %eax,%edx
    3e43:	7e 19                	jle    3e5e <find_to+0x6e7>
    3e45:	b9 00 00 00 00       	mov    $0x0,%ecx
    3e4a:	ba 3b 07 00 00       	mov    $0x73b,%edx
    3e4f:	be 00 00 00 00       	mov    $0x0,%esi
    3e54:	bf 00 00 00 00       	mov    $0x0,%edi
    3e59:	e8 00 00 00 00       	callq  3e5e <find_to+0x6e7>
    3e5e:	48 8b 45 88          	mov    -0x78(%rbp),%rax
    3e62:	8b 00                	mov    (%rax),%eax
    3e64:	3b 45 ac             	cmp    -0x54(%rbp),%eax
    3e67:	75 0f                	jne    3e78 <find_to+0x701>
    3e69:	48 8b 45 80          	mov    -0x80(%rbp),%rax
    3e6d:	8b 00                	mov    (%rax),%eax
    3e6f:	3b 45 a8             	cmp    -0x58(%rbp),%eax
    3e72:	0f 84 f3 fa ff ff    	je     396b <find_to+0x1f4>
    3e78:	48 8b 45 88          	mov    -0x78(%rbp),%rax
    3e7c:	8b 00                	mov    (%rax),%eax
    3e7e:	85 c0                	test   %eax,%eax
    3e80:	78 30                	js     3eb2 <find_to+0x73b>
    3e82:	48 8b 45 88          	mov    -0x78(%rbp),%rax
    3e86:	8b 00                	mov    (%rax),%eax
    3e88:	8b 15 00 00 00 00    	mov    0x0(%rip),%edx        # 3e8e <find_to+0x717>
    3e8e:	83 c2 01             	add    $0x1,%edx
    3e91:	39 d0                	cmp    %edx,%eax
    3e93:	7f 1d                	jg     3eb2 <find_to+0x73b>
    3e95:	48 8b 45 80          	mov    -0x80(%rbp),%rax
    3e99:	8b 00                	mov    (%rax),%eax
    3e9b:	85 c0                	test   %eax,%eax
    3e9d:	78 13                	js     3eb2 <find_to+0x73b>
    3e9f:	48 8b 45 80          	mov    -0x80(%rbp),%rax
    3ea3:	8b 00                	mov    (%rax),%eax
    3ea5:	8b 15 00 00 00 00    	mov    0x0(%rip),%edx        # 3eab <find_to+0x734>
    3eab:	83 c2 01             	add    $0x1,%edx
    3eae:	39 d0                	cmp    %edx,%eax
    3eb0:	7e 27                	jle    3ed9 <find_to+0x762>
    3eb2:	48 8b 45 80          	mov    -0x80(%rbp),%rax
    3eb6:	8b 10                	mov    (%rax),%edx
    3eb8:	48 8b 45 88          	mov    -0x78(%rbp),%rax
    3ebc:	8b 00                	mov    (%rax),%eax
    3ebe:	89 c6                	mov    %eax,%esi
    3ec0:	bf 00 00 00 00       	mov    $0x0,%edi
    3ec5:	b8 00 00 00 00       	mov    $0x0,%eax
    3eca:	e8 00 00 00 00       	callq  3ecf <find_to+0x758>
    3ecf:	bf 01 00 00 00       	mov    $0x1,%edi
    3ed4:	e8 00 00 00 00       	callq  3ed9 <find_to+0x762>
    3ed9:	48 8b 15 00 00 00 00 	mov    0x0(%rip),%rdx        # 3ee0 <find_to+0x769>
    3ee0:	48 8b 45 88          	mov    -0x78(%rbp),%rax
    3ee4:	8b 00                	mov    (%rax),%eax
    3ee6:	48 98                	cltq   
    3ee8:	48 c1 e0 03          	shl    $0x3,%rax
    3eec:	48 01 d0             	add    %rdx,%rax
    3eef:	48 8b 08             	mov    (%rax),%rcx
    3ef2:	48 8b 45 80          	mov    -0x80(%rbp),%rax
    3ef6:	8b 00                	mov    (%rax),%eax
    3ef8:	48 63 d0             	movslq %eax,%rdx
    3efb:	48 89 d0             	mov    %rdx,%rax
    3efe:	48 01 c0             	add    %rax,%rax
    3f01:	48 01 d0             	add    %rdx,%rax
    3f04:	48 c1 e0 03          	shl    $0x3,%rax
    3f08:	48 01 c8             	add    %rcx,%rax
    3f0b:	48 8b 00             	mov    (%rax),%rax
    3f0e:	48 3b 45 a0          	cmp    -0x60(%rbp),%rax
    3f12:	74 19                	je     3f2d <find_to+0x7b6>
    3f14:	b9 00 00 00 00       	mov    $0x0,%ecx
    3f19:	ba 48 07 00 00       	mov    $0x748,%edx
    3f1e:	be 00 00 00 00       	mov    $0x0,%esi
    3f23:	bf 00 00 00 00       	mov    $0x0,%edi
    3f28:	e8 00 00 00 00       	callq  3f2d <find_to+0x7b6>
    3f2d:	b8 01 00 00 00       	mov    $0x1,%eax
    3f32:	48 83 c4 78          	add    $0x78,%rsp
    3f36:	5b                   	pop    %rbx
    3f37:	5d                   	pop    %rbp
    3f38:	c3                   	retq   

0000000000003f39 <assess_swap>:
    3f39:	55                   	push   %rbp
    3f3a:	48 89 e5             	mov    %rsp,%rbp
    3f3d:	48 83 ec 20          	sub    $0x20,%rsp
    3f41:	e8 00 00 00 00       	callq  3f46 <assess_swap+0xd>
    3f46:	f3 0f 11 45 ec       	movss  %xmm0,-0x14(%rbp)
    3f4b:	f3 0f 11 4d e8       	movss  %xmm1,-0x18(%rbp)
    3f50:	0f 57 c0             	xorps  %xmm0,%xmm0
    3f53:	0f 2e 45 ec          	ucomiss -0x14(%rbp),%xmm0
    3f57:	72 0c                	jb     3f65 <assess_swap+0x2c>
    3f59:	c7 45 fc 01 00 00 00 	movl   $0x1,-0x4(%rbp)
    3f60:	8b 45 fc             	mov    -0x4(%rbp),%eax
    3f63:	eb 74                	jmp    3fd9 <assess_swap+0xa0>
    3f65:	0f 57 c0             	xorps  %xmm0,%xmm0
    3f68:	0f 2e 45 e8          	ucomiss -0x18(%rbp),%xmm0
    3f6c:	7a 10                	jp     3f7e <assess_swap+0x45>
    3f6e:	0f 57 c0             	xorps  %xmm0,%xmm0
    3f71:	0f 2e 45 e8          	ucomiss -0x18(%rbp),%xmm0
    3f75:	75 07                	jne    3f7e <assess_swap+0x45>
    3f77:	b8 00 00 00 00       	mov    $0x0,%eax
    3f7c:	eb 5b                	jmp    3fd9 <assess_swap+0xa0>
    3f7e:	e8 00 00 00 00       	callq  3f83 <assess_swap+0x4a>
    3f83:	f3 0f 11 45 e4       	movss  %xmm0,-0x1c(%rbp)
    3f88:	8b 45 e4             	mov    -0x1c(%rbp),%eax
    3f8b:	89 45 f8             	mov    %eax,-0x8(%rbp)
    3f8e:	f3 0f 10 4d ec       	movss  -0x14(%rbp),%xmm1
    3f93:	f3 0f 10 05 00 00 00 	movss  0x0(%rip),%xmm0        # 3f9b <assess_swap+0x62>
    3f9a:	00 
    3f9b:	0f 57 c1             	xorps  %xmm1,%xmm0
    3f9e:	f3 0f 5e 45 e8       	divss  -0x18(%rbp),%xmm0
    3fa3:	0f 14 c0             	unpcklps %xmm0,%xmm0
    3fa6:	0f 5a c0             	cvtps2pd %xmm0,%xmm0
    3fa9:	e8 00 00 00 00       	callq  3fae <assess_swap+0x75>
    3fae:	66 0f 14 c0          	unpcklpd %xmm0,%xmm0
    3fb2:	66 0f 5a c0          	cvtpd2ps %xmm0,%xmm0
    3fb6:	f3 0f 11 45 f4       	movss  %xmm0,-0xc(%rbp)
    3fbb:	f3 0f 10 45 f4       	movss  -0xc(%rbp),%xmm0
    3fc0:	0f 2e 45 f8          	ucomiss -0x8(%rbp),%xmm0
    3fc4:	76 09                	jbe    3fcf <assess_swap+0x96>
    3fc6:	c7 45 fc 01 00 00 00 	movl   $0x1,-0x4(%rbp)
    3fcd:	eb 07                	jmp    3fd6 <assess_swap+0x9d>
    3fcf:	c7 45 fc 00 00 00 00 	movl   $0x0,-0x4(%rbp)
    3fd6:	8b 45 fc             	mov    -0x4(%rbp),%eax
    3fd9:	c9                   	leaveq 
    3fda:	c3                   	retq   

0000000000003fdb <recompute_bb_cost>:
    3fdb:	55                   	push   %rbp
    3fdc:	48 89 e5             	mov    %rsp,%rbp
    3fdf:	48 83 ec 20          	sub    $0x20,%rsp
    3fe3:	e8 00 00 00 00       	callq  3fe8 <recompute_bb_cost+0xd>
    3fe8:	89 7d ec             	mov    %edi,-0x14(%rbp)
    3feb:	89 75 e8             	mov    %esi,-0x18(%rbp)
    3fee:	8b 05 00 00 00 00    	mov    0x0(%rip),%eax        # 3ff4 <recompute_bb_cost+0x19>
    3ff4:	89 45 f0             	mov    %eax,-0x10(%rbp)
    3ff7:	83 7d ec 01          	cmpl   $0x1,-0x14(%rbp)
    3ffb:	0f 85 84 00 00 00    	jne    4085 <recompute_bb_cost+0xaa>
    4001:	c7 45 fc 00 00 00 00 	movl   $0x0,-0x4(%rbp)
    4008:	eb 73                	jmp    407d <recompute_bb_cost+0xa2>
    400a:	c7 45 f8 00 00 00 00 	movl   $0x0,-0x8(%rbp)
    4011:	eb 5e                	jmp    4071 <recompute_bb_cost+0x96>
    4013:	48 8b 05 00 00 00 00 	mov    0x0(%rip),%rax        # 401a <recompute_bb_cost+0x3f>
    401a:	8b 55 fc             	mov    -0x4(%rbp),%edx
    401d:	48 63 d2             	movslq %edx,%rdx
    4020:	48 c1 e2 03          	shl    $0x3,%rdx
    4024:	48 01 d0             	add    %rdx,%rax
    4027:	48 8b 00             	mov    (%rax),%rax
    402a:	8b 55 f8             	mov    -0x8(%rbp),%edx
    402d:	48 63 d2             	movslq %edx,%rdx
    4030:	48 c1 e2 04          	shl    $0x4,%rdx
    4034:	48 01 c2             	add    %rax,%rdx
    4037:	8b 05 00 00 00 00    	mov    0x0(%rip),%eax        # 403d <recompute_bb_cost+0x62>
    403d:	89 42 08             	mov    %eax,0x8(%rdx)
    4040:	48 8b 05 00 00 00 00 	mov    0x0(%rip),%rax        # 4047 <recompute_bb_cost+0x6c>
    4047:	8b 55 fc             	mov    -0x4(%rbp),%edx
    404a:	48 63 d2             	movslq %edx,%rdx
    404d:	48 c1 e2 03          	shl    $0x3,%rdx
    4051:	48 01 d0             	add    %rdx,%rax
    4054:	48 8b 00             	mov    (%rax),%rax
    4057:	8b 55 f8             	mov    -0x8(%rbp),%edx
    405a:	48 63 d2             	movslq %edx,%rdx
    405d:	48 c1 e2 04          	shl    $0x4,%rdx
    4061:	48 01 c2             	add    %rax,%rdx
    4064:	8b 05 00 00 00 00    	mov    0x0(%rip),%eax        # 406a <recompute_bb_cost+0x8f>
    406a:	89 42 08             	mov    %eax,0x8(%rdx)
    406d:	83 45 f8 01          	addl   $0x1,-0x8(%rbp)
    4071:	8b 45 f8             	mov    -0x8(%rbp),%eax
    4074:	3b 45 e8             	cmp    -0x18(%rbp),%eax
    4077:	7c 9a                	jl     4013 <recompute_bb_cost+0x38>
    4079:	83 45 fc 01          	addl   $0x1,-0x4(%rbp)
    407d:	8b 45 fc             	mov    -0x4(%rbp),%eax
    4080:	3b 45 e8             	cmp    -0x18(%rbp),%eax
    4083:	7c 85                	jl     400a <recompute_bb_cost+0x2f>
    4085:	c7 45 f4 00 00 00 00 	movl   $0x0,-0xc(%rbp)
    408c:	e9 80 00 00 00       	jmpq   4111 <recompute_bb_cost+0x136>
    4091:	48 8b 0d 00 00 00 00 	mov    0x0(%rip),%rcx        # 4098 <recompute_bb_cost+0xbd>
    4098:	8b 45 f4             	mov    -0xc(%rbp),%eax
    409b:	48 63 d0             	movslq %eax,%rdx
    409e:	48 89 d0             	mov    %rdx,%rax
    40a1:	48 c1 e0 02          	shl    $0x2,%rax
    40a5:	48 01 d0             	add    %rdx,%rax
    40a8:	48 c1 e0 03          	shl    $0x3,%rax
    40ac:	48 01 c8             	add    %rcx,%rax
    40af:	8b 40 20             	mov    0x20(%rax),%eax
    40b2:	85 c0                	test   %eax,%eax
    40b4:	75 57                	jne    410d <recompute_bb_cost+0x132>
    40b6:	83 7d ec 01          	cmpl   $0x1,-0x14(%rbp)
    40ba:	74 28                	je     40e4 <recompute_bb_cost+0x109>
    40bc:	48 8b 05 00 00 00 00 	mov    0x0(%rip),%rax        # 40c3 <recompute_bb_cost+0xe8>
    40c3:	8b 55 f4             	mov    -0xc(%rbp),%edx
    40c6:	48 63 d2             	movslq %edx,%rdx
    40c9:	48 c1 e2 02          	shl    $0x2,%rdx
    40cd:	48 01 d0             	add    %rdx,%rax
    40d0:	f3 0f 10 00          	movss  (%rax),%xmm0
    40d4:	f3 0f 10 4d f0       	movss  -0x10(%rbp),%xmm1
    40d9:	f3 0f 58 c1          	addss  %xmm1,%xmm0
    40dd:	f3 0f 11 45 f0       	movss  %xmm0,-0x10(%rbp)
    40e2:	eb 29                	jmp    410d <recompute_bb_cost+0x132>
    40e4:	48 8b 05 00 00 00 00 	mov    0x0(%rip),%rax        # 40eb <recompute_bb_cost+0x110>
    40eb:	8b 55 f4             	mov    -0xc(%rbp),%edx
    40ee:	48 63 d2             	movslq %edx,%rdx
    40f1:	48 c1 e2 04          	shl    $0x4,%rdx
    40f5:	48 8d 34 10          	lea    (%rax,%rdx,1),%rsi
    40f9:	8b 55 e8             	mov    -0x18(%rbp),%edx
    40fc:	8b 45 f4             	mov    -0xc(%rbp),%eax
    40ff:	89 d1                	mov    %edx,%ecx
    4101:	ba 01 00 00 00       	mov    $0x1,%edx
    4106:	89 c7                	mov    %eax,%edi
    4108:	e8 22 19 00 00       	callq  5a2f <update_region_occ>
    410d:	83 45 f4 01          	addl   $0x1,-0xc(%rbp)
    4111:	8b 05 00 00 00 00    	mov    0x0(%rip),%eax        # 4117 <recompute_bb_cost+0x13c>
    4117:	39 45 f4             	cmp    %eax,-0xc(%rbp)
    411a:	0f 8c 71 ff ff ff    	jl     4091 <recompute_bb_cost+0xb6>
    4120:	83 7d ec 01          	cmpl   $0x1,-0x14(%rbp)
    4124:	75 15                	jne    413b <recompute_bb_cost+0x160>
    4126:	8b 45 e8             	mov    -0x18(%rbp),%eax
    4129:	89 c7                	mov    %eax,%edi
    412b:	e8 43 16 00 00       	callq  5773 <nonlinear_cong_cost>
    4130:	f3 0f 11 45 e4       	movss  %xmm0,-0x1c(%rbp)
    4135:	8b 45 e4             	mov    -0x1c(%rbp),%eax
    4138:	89 45 f0             	mov    %eax,-0x10(%rbp)
    413b:	8b 45 f0             	mov    -0x10(%rbp),%eax
    413e:	89 45 e4             	mov    %eax,-0x1c(%rbp)
    4141:	f3 0f 10 45 e4       	movss  -0x1c(%rbp),%xmm0
    4146:	c9                   	leaveq 
    4147:	c3                   	retq   

0000000000004148 <comp_td_point_to_point_delay>:
    4148:	55                   	push   %rbp
    4149:	48 89 e5             	mov    %rsp,%rbp
    414c:	48 83 ec 40          	sub    $0x40,%rsp
    4150:	e8 00 00 00 00       	callq  4155 <comp_td_point_to_point_delay+0xd>
    4155:	89 7d cc             	mov    %edi,-0x34(%rbp)
    4158:	89 75 c8             	mov    %esi,-0x38(%rbp)
    415b:	8b 05 00 00 00 00    	mov    0x0(%rip),%eax        # 4161 <comp_td_point_to_point_delay+0x19>
    4161:	89 45 fc             	mov    %eax,-0x4(%rbp)
    4164:	48 8b 0d 00 00 00 00 	mov    0x0(%rip),%rcx        # 416b <comp_td_point_to_point_delay+0x23>
    416b:	8b 45 cc             	mov    -0x34(%rbp),%eax
    416e:	48 63 d0             	movslq %eax,%rdx
    4171:	48 89 d0             	mov    %rdx,%rax
    4174:	48 c1 e0 02          	shl    $0x2,%rax
    4178:	48 01 d0             	add    %rdx,%rax
    417b:	48 c1 e0 03          	shl    $0x3,%rax
    417f:	48 01 c8             	add    %rcx,%rax
    4182:	48 8b 40 10          	mov    0x10(%rax),%rax
    4186:	8b 00                	mov    (%rax),%eax
    4188:	89 45 f8             	mov    %eax,-0x8(%rbp)
    418b:	48 8b 0d 00 00 00 00 	mov    0x0(%rip),%rcx        # 4192 <comp_td_point_to_point_delay+0x4a>
    4192:	8b 45 f8             	mov    -0x8(%rbp),%eax
    4195:	48 63 d0             	movslq %eax,%rdx
    4198:	48 89 d0             	mov    %rdx,%rax
    419b:	48 c1 e0 02          	shl    $0x2,%rax
    419f:	48 01 d0             	add    %rdx,%rax
    41a2:	48 c1 e0 03          	shl    $0x3,%rax
    41a6:	48 01 c8             	add    %rcx,%rax
    41a9:	48 8b 40 08          	mov    0x8(%rax),%rax
    41ad:	48 89 45 f0          	mov    %rax,-0x10(%rbp)
    41b1:	48 8b 0d 00 00 00 00 	mov    0x0(%rip),%rcx        # 41b8 <comp_td_point_to_point_delay+0x70>
    41b8:	8b 45 cc             	mov    -0x34(%rbp),%eax
    41bb:	48 63 d0             	movslq %eax,%rdx
    41be:	48 89 d0             	mov    %rdx,%rax
    41c1:	48 c1 e0 02          	shl    $0x2,%rax
    41c5:	48 01 d0             	add    %rdx,%rax
    41c8:	48 c1 e0 03          	shl    $0x3,%rax
    41cc:	48 01 c8             	add    %rcx,%rax
    41cf:	48 8b 40 10          	mov    0x10(%rax),%rax
    41d3:	8b 55 c8             	mov    -0x38(%rbp),%edx
    41d6:	48 63 d2             	movslq %edx,%rdx
    41d9:	48 c1 e2 02          	shl    $0x2,%rdx
    41dd:	48 01 d0             	add    %rdx,%rax
    41e0:	8b 00                	mov    (%rax),%eax
    41e2:	89 45 ec             	mov    %eax,-0x14(%rbp)
    41e5:	48 8b 0d 00 00 00 00 	mov    0x0(%rip),%rcx        # 41ec <comp_td_point_to_point_delay+0xa4>
    41ec:	8b 45 ec             	mov    -0x14(%rbp),%eax
    41ef:	48 63 d0             	movslq %eax,%rdx
    41f2:	48 89 d0             	mov    %rdx,%rax
    41f5:	48 c1 e0 02          	shl    $0x2,%rax
    41f9:	48 01 d0             	add    %rdx,%rax
    41fc:	48 c1 e0 03          	shl    $0x3,%rax
    4200:	48 01 c8             	add    %rcx,%rax
    4203:	48 8b 40 08          	mov    0x8(%rax),%rax
    4207:	48 89 45 e0          	mov    %rax,-0x20(%rbp)
    420b:	48 83 7d f0 00       	cmpq   $0x0,-0x10(%rbp)
    4210:	75 19                	jne    422b <comp_td_point_to_point_delay+0xe3>
    4212:	b9 00 00 00 00       	mov    $0x0,%ecx
    4217:	ba c0 07 00 00       	mov    $0x7c0,%edx
    421c:	be 00 00 00 00       	mov    $0x0,%esi
    4221:	bf 00 00 00 00       	mov    $0x0,%edi
    4226:	e8 00 00 00 00       	callq  422b <comp_td_point_to_point_delay+0xe3>
    422b:	48 83 7d e0 00       	cmpq   $0x0,-0x20(%rbp)
    4230:	75 19                	jne    424b <comp_td_point_to_point_delay+0x103>
    4232:	b9 00 00 00 00       	mov    $0x0,%ecx
    4237:	ba c1 07 00 00       	mov    $0x7c1,%edx
    423c:	be 00 00 00 00       	mov    $0x0,%esi
    4241:	bf 00 00 00 00       	mov    $0x0,%edi
    4246:	e8 00 00 00 00       	callq  424b <comp_td_point_to_point_delay+0x103>
    424b:	48 8b 0d 00 00 00 00 	mov    0x0(%rip),%rcx        # 4252 <comp_td_point_to_point_delay+0x10a>
    4252:	8b 45 ec             	mov    -0x14(%rbp),%eax
    4255:	48 63 d0             	movslq %eax,%rdx
    4258:	48 89 d0             	mov    %rdx,%rax
    425b:	48 c1 e0 02          	shl    $0x2,%rax
    425f:	48 01 d0             	add    %rdx,%rax
    4262:	48 c1 e0 03          	shl    $0x3,%rax
    4266:	48 01 c8             	add    %rcx,%rax
    4269:	8b 48 18             	mov    0x18(%rax),%ecx
    426c:	48 8b 35 00 00 00 00 	mov    0x0(%rip),%rsi        # 4273 <comp_td_point_to_point_delay+0x12b>
    4273:	8b 45 f8             	mov    -0x8(%rbp),%eax
    4276:	48 63 d0             	movslq %eax,%rdx
    4279:	48 89 d0             	mov    %rdx,%rax
    427c:	48 c1 e0 02          	shl    $0x2,%rax
    4280:	48 01 d0             	add    %rdx,%rax
    4283:	48 c1 e0 03          	shl    $0x3,%rax
    4287:	48 01 f0             	add    %rsi,%rax
    428a:	8b 40 18             	mov    0x18(%rax),%eax
    428d:	89 ca                	mov    %ecx,%edx
    428f:	29 c2                	sub    %eax,%edx
    4291:	89 d0                	mov    %edx,%eax
    4293:	c1 f8 1f             	sar    $0x1f,%eax
    4296:	31 c2                	xor    %eax,%edx
    4298:	89 55 dc             	mov    %edx,-0x24(%rbp)
    429b:	29 45 dc             	sub    %eax,-0x24(%rbp)
    429e:	48 8b 0d 00 00 00 00 	mov    0x0(%rip),%rcx        # 42a5 <comp_td_point_to_point_delay+0x15d>
    42a5:	8b 45 ec             	mov    -0x14(%rbp),%eax
    42a8:	48 63 d0             	movslq %eax,%rdx
    42ab:	48 89 d0             	mov    %rdx,%rax
    42ae:	48 c1 e0 02          	shl    $0x2,%rax
    42b2:	48 01 d0             	add    %rdx,%rax
    42b5:	48 c1 e0 03          	shl    $0x3,%rax
    42b9:	48 01 c8             	add    %rcx,%rax
    42bc:	8b 48 1c             	mov    0x1c(%rax),%ecx
    42bf:	48 8b 35 00 00 00 00 	mov    0x0(%rip),%rsi        # 42c6 <comp_td_point_to_point_delay+0x17e>
    42c6:	8b 45 f8             	mov    -0x8(%rbp),%eax
    42c9:	48 63 d0             	movslq %eax,%rdx
    42cc:	48 89 d0             	mov    %rdx,%rax
    42cf:	48 c1 e0 02          	shl    $0x2,%rax
    42d3:	48 01 d0             	add    %rdx,%rax
    42d6:	48 c1 e0 03          	shl    $0x3,%rax
    42da:	48 01 f0             	add    %rsi,%rax
    42dd:	8b 40 1c             	mov    0x1c(%rax),%eax
    42e0:	89 ca                	mov    %ecx,%edx
    42e2:	29 c2                	sub    %eax,%edx
    42e4:	89 d0                	mov    %edx,%eax
    42e6:	c1 f8 1f             	sar    $0x1f,%eax
    42e9:	31 c2                	xor    %eax,%edx
    42eb:	89 55 d8             	mov    %edx,-0x28(%rbp)
    42ee:	29 45 d8             	sub    %eax,-0x28(%rbp)
    42f1:	48 8b 05 00 00 00 00 	mov    0x0(%rip),%rax        # 42f8 <comp_td_point_to_point_delay+0x1b0>
    42f8:	48 39 45 f0          	cmp    %rax,-0x10(%rbp)
    42fc:	75 66                	jne    4364 <comp_td_point_to_point_delay+0x21c>
    42fe:	48 8b 05 00 00 00 00 	mov    0x0(%rip),%rax        # 4305 <comp_td_point_to_point_delay+0x1bd>
    4305:	48 39 45 e0          	cmp    %rax,-0x20(%rbp)
    4309:	75 2e                	jne    4339 <comp_td_point_to_point_delay+0x1f1>
    430b:	48 8b 05 00 00 00 00 	mov    0x0(%rip),%rax        # 4312 <comp_td_point_to_point_delay+0x1ca>
    4312:	8b 55 dc             	mov    -0x24(%rbp),%edx
    4315:	48 63 d2             	movslq %edx,%rdx
    4318:	48 c1 e2 03          	shl    $0x3,%rdx
    431c:	48 01 d0             	add    %rdx,%rax
    431f:	48 8b 00             	mov    (%rax),%rax
    4322:	8b 55 d8             	mov    -0x28(%rbp),%edx
    4325:	48 63 d2             	movslq %edx,%rdx
    4328:	48 c1 e2 02          	shl    $0x2,%rdx
    432c:	48 01 d0             	add    %rdx,%rax
    432f:	8b 00                	mov    (%rax),%eax
    4331:	89 45 fc             	mov    %eax,-0x4(%rbp)
    4334:	e9 8c 00 00 00       	jmpq   43c5 <comp_td_point_to_point_delay+0x27d>
    4339:	48 8b 05 00 00 00 00 	mov    0x0(%rip),%rax        # 4340 <comp_td_point_to_point_delay+0x1f8>
    4340:	8b 55 dc             	mov    -0x24(%rbp),%edx
    4343:	48 63 d2             	movslq %edx,%rdx
    4346:	48 c1 e2 03          	shl    $0x3,%rdx
    434a:	48 01 d0             	add    %rdx,%rax
    434d:	48 8b 00             	mov    (%rax),%rax
    4350:	8b 55 d8             	mov    -0x28(%rbp),%edx
    4353:	48 63 d2             	movslq %edx,%rdx
    4356:	48 c1 e2 02          	shl    $0x2,%rdx
    435a:	48 01 d0             	add    %rdx,%rax
    435d:	8b 00                	mov    (%rax),%eax
    435f:	89 45 fc             	mov    %eax,-0x4(%rbp)
    4362:	eb 61                	jmp    43c5 <comp_td_point_to_point_delay+0x27d>
    4364:	48 8b 05 00 00 00 00 	mov    0x0(%rip),%rax        # 436b <comp_td_point_to_point_delay+0x223>
    436b:	48 39 45 e0          	cmp    %rax,-0x20(%rbp)
    436f:	75 2b                	jne    439c <comp_td_point_to_point_delay+0x254>
    4371:	48 8b 05 00 00 00 00 	mov    0x0(%rip),%rax        # 4378 <comp_td_point_to_point_delay+0x230>
    4378:	8b 55 dc             	mov    -0x24(%rbp),%edx
    437b:	48 63 d2             	movslq %edx,%rdx
    437e:	48 c1 e2 03          	shl    $0x3,%rdx
    4382:	48 01 d0             	add    %rdx,%rax
    4385:	48 8b 00             	mov    (%rax),%rax
    4388:	8b 55 d8             	mov    -0x28(%rbp),%edx
    438b:	48 63 d2             	movslq %edx,%rdx
    438e:	48 c1 e2 02          	shl    $0x2,%rdx
    4392:	48 01 d0             	add    %rdx,%rax
    4395:	8b 00                	mov    (%rax),%eax
    4397:	89 45 fc             	mov    %eax,-0x4(%rbp)
    439a:	eb 29                	jmp    43c5 <comp_td_point_to_point_delay+0x27d>
    439c:	48 8b 05 00 00 00 00 	mov    0x0(%rip),%rax        # 43a3 <comp_td_point_to_point_delay+0x25b>
    43a3:	8b 55 dc             	mov    -0x24(%rbp),%edx
    43a6:	48 63 d2             	movslq %edx,%rdx
    43a9:	48 c1 e2 03          	shl    $0x3,%rdx
    43ad:	48 01 d0             	add    %rdx,%rax
    43b0:	48 8b 00             	mov    (%rax),%rax
    43b3:	8b 55 d8             	mov    -0x28(%rbp),%edx
    43b6:	48 63 d2             	movslq %edx,%rdx
    43b9:	48 c1 e2 02          	shl    $0x2,%rdx
    43bd:	48 01 d0             	add    %rdx,%rax
    43c0:	8b 00                	mov    (%rax),%eax
    43c2:	89 45 fc             	mov    %eax,-0x4(%rbp)
    43c5:	0f 57 c0             	xorps  %xmm0,%xmm0
    43c8:	0f 2e 45 fc          	ucomiss -0x4(%rbp),%xmm0
    43cc:	76 14                	jbe    43e2 <comp_td_point_to_point_delay+0x29a>
    43ce:	bf 00 00 00 00       	mov    $0x0,%edi
    43d3:	e8 00 00 00 00       	callq  43d8 <comp_td_point_to_point_delay+0x290>
    43d8:	bf 01 00 00 00       	mov    $0x1,%edi
    43dd:	e8 00 00 00 00       	callq  43e2 <comp_td_point_to_point_delay+0x29a>
    43e2:	0f 57 c0             	xorps  %xmm0,%xmm0
    43e5:	0f 2e 45 fc          	ucomiss -0x4(%rbp),%xmm0
    43e9:	76 14                	jbe    43ff <comp_td_point_to_point_delay+0x2b7>
    43eb:	bf 00 00 00 00       	mov    $0x0,%edi
    43f0:	e8 00 00 00 00       	callq  43f5 <comp_td_point_to_point_delay+0x2ad>
    43f5:	bf 01 00 00 00       	mov    $0x1,%edi
    43fa:	e8 00 00 00 00       	callq  43ff <comp_td_point_to_point_delay+0x2b7>
    43ff:	8b 45 fc             	mov    -0x4(%rbp),%eax
    4402:	89 45 c4             	mov    %eax,-0x3c(%rbp)
    4405:	f3 0f 10 45 c4       	movss  -0x3c(%rbp),%xmm0
    440a:	c9                   	leaveq 
    440b:	c3                   	retq   

000000000000440c <update_td_cost>:
    440c:	55                   	push   %rbp
    440d:	48 89 e5             	mov    %rsp,%rbp
    4410:	48 83 ec 20          	sub    $0x20,%rsp
    4414:	e8 00 00 00 00       	callq  4419 <update_td_cost+0xd>
    4419:	89 7d ec             	mov    %edi,-0x14(%rbp)
    441c:	89 75 e8             	mov    %esi,-0x18(%rbp)
    441f:	89 55 e4             	mov    %edx,-0x1c(%rbp)
    4422:	c7 45 fc 00 00 00 00 	movl   $0x0,-0x4(%rbp)
    4429:	e9 1d 03 00 00       	jmpq   474b <update_td_cost+0x33f>
    442e:	48 8b 0d 00 00 00 00 	mov    0x0(%rip),%rcx        # 4435 <update_td_cost+0x29>
    4435:	8b 45 ec             	mov    -0x14(%rbp),%eax
    4438:	48 63 d0             	movslq %eax,%rdx
    443b:	48 89 d0             	mov    %rdx,%rax
    443e:	48 c1 e0 02          	shl    $0x2,%rax
    4442:	48 01 d0             	add    %rdx,%rax
    4445:	48 c1 e0 03          	shl    $0x3,%rax
    4449:	48 01 c8             	add    %rcx,%rax
    444c:	48 8b 40 10          	mov    0x10(%rax),%rax
    4450:	8b 55 fc             	mov    -0x4(%rbp),%edx
    4453:	48 63 d2             	movslq %edx,%rdx
    4456:	48 c1 e2 02          	shl    $0x2,%rdx
    445a:	48 01 d0             	add    %rdx,%rax
    445d:	8b 00                	mov    (%rax),%eax
    445f:	89 45 f4             	mov    %eax,-0xc(%rbp)
    4462:	83 7d f4 ff          	cmpl   $0xffffffff,-0xc(%rbp)
    4466:	0f 84 d7 02 00 00    	je     4743 <update_td_cost+0x337>
    446c:	48 8b 0d 00 00 00 00 	mov    0x0(%rip),%rcx        # 4473 <update_td_cost+0x67>
    4473:	8b 45 f4             	mov    -0xc(%rbp),%eax
    4476:	48 63 d0             	movslq %eax,%rdx
    4479:	48 89 d0             	mov    %rdx,%rax
    447c:	48 c1 e0 02          	shl    $0x2,%rax
    4480:	48 01 d0             	add    %rdx,%rax
    4483:	48 c1 e0 03          	shl    $0x3,%rax
    4487:	48 01 c8             	add    %rcx,%rax
    448a:	8b 40 20             	mov    0x20(%rax),%eax
    448d:	85 c0                	test   %eax,%eax
    448f:	0f 85 b1 02 00 00    	jne    4746 <update_td_cost+0x33a>
    4495:	48 8b 05 00 00 00 00 	mov    0x0(%rip),%rax        # 449c <update_td_cost+0x90>
    449c:	8b 55 ec             	mov    -0x14(%rbp),%edx
    449f:	48 63 d2             	movslq %edx,%rdx
    44a2:	48 c1 e2 03          	shl    $0x3,%rdx
    44a6:	48 01 d0             	add    %rdx,%rax
    44a9:	48 8b 00             	mov    (%rax),%rax
    44ac:	8b 55 fc             	mov    -0x4(%rbp),%edx
    44af:	48 63 d2             	movslq %edx,%rdx
    44b2:	48 c1 e2 02          	shl    $0x2,%rdx
    44b6:	48 01 d0             	add    %rdx,%rax
    44b9:	8b 00                	mov    (%rax),%eax
    44bb:	89 45 f0             	mov    %eax,-0x10(%rbp)
    44be:	83 7d f0 00          	cmpl   $0x0,-0x10(%rbp)
    44c2:	0f 84 4f 01 00 00    	je     4617 <update_td_cost+0x20b>
    44c8:	48 8b 0d 00 00 00 00 	mov    0x0(%rip),%rcx        # 44cf <update_td_cost+0xc3>
    44cf:	8b 45 f4             	mov    -0xc(%rbp),%eax
    44d2:	48 63 d0             	movslq %eax,%rdx
    44d5:	48 89 d0             	mov    %rdx,%rax
    44d8:	48 c1 e0 02          	shl    $0x2,%rax
    44dc:	48 01 d0             	add    %rdx,%rax
    44df:	48 c1 e0 03          	shl    $0x3,%rax
    44e3:	48 01 c8             	add    %rcx,%rax
    44e6:	48 8b 40 10          	mov    0x10(%rax),%rax
    44ea:	8b 00                	mov    (%rax),%eax
    44ec:	3b 45 e8             	cmp    -0x18(%rbp),%eax
    44ef:	0f 84 52 02 00 00    	je     4747 <update_td_cost+0x33b>
    44f5:	48 8b 0d 00 00 00 00 	mov    0x0(%rip),%rcx        # 44fc <update_td_cost+0xf0>
    44fc:	8b 45 f4             	mov    -0xc(%rbp),%eax
    44ff:	48 63 d0             	movslq %eax,%rdx
    4502:	48 89 d0             	mov    %rdx,%rax
    4505:	48 c1 e0 02          	shl    $0x2,%rax
    4509:	48 01 d0             	add    %rdx,%rax
    450c:	48 c1 e0 03          	shl    $0x3,%rax
    4510:	48 01 c8             	add    %rcx,%rax
    4513:	48 8b 40 10          	mov    0x10(%rax),%rax
    4517:	8b 00                	mov    (%rax),%eax
    4519:	3b 45 ec             	cmp    -0x14(%rbp),%eax
    451c:	0f 84 25 02 00 00    	je     4747 <update_td_cost+0x33b>
    4522:	48 8b 05 00 00 00 00 	mov    0x0(%rip),%rax        # 4529 <update_td_cost+0x11d>
    4529:	8b 55 f4             	mov    -0xc(%rbp),%edx
    452c:	48 63 d2             	movslq %edx,%rdx
    452f:	48 c1 e2 03          	shl    $0x3,%rdx
    4533:	48 01 d0             	add    %rdx,%rax
    4536:	48 8b 00             	mov    (%rax),%rax
    4539:	8b 55 f0             	mov    -0x10(%rbp),%edx
    453c:	48 63 d2             	movslq %edx,%rdx
    453f:	48 c1 e2 02          	shl    $0x2,%rdx
    4543:	48 01 c2             	add    %rax,%rdx
    4546:	48 8b 05 00 00 00 00 	mov    0x0(%rip),%rax        # 454d <update_td_cost+0x141>
    454d:	8b 4d f4             	mov    -0xc(%rbp),%ecx
    4550:	48 63 c9             	movslq %ecx,%rcx
    4553:	48 c1 e1 03          	shl    $0x3,%rcx
    4557:	48 01 c8             	add    %rcx,%rax
    455a:	48 8b 00             	mov    (%rax),%rax
    455d:	8b 4d f0             	mov    -0x10(%rbp),%ecx
    4560:	48 63 c9             	movslq %ecx,%rcx
    4563:	48 c1 e1 02          	shl    $0x2,%rcx
    4567:	48 01 c8             	add    %rcx,%rax
    456a:	8b 00                	mov    (%rax),%eax
    456c:	89 02                	mov    %eax,(%rdx)
    456e:	48 8b 05 00 00 00 00 	mov    0x0(%rip),%rax        # 4575 <update_td_cost+0x169>
    4575:	8b 55 f4             	mov    -0xc(%rbp),%edx
    4578:	48 63 d2             	movslq %edx,%rdx
    457b:	48 c1 e2 03          	shl    $0x3,%rdx
    457f:	48 01 d0             	add    %rdx,%rax
    4582:	48 8b 00             	mov    (%rax),%rax
    4585:	8b 55 f0             	mov    -0x10(%rbp),%edx
    4588:	48 63 d2             	movslq %edx,%rdx
    458b:	48 c1 e2 02          	shl    $0x2,%rdx
    458f:	48 01 c2             	add    %rax,%rdx
    4592:	8b 05 00 00 00 00    	mov    0x0(%rip),%eax        # 4598 <update_td_cost+0x18c>
    4598:	89 02                	mov    %eax,(%rdx)
    459a:	48 8b 05 00 00 00 00 	mov    0x0(%rip),%rax        # 45a1 <update_td_cost+0x195>
    45a1:	8b 55 f4             	mov    -0xc(%rbp),%edx
    45a4:	48 63 d2             	movslq %edx,%rdx
    45a7:	48 c1 e2 03          	shl    $0x3,%rdx
    45ab:	48 01 d0             	add    %rdx,%rax
    45ae:	48 8b 00             	mov    (%rax),%rax
    45b1:	8b 55 f0             	mov    -0x10(%rbp),%edx
    45b4:	48 63 d2             	movslq %edx,%rdx
    45b7:	48 c1 e2 02          	shl    $0x2,%rdx
    45bb:	48 01 c2             	add    %rax,%rdx
    45be:	48 8b 05 00 00 00 00 	mov    0x0(%rip),%rax        # 45c5 <update_td_cost+0x1b9>
    45c5:	8b 4d f4             	mov    -0xc(%rbp),%ecx
    45c8:	48 63 c9             	movslq %ecx,%rcx
    45cb:	48 c1 e1 03          	shl    $0x3,%rcx
    45cf:	48 01 c8             	add    %rcx,%rax
    45d2:	48 8b 00             	mov    (%rax),%rax
    45d5:	8b 4d f0             	mov    -0x10(%rbp),%ecx
    45d8:	48 63 c9             	movslq %ecx,%rcx
    45db:	48 c1 e1 02          	shl    $0x2,%rcx
    45df:	48 01 c8             	add    %rcx,%rax
    45e2:	8b 00                	mov    (%rax),%eax
    45e4:	89 02                	mov    %eax,(%rdx)
    45e6:	48 8b 05 00 00 00 00 	mov    0x0(%rip),%rax        # 45ed <update_td_cost+0x1e1>
    45ed:	8b 55 f4             	mov    -0xc(%rbp),%edx
    45f0:	48 63 d2             	movslq %edx,%rdx
    45f3:	48 c1 e2 03          	shl    $0x3,%rdx
    45f7:	48 01 d0             	add    %rdx,%rax
    45fa:	48 8b 00             	mov    (%rax),%rax
    45fd:	8b 55 f0             	mov    -0x10(%rbp),%edx
    4600:	48 63 d2             	movslq %edx,%rdx
    4603:	48 c1 e2 02          	shl    $0x2,%rdx
    4607:	48 01 c2             	add    %rax,%rdx
    460a:	8b 05 00 00 00 00    	mov    0x0(%rip),%eax        # 4610 <update_td_cost+0x204>
    4610:	89 02                	mov    %eax,(%rdx)
    4612:	e9 30 01 00 00       	jmpq   4747 <update_td_cost+0x33b>
    4617:	c7 45 f8 01 00 00 00 	movl   $0x1,-0x8(%rbp)
    461e:	e9 f4 00 00 00       	jmpq   4717 <update_td_cost+0x30b>
    4623:	48 8b 05 00 00 00 00 	mov    0x0(%rip),%rax        # 462a <update_td_cost+0x21e>
    462a:	8b 55 f4             	mov    -0xc(%rbp),%edx
    462d:	48 63 d2             	movslq %edx,%rdx
    4630:	48 c1 e2 03          	shl    $0x3,%rdx
    4634:	48 01 d0             	add    %rdx,%rax
    4637:	48 8b 00             	mov    (%rax),%rax
    463a:	8b 55 f8             	mov    -0x8(%rbp),%edx
    463d:	48 63 d2             	movslq %edx,%rdx
    4640:	48 c1 e2 02          	shl    $0x2,%rdx
    4644:	48 01 c2             	add    %rax,%rdx
    4647:	48 8b 05 00 00 00 00 	mov    0x0(%rip),%rax        # 464e <update_td_cost+0x242>
    464e:	8b 4d f4             	mov    -0xc(%rbp),%ecx
    4651:	48 63 c9             	movslq %ecx,%rcx
    4654:	48 c1 e1 03          	shl    $0x3,%rcx
    4658:	48 01 c8             	add    %rcx,%rax
    465b:	48 8b 00             	mov    (%rax),%rax
    465e:	8b 4d f8             	mov    -0x8(%rbp),%ecx
    4661:	48 63 c9             	movslq %ecx,%rcx
    4664:	48 c1 e1 02          	shl    $0x2,%rcx
    4668:	48 01 c8             	add    %rcx,%rax
    466b:	8b 00                	mov    (%rax),%eax
    466d:	89 02                	mov    %eax,(%rdx)
    466f:	48 8b 05 00 00 00 00 	mov    0x0(%rip),%rax        # 4676 <update_td_cost+0x26a>
    4676:	8b 55 f4             	mov    -0xc(%rbp),%edx
    4679:	48 63 d2             	movslq %edx,%rdx
    467c:	48 c1 e2 03          	shl    $0x3,%rdx
    4680:	48 01 d0             	add    %rdx,%rax
    4683:	48 8b 00             	mov    (%rax),%rax
    4686:	8b 55 f8             	mov    -0x8(%rbp),%edx
    4689:	48 63 d2             	movslq %edx,%rdx
    468c:	48 c1 e2 02          	shl    $0x2,%rdx
    4690:	48 01 c2             	add    %rax,%rdx
    4693:	8b 05 00 00 00 00    	mov    0x0(%rip),%eax        # 4699 <update_td_cost+0x28d>
    4699:	89 02                	mov    %eax,(%rdx)
    469b:	48 8b 05 00 00 00 00 	mov    0x0(%rip),%rax        # 46a2 <update_td_cost+0x296>
    46a2:	8b 55 f4             	mov    -0xc(%rbp),%edx
    46a5:	48 63 d2             	movslq %edx,%rdx
    46a8:	48 c1 e2 03          	shl    $0x3,%rdx
    46ac:	48 01 d0             	add    %rdx,%rax
    46af:	48 8b 00             	mov    (%rax),%rax
    46b2:	8b 55 f8             	mov    -0x8(%rbp),%edx
    46b5:	48 63 d2             	movslq %edx,%rdx
    46b8:	48 c1 e2 02          	shl    $0x2,%rdx
    46bc:	48 01 c2             	add    %rax,%rdx
    46bf:	48 8b 05 00 00 00 00 	mov    0x0(%rip),%rax        # 46c6 <update_td_cost+0x2ba>
    46c6:	8b 4d f4             	mov    -0xc(%rbp),%ecx
    46c9:	48 63 c9             	movslq %ecx,%rcx
    46cc:	48 c1 e1 03          	shl    $0x3,%rcx
    46d0:	48 01 c8             	add    %rcx,%rax
    46d3:	48 8b 00             	mov    (%rax),%rax
    46d6:	8b 4d f8             	mov    -0x8(%rbp),%ecx
    46d9:	48 63 c9             	movslq %ecx,%rcx
    46dc:	48 c1 e1 02          	shl    $0x2,%rcx
    46e0:	48 01 c8             	add    %rcx,%rax
    46e3:	8b 00                	mov    (%rax),%eax
    46e5:	89 02                	mov    %eax,(%rdx)
    46e7:	48 8b 05 00 00 00 00 	mov    0x0(%rip),%rax        # 46ee <update_td_cost+0x2e2>
    46ee:	8b 55 f4             	mov    -0xc(%rbp),%edx
    46f1:	48 63 d2             	movslq %edx,%rdx
    46f4:	48 c1 e2 03          	shl    $0x3,%rdx
    46f8:	48 01 d0             	add    %rdx,%rax
    46fb:	48 8b 00             	mov    (%rax),%rax
    46fe:	8b 55 f8             	mov    -0x8(%rbp),%edx
    4701:	48 63 d2             	movslq %edx,%rdx
    4704:	48 c1 e2 02          	shl    $0x2,%rdx
    4708:	48 01 c2             	add    %rax,%rdx
    470b:	8b 05 00 00 00 00    	mov    0x0(%rip),%eax        # 4711 <update_td_cost+0x305>
    4711:	89 02                	mov    %eax,(%rdx)
    4713:	83 45 f8 01          	addl   $0x1,-0x8(%rbp)
    4717:	48 8b 0d 00 00 00 00 	mov    0x0(%rip),%rcx        # 471e <update_td_cost+0x312>
    471e:	8b 45 f4             	mov    -0xc(%rbp),%eax
    4721:	48 63 d0             	movslq %eax,%rdx
    4724:	48 89 d0             	mov    %rdx,%rax
    4727:	48 c1 e0 02          	shl    $0x2,%rax
    472b:	48 01 d0             	add    %rdx,%rax
    472e:	48 c1 e0 03          	shl    $0x3,%rax
    4732:	48 01 c8             	add    %rcx,%rax
    4735:	8b 40 08             	mov    0x8(%rax),%eax
    4738:	3b 45 f8             	cmp    -0x8(%rbp),%eax
    473b:	0f 8d e2 fe ff ff    	jge    4623 <update_td_cost+0x217>
    4741:	eb 04                	jmp    4747 <update_td_cost+0x33b>
    4743:	90                   	nop
    4744:	eb 01                	jmp    4747 <update_td_cost+0x33b>
    4746:	90                   	nop
    4747:	83 45 fc 01          	addl   $0x1,-0x4(%rbp)
    474b:	8b 45 fc             	mov    -0x4(%rbp),%eax
    474e:	3b 45 e4             	cmp    -0x1c(%rbp),%eax
    4751:	0f 8c d7 fc ff ff    	jl     442e <update_td_cost+0x22>
    4757:	83 7d e8 ff          	cmpl   $0xffffffff,-0x18(%rbp)
    475b:	0f 84 35 03 00 00    	je     4a96 <update_td_cost+0x68a>
    4761:	c7 45 fc 00 00 00 00 	movl   $0x0,-0x4(%rbp)
    4768:	e9 1d 03 00 00       	jmpq   4a8a <update_td_cost+0x67e>
    476d:	48 8b 0d 00 00 00 00 	mov    0x0(%rip),%rcx        # 4774 <update_td_cost+0x368>
    4774:	8b 45 e8             	mov    -0x18(%rbp),%eax
    4777:	48 63 d0             	movslq %eax,%rdx
    477a:	48 89 d0             	mov    %rdx,%rax
    477d:	48 c1 e0 02          	shl    $0x2,%rax
    4781:	48 01 d0             	add    %rdx,%rax
    4784:	48 c1 e0 03          	shl    $0x3,%rax
    4788:	48 01 c8             	add    %rcx,%rax
    478b:	48 8b 40 10          	mov    0x10(%rax),%rax
    478f:	8b 55 fc             	mov    -0x4(%rbp),%edx
    4792:	48 63 d2             	movslq %edx,%rdx
    4795:	48 c1 e2 02          	shl    $0x2,%rdx
    4799:	48 01 d0             	add    %rdx,%rax
    479c:	8b 00                	mov    (%rax),%eax
    479e:	89 45 f4             	mov    %eax,-0xc(%rbp)
    47a1:	83 7d f4 ff          	cmpl   $0xffffffff,-0xc(%rbp)
    47a5:	0f 84 d7 02 00 00    	je     4a82 <update_td_cost+0x676>
    47ab:	48 8b 0d 00 00 00 00 	mov    0x0(%rip),%rcx        # 47b2 <update_td_cost+0x3a6>
    47b2:	8b 45 f4             	mov    -0xc(%rbp),%eax
    47b5:	48 63 d0             	movslq %eax,%rdx
    47b8:	48 89 d0             	mov    %rdx,%rax
    47bb:	48 c1 e0 02          	shl    $0x2,%rax
    47bf:	48 01 d0             	add    %rdx,%rax
    47c2:	48 c1 e0 03          	shl    $0x3,%rax
    47c6:	48 01 c8             	add    %rcx,%rax
    47c9:	8b 40 20             	mov    0x20(%rax),%eax
    47cc:	85 c0                	test   %eax,%eax
    47ce:	0f 85 b1 02 00 00    	jne    4a85 <update_td_cost+0x679>
    47d4:	48 8b 05 00 00 00 00 	mov    0x0(%rip),%rax        # 47db <update_td_cost+0x3cf>
    47db:	8b 55 e8             	mov    -0x18(%rbp),%edx
    47de:	48 63 d2             	movslq %edx,%rdx
    47e1:	48 c1 e2 03          	shl    $0x3,%rdx
    47e5:	48 01 d0             	add    %rdx,%rax
    47e8:	48 8b 00             	mov    (%rax),%rax
    47eb:	8b 55 fc             	mov    -0x4(%rbp),%edx
    47ee:	48 63 d2             	movslq %edx,%rdx
    47f1:	48 c1 e2 02          	shl    $0x2,%rdx
    47f5:	48 01 d0             	add    %rdx,%rax
    47f8:	8b 00                	mov    (%rax),%eax
    47fa:	89 45 f0             	mov    %eax,-0x10(%rbp)
    47fd:	83 7d f0 00          	cmpl   $0x0,-0x10(%rbp)
    4801:	0f 84 4f 01 00 00    	je     4956 <update_td_cost+0x54a>
    4807:	48 8b 0d 00 00 00 00 	mov    0x0(%rip),%rcx        # 480e <update_td_cost+0x402>
    480e:	8b 45 f4             	mov    -0xc(%rbp),%eax
    4811:	48 63 d0             	movslq %eax,%rdx
    4814:	48 89 d0             	mov    %rdx,%rax
    4817:	48 c1 e0 02          	shl    $0x2,%rax
    481b:	48 01 d0             	add    %rdx,%rax
    481e:	48 c1 e0 03          	shl    $0x3,%rax
    4822:	48 01 c8             	add    %rcx,%rax
    4825:	48 8b 40 10          	mov    0x10(%rax),%rax
    4829:	8b 00                	mov    (%rax),%eax
    482b:	3b 45 e8             	cmp    -0x18(%rbp),%eax
    482e:	0f 84 52 02 00 00    	je     4a86 <update_td_cost+0x67a>
    4834:	48 8b 0d 00 00 00 00 	mov    0x0(%rip),%rcx        # 483b <update_td_cost+0x42f>
    483b:	8b 45 f4             	mov    -0xc(%rbp),%eax
    483e:	48 63 d0             	movslq %eax,%rdx
    4841:	48 89 d0             	mov    %rdx,%rax
    4844:	48 c1 e0 02          	shl    $0x2,%rax
    4848:	48 01 d0             	add    %rdx,%rax
    484b:	48 c1 e0 03          	shl    $0x3,%rax
    484f:	48 01 c8             	add    %rcx,%rax
    4852:	48 8b 40 10          	mov    0x10(%rax),%rax
    4856:	8b 00                	mov    (%rax),%eax
    4858:	3b 45 ec             	cmp    -0x14(%rbp),%eax
    485b:	0f 84 25 02 00 00    	je     4a86 <update_td_cost+0x67a>
    4861:	48 8b 05 00 00 00 00 	mov    0x0(%rip),%rax        # 4868 <update_td_cost+0x45c>
    4868:	8b 55 f4             	mov    -0xc(%rbp),%edx
    486b:	48 63 d2             	movslq %edx,%rdx
    486e:	48 c1 e2 03          	shl    $0x3,%rdx
    4872:	48 01 d0             	add    %rdx,%rax
    4875:	48 8b 00             	mov    (%rax),%rax
    4878:	8b 55 f0             	mov    -0x10(%rbp),%edx
    487b:	48 63 d2             	movslq %edx,%rdx
    487e:	48 c1 e2 02          	shl    $0x2,%rdx
    4882:	48 01 c2             	add    %rax,%rdx
    4885:	48 8b 05 00 00 00 00 	mov    0x0(%rip),%rax        # 488c <update_td_cost+0x480>
    488c:	8b 4d f4             	mov    -0xc(%rbp),%ecx
    488f:	48 63 c9             	movslq %ecx,%rcx
    4892:	48 c1 e1 03          	shl    $0x3,%rcx
    4896:	48 01 c8             	add    %rcx,%rax
    4899:	48 8b 00             	mov    (%rax),%rax
    489c:	8b 4d f0             	mov    -0x10(%rbp),%ecx
    489f:	48 63 c9             	movslq %ecx,%rcx
    48a2:	48 c1 e1 02          	shl    $0x2,%rcx
    48a6:	48 01 c8             	add    %rcx,%rax
    48a9:	8b 00                	mov    (%rax),%eax
    48ab:	89 02                	mov    %eax,(%rdx)
    48ad:	48 8b 05 00 00 00 00 	mov    0x0(%rip),%rax        # 48b4 <update_td_cost+0x4a8>
    48b4:	8b 55 f4             	mov    -0xc(%rbp),%edx
    48b7:	48 63 d2             	movslq %edx,%rdx
    48ba:	48 c1 e2 03          	shl    $0x3,%rdx
    48be:	48 01 d0             	add    %rdx,%rax
    48c1:	48 8b 00             	mov    (%rax),%rax
    48c4:	8b 55 f0             	mov    -0x10(%rbp),%edx
    48c7:	48 63 d2             	movslq %edx,%rdx
    48ca:	48 c1 e2 02          	shl    $0x2,%rdx
    48ce:	48 01 c2             	add    %rax,%rdx
    48d1:	8b 05 00 00 00 00    	mov    0x0(%rip),%eax        # 48d7 <update_td_cost+0x4cb>
    48d7:	89 02                	mov    %eax,(%rdx)
    48d9:	48 8b 05 00 00 00 00 	mov    0x0(%rip),%rax        # 48e0 <update_td_cost+0x4d4>
    48e0:	8b 55 f4             	mov    -0xc(%rbp),%edx
    48e3:	48 63 d2             	movslq %edx,%rdx
    48e6:	48 c1 e2 03          	shl    $0x3,%rdx
    48ea:	48 01 d0             	add    %rdx,%rax
    48ed:	48 8b 00             	mov    (%rax),%rax
    48f0:	8b 55 f0             	mov    -0x10(%rbp),%edx
    48f3:	48 63 d2             	movslq %edx,%rdx
    48f6:	48 c1 e2 02          	shl    $0x2,%rdx
    48fa:	48 01 c2             	add    %rax,%rdx
    48fd:	48 8b 05 00 00 00 00 	mov    0x0(%rip),%rax        # 4904 <update_td_cost+0x4f8>
    4904:	8b 4d f4             	mov    -0xc(%rbp),%ecx
    4907:	48 63 c9             	movslq %ecx,%rcx
    490a:	48 c1 e1 03          	shl    $0x3,%rcx
    490e:	48 01 c8             	add    %rcx,%rax
    4911:	48 8b 00             	mov    (%rax),%rax
    4914:	8b 4d f0             	mov    -0x10(%rbp),%ecx
    4917:	48 63 c9             	movslq %ecx,%rcx
    491a:	48 c1 e1 02          	shl    $0x2,%rcx
    491e:	48 01 c8             	add    %rcx,%rax
    4921:	8b 00                	mov    (%rax),%eax
    4923:	89 02                	mov    %eax,(%rdx)
    4925:	48 8b 05 00 00 00 00 	mov    0x0(%rip),%rax        # 492c <update_td_cost+0x520>
    492c:	8b 55 f4             	mov    -0xc(%rbp),%edx
    492f:	48 63 d2             	movslq %edx,%rdx
    4932:	48 c1 e2 03          	shl    $0x3,%rdx
    4936:	48 01 d0             	add    %rdx,%rax
    4939:	48 8b 00             	mov    (%rax),%rax
    493c:	8b 55 f0             	mov    -0x10(%rbp),%edx
    493f:	48 63 d2             	movslq %edx,%rdx
    4942:	48 c1 e2 02          	shl    $0x2,%rdx
    4946:	48 01 c2             	add    %rax,%rdx
    4949:	8b 05 00 00 00 00    	mov    0x0(%rip),%eax        # 494f <update_td_cost+0x543>
    494f:	89 02                	mov    %eax,(%rdx)
    4951:	e9 30 01 00 00       	jmpq   4a86 <update_td_cost+0x67a>
    4956:	c7 45 f8 01 00 00 00 	movl   $0x1,-0x8(%rbp)
    495d:	e9 f4 00 00 00       	jmpq   4a56 <update_td_cost+0x64a>
    4962:	48 8b 05 00 00 00 00 	mov    0x0(%rip),%rax        # 4969 <update_td_cost+0x55d>
    4969:	8b 55 f4             	mov    -0xc(%rbp),%edx
    496c:	48 63 d2             	movslq %edx,%rdx
    496f:	48 c1 e2 03          	shl    $0x3,%rdx
    4973:	48 01 d0             	add    %rdx,%rax
    4976:	48 8b 00             	mov    (%rax),%rax
    4979:	8b 55 f8             	mov    -0x8(%rbp),%edx
    497c:	48 63 d2             	movslq %edx,%rdx
    497f:	48 c1 e2 02          	shl    $0x2,%rdx
    4983:	48 01 c2             	add    %rax,%rdx
    4986:	48 8b 05 00 00 00 00 	mov    0x0(%rip),%rax        # 498d <update_td_cost+0x581>
    498d:	8b 4d f4             	mov    -0xc(%rbp),%ecx
    4990:	48 63 c9             	movslq %ecx,%rcx
    4993:	48 c1 e1 03          	shl    $0x3,%rcx
    4997:	48 01 c8             	add    %rcx,%rax
    499a:	48 8b 00             	mov    (%rax),%rax
    499d:	8b 4d f8             	mov    -0x8(%rbp),%ecx
    49a0:	48 63 c9             	movslq %ecx,%rcx
    49a3:	48 c1 e1 02          	shl    $0x2,%rcx
    49a7:	48 01 c8             	add    %rcx,%rax
    49aa:	8b 00                	mov    (%rax),%eax
    49ac:	89 02                	mov    %eax,(%rdx)
    49ae:	48 8b 05 00 00 00 00 	mov    0x0(%rip),%rax        # 49b5 <update_td_cost+0x5a9>
    49b5:	8b 55 f4             	mov    -0xc(%rbp),%edx
    49b8:	48 63 d2             	movslq %edx,%rdx
    49bb:	48 c1 e2 03          	shl    $0x3,%rdx
    49bf:	48 01 d0             	add    %rdx,%rax
    49c2:	48 8b 00             	mov    (%rax),%rax
    49c5:	8b 55 f8             	mov    -0x8(%rbp),%edx
    49c8:	48 63 d2             	movslq %edx,%rdx
    49cb:	48 c1 e2 02          	shl    $0x2,%rdx
    49cf:	48 01 c2             	add    %rax,%rdx
    49d2:	8b 05 00 00 00 00    	mov    0x0(%rip),%eax        # 49d8 <update_td_cost+0x5cc>
    49d8:	89 02                	mov    %eax,(%rdx)
    49da:	48 8b 05 00 00 00 00 	mov    0x0(%rip),%rax        # 49e1 <update_td_cost+0x5d5>
    49e1:	8b 55 f4             	mov    -0xc(%rbp),%edx
    49e4:	48 63 d2             	movslq %edx,%rdx
    49e7:	48 c1 e2 03          	shl    $0x3,%rdx
    49eb:	48 01 d0             	add    %rdx,%rax
    49ee:	48 8b 00             	mov    (%rax),%rax
    49f1:	8b 55 f8             	mov    -0x8(%rbp),%edx
    49f4:	48 63 d2             	movslq %edx,%rdx
    49f7:	48 c1 e2 02          	shl    $0x2,%rdx
    49fb:	48 01 c2             	add    %rax,%rdx
    49fe:	48 8b 05 00 00 00 00 	mov    0x0(%rip),%rax        # 4a05 <update_td_cost+0x5f9>
    4a05:	8b 4d f4             	mov    -0xc(%rbp),%ecx
    4a08:	48 63 c9             	movslq %ecx,%rcx
    4a0b:	48 c1 e1 03          	shl    $0x3,%rcx
    4a0f:	48 01 c8             	add    %rcx,%rax
    4a12:	48 8b 00             	mov    (%rax),%rax
    4a15:	8b 4d f8             	mov    -0x8(%rbp),%ecx
    4a18:	48 63 c9             	movslq %ecx,%rcx
    4a1b:	48 c1 e1 02          	shl    $0x2,%rcx
    4a1f:	48 01 c8             	add    %rcx,%rax
    4a22:	8b 00                	mov    (%rax),%eax
    4a24:	89 02                	mov    %eax,(%rdx)
    4a26:	48 8b 05 00 00 00 00 	mov    0x0(%rip),%rax        # 4a2d <update_td_cost+0x621>
    4a2d:	8b 55 f4             	mov    -0xc(%rbp),%edx
    4a30:	48 63 d2             	movslq %edx,%rdx
    4a33:	48 c1 e2 03          	shl    $0x3,%rdx
    4a37:	48 01 d0             	add    %rdx,%rax
    4a3a:	48 8b 00             	mov    (%rax),%rax
    4a3d:	8b 55 f8             	mov    -0x8(%rbp),%edx
    4a40:	48 63 d2             	movslq %edx,%rdx
    4a43:	48 c1 e2 02          	shl    $0x2,%rdx
    4a47:	48 01 c2             	add    %rax,%rdx
    4a4a:	8b 05 00 00 00 00    	mov    0x0(%rip),%eax        # 4a50 <update_td_cost+0x644>
    4a50:	89 02                	mov    %eax,(%rdx)
    4a52:	83 45 f8 01          	addl   $0x1,-0x8(%rbp)
    4a56:	48 8b 0d 00 00 00 00 	mov    0x0(%rip),%rcx        # 4a5d <update_td_cost+0x651>
    4a5d:	8b 45 f4             	mov    -0xc(%rbp),%eax
    4a60:	48 63 d0             	movslq %eax,%rdx
    4a63:	48 89 d0             	mov    %rdx,%rax
    4a66:	48 c1 e0 02          	shl    $0x2,%rax
    4a6a:	48 01 d0             	add    %rdx,%rax
    4a6d:	48 c1 e0 03          	shl    $0x3,%rax
    4a71:	48 01 c8             	add    %rcx,%rax
    4a74:	8b 40 08             	mov    0x8(%rax),%eax
    4a77:	3b 45 f8             	cmp    -0x8(%rbp),%eax
    4a7a:	0f 8d e2 fe ff ff    	jge    4962 <update_td_cost+0x556>
    4a80:	eb 04                	jmp    4a86 <update_td_cost+0x67a>
    4a82:	90                   	nop
    4a83:	eb 01                	jmp    4a86 <update_td_cost+0x67a>
    4a85:	90                   	nop
    4a86:	83 45 fc 01          	addl   $0x1,-0x4(%rbp)
    4a8a:	8b 45 fc             	mov    -0x4(%rbp),%eax
    4a8d:	3b 45 e4             	cmp    -0x1c(%rbp),%eax
    4a90:	0f 8c d7 fc ff ff    	jl     476d <update_td_cost+0x361>
    4a96:	c9                   	leaveq 
    4a97:	c3                   	retq   

0000000000004a98 <comp_delta_td_cost>:
    4a98:	55                   	push   %rbp
    4a99:	48 89 e5             	mov    %rsp,%rbp
    4a9c:	48 83 ec 40          	sub    $0x40,%rsp
    4aa0:	e8 00 00 00 00       	callq  4aa5 <comp_delta_td_cost+0xd>
    4aa5:	89 7d dc             	mov    %edi,-0x24(%rbp)
    4aa8:	89 75 d8             	mov    %esi,-0x28(%rbp)
    4aab:	89 55 d4             	mov    %edx,-0x2c(%rbp)
    4aae:	48 89 4d c8          	mov    %rcx,-0x38(%rbp)
    4ab2:	4c 89 45 c0          	mov    %r8,-0x40(%rbp)
    4ab6:	8b 05 00 00 00 00    	mov    0x0(%rip),%eax        # 4abc <comp_delta_td_cost+0x24>
    4abc:	89 45 f4             	mov    %eax,-0xc(%rbp)
    4abf:	8b 05 00 00 00 00    	mov    0x0(%rip),%eax        # 4ac5 <comp_delta_td_cost+0x2d>
    4ac5:	89 45 f0             	mov    %eax,-0x10(%rbp)
    4ac8:	c7 45 fc 00 00 00 00 	movl   $0x0,-0x4(%rbp)
    4acf:	e9 f5 03 00 00       	jmpq   4ec9 <comp_delta_td_cost+0x431>
    4ad4:	48 8b 0d 00 00 00 00 	mov    0x0(%rip),%rcx        # 4adb <comp_delta_td_cost+0x43>
    4adb:	8b 45 dc             	mov    -0x24(%rbp),%eax
    4ade:	48 63 d0             	movslq %eax,%rdx
    4ae1:	48 89 d0             	mov    %rdx,%rax
    4ae4:	48 c1 e0 02          	shl    $0x2,%rax
    4ae8:	48 01 d0             	add    %rdx,%rax
    4aeb:	48 c1 e0 03          	shl    $0x3,%rax
    4aef:	48 01 c8             	add    %rcx,%rax
    4af2:	48 8b 40 10          	mov    0x10(%rax),%rax
    4af6:	8b 55 fc             	mov    -0x4(%rbp),%edx
    4af9:	48 63 d2             	movslq %edx,%rdx
    4afc:	48 c1 e2 02          	shl    $0x2,%rdx
    4b00:	48 01 d0             	add    %rdx,%rax
    4b03:	8b 00                	mov    (%rax),%eax
    4b05:	89 45 ec             	mov    %eax,-0x14(%rbp)
    4b08:	83 7d ec ff          	cmpl   $0xffffffff,-0x14(%rbp)
    4b0c:	0f 84 af 03 00 00    	je     4ec1 <comp_delta_td_cost+0x429>
    4b12:	48 8b 0d 00 00 00 00 	mov    0x0(%rip),%rcx        # 4b19 <comp_delta_td_cost+0x81>
    4b19:	8b 45 ec             	mov    -0x14(%rbp),%eax
    4b1c:	48 63 d0             	movslq %eax,%rdx
    4b1f:	48 89 d0             	mov    %rdx,%rax
    4b22:	48 c1 e0 02          	shl    $0x2,%rax
    4b26:	48 01 d0             	add    %rdx,%rax
    4b29:	48 c1 e0 03          	shl    $0x3,%rax
    4b2d:	48 01 c8             	add    %rcx,%rax
    4b30:	8b 40 20             	mov    0x20(%rax),%eax
    4b33:	85 c0                	test   %eax,%eax
    4b35:	0f 85 89 03 00 00    	jne    4ec4 <comp_delta_td_cost+0x42c>
    4b3b:	48 8b 05 00 00 00 00 	mov    0x0(%rip),%rax        # 4b42 <comp_delta_td_cost+0xaa>
    4b42:	8b 55 dc             	mov    -0x24(%rbp),%edx
    4b45:	48 63 d2             	movslq %edx,%rdx
    4b48:	48 c1 e2 03          	shl    $0x3,%rdx
    4b4c:	48 01 d0             	add    %rdx,%rax
    4b4f:	48 8b 00             	mov    (%rax),%rax
    4b52:	8b 55 fc             	mov    -0x4(%rbp),%edx
    4b55:	48 63 d2             	movslq %edx,%rdx
    4b58:	48 c1 e2 02          	shl    $0x2,%rdx
    4b5c:	48 01 d0             	add    %rdx,%rax
    4b5f:	8b 00                	mov    (%rax),%eax
    4b61:	89 45 e8             	mov    %eax,-0x18(%rbp)
    4b64:	83 7d e8 00          	cmpl   $0x0,-0x18(%rbp)
    4b68:	0f 84 bb 01 00 00    	je     4d29 <comp_delta_td_cost+0x291>
    4b6e:	48 8b 0d 00 00 00 00 	mov    0x0(%rip),%rcx        # 4b75 <comp_delta_td_cost+0xdd>
    4b75:	8b 45 ec             	mov    -0x14(%rbp),%eax
    4b78:	48 63 d0             	movslq %eax,%rdx
    4b7b:	48 89 d0             	mov    %rdx,%rax
    4b7e:	48 c1 e0 02          	shl    $0x2,%rax
    4b82:	48 01 d0             	add    %rdx,%rax
    4b85:	48 c1 e0 03          	shl    $0x3,%rax
    4b89:	48 01 c8             	add    %rcx,%rax
    4b8c:	48 8b 40 10          	mov    0x10(%rax),%rax
    4b90:	8b 00                	mov    (%rax),%eax
    4b92:	3b 45 d8             	cmp    -0x28(%rbp),%eax
    4b95:	0f 84 2a 03 00 00    	je     4ec5 <comp_delta_td_cost+0x42d>
    4b9b:	48 8b 0d 00 00 00 00 	mov    0x0(%rip),%rcx        # 4ba2 <comp_delta_td_cost+0x10a>
    4ba2:	8b 45 ec             	mov    -0x14(%rbp),%eax
    4ba5:	48 63 d0             	movslq %eax,%rdx
    4ba8:	48 89 d0             	mov    %rdx,%rax
    4bab:	48 c1 e0 02          	shl    $0x2,%rax
    4baf:	48 01 d0             	add    %rdx,%rax
    4bb2:	48 c1 e0 03          	shl    $0x3,%rax
    4bb6:	48 01 c8             	add    %rcx,%rax
    4bb9:	48 8b 40 10          	mov    0x10(%rax),%rax
    4bbd:	8b 00                	mov    (%rax),%eax
    4bbf:	3b 45 dc             	cmp    -0x24(%rbp),%eax
    4bc2:	0f 84 fd 02 00 00    	je     4ec5 <comp_delta_td_cost+0x42d>
    4bc8:	8b 55 e8             	mov    -0x18(%rbp),%edx
    4bcb:	8b 45 ec             	mov    -0x14(%rbp),%eax
    4bce:	89 d6                	mov    %edx,%esi
    4bd0:	89 c7                	mov    %eax,%edi
    4bd2:	e8 71 f5 ff ff       	callq  4148 <comp_td_point_to_point_delay>
    4bd7:	f3 0f 11 45 d0       	movss  %xmm0,-0x30(%rbp)
    4bdc:	8b 45 d0             	mov    -0x30(%rbp),%eax
    4bdf:	89 45 e4             	mov    %eax,-0x1c(%rbp)
    4be2:	48 8b 05 00 00 00 00 	mov    0x0(%rip),%rax        # 4be9 <comp_delta_td_cost+0x151>
    4be9:	8b 55 ec             	mov    -0x14(%rbp),%edx
    4bec:	48 63 d2             	movslq %edx,%rdx
    4bef:	48 c1 e2 03          	shl    $0x3,%rdx
    4bf3:	48 01 d0             	add    %rdx,%rax
    4bf6:	48 8b 00             	mov    (%rax),%rax
    4bf9:	8b 55 e8             	mov    -0x18(%rbp),%edx
    4bfc:	48 63 d2             	movslq %edx,%rdx
    4bff:	48 c1 e2 02          	shl    $0x2,%rdx
    4c03:	48 01 c2             	add    %rax,%rdx
    4c06:	8b 45 e4             	mov    -0x1c(%rbp),%eax
    4c09:	89 02                	mov    %eax,(%rdx)
    4c0b:	48 8b 05 00 00 00 00 	mov    0x0(%rip),%rax        # 4c12 <comp_delta_td_cost+0x17a>
    4c12:	8b 55 ec             	mov    -0x14(%rbp),%edx
    4c15:	48 63 d2             	movslq %edx,%rdx
    4c18:	48 c1 e2 03          	shl    $0x3,%rdx
    4c1c:	48 01 d0             	add    %rdx,%rax
    4c1f:	48 8b 00             	mov    (%rax),%rax
    4c22:	8b 55 e8             	mov    -0x18(%rbp),%edx
    4c25:	48 63 d2             	movslq %edx,%rdx
    4c28:	48 c1 e2 02          	shl    $0x2,%rdx
    4c2c:	48 01 d0             	add    %rdx,%rax
    4c2f:	48 8b 15 00 00 00 00 	mov    0x0(%rip),%rdx        # 4c36 <comp_delta_td_cost+0x19e>
    4c36:	8b 4d ec             	mov    -0x14(%rbp),%ecx
    4c39:	48 63 c9             	movslq %ecx,%rcx
    4c3c:	48 c1 e1 03          	shl    $0x3,%rcx
    4c40:	48 01 ca             	add    %rcx,%rdx
    4c43:	48 8b 12             	mov    (%rdx),%rdx
    4c46:	8b 4d e8             	mov    -0x18(%rbp),%ecx
    4c49:	48 63 c9             	movslq %ecx,%rcx
    4c4c:	48 c1 e1 02          	shl    $0x2,%rcx
    4c50:	48 01 ca             	add    %rcx,%rdx
    4c53:	f3 0f 10 02          	movss  (%rdx),%xmm0
    4c57:	f3 0f 59 45 e4       	mulss  -0x1c(%rbp),%xmm0
    4c5c:	f3 0f 11 00          	movss  %xmm0,(%rax)
    4c60:	48 8b 05 00 00 00 00 	mov    0x0(%rip),%rax        # 4c67 <comp_delta_td_cost+0x1cf>
    4c67:	8b 55 ec             	mov    -0x14(%rbp),%edx
    4c6a:	48 63 d2             	movslq %edx,%rdx
    4c6d:	48 c1 e2 03          	shl    $0x3,%rdx
    4c71:	48 01 d0             	add    %rdx,%rax
    4c74:	48 8b 00             	mov    (%rax),%rax
    4c77:	8b 55 e8             	mov    -0x18(%rbp),%edx
    4c7a:	48 63 d2             	movslq %edx,%rdx
    4c7d:	48 c1 e2 02          	shl    $0x2,%rdx
    4c81:	48 01 d0             	add    %rdx,%rax
    4c84:	f3 0f 10 00          	movss  (%rax),%xmm0
    4c88:	48 8b 05 00 00 00 00 	mov    0x0(%rip),%rax        # 4c8f <comp_delta_td_cost+0x1f7>
    4c8f:	8b 55 ec             	mov    -0x14(%rbp),%edx
    4c92:	48 63 d2             	movslq %edx,%rdx
    4c95:	48 c1 e2 03          	shl    $0x3,%rdx
    4c99:	48 01 d0             	add    %rdx,%rax
    4c9c:	48 8b 00             	mov    (%rax),%rax
    4c9f:	8b 55 e8             	mov    -0x18(%rbp),%edx
    4ca2:	48 63 d2             	movslq %edx,%rdx
    4ca5:	48 c1 e2 02          	shl    $0x2,%rdx
    4ca9:	48 01 d0             	add    %rdx,%rax
    4cac:	f3 0f 10 08          	movss  (%rax),%xmm1
    4cb0:	f3 0f 5c c1          	subss  %xmm1,%xmm0
    4cb4:	f3 0f 10 4d f0       	movss  -0x10(%rbp),%xmm1
    4cb9:	f3 0f 58 c1          	addss  %xmm1,%xmm0
    4cbd:	f3 0f 11 45 f0       	movss  %xmm0,-0x10(%rbp)
    4cc2:	48 8b 05 00 00 00 00 	mov    0x0(%rip),%rax        # 4cc9 <comp_delta_td_cost+0x231>
    4cc9:	8b 55 ec             	mov    -0x14(%rbp),%edx
    4ccc:	48 63 d2             	movslq %edx,%rdx
    4ccf:	48 c1 e2 03          	shl    $0x3,%rdx
    4cd3:	48 01 d0             	add    %rdx,%rax
    4cd6:	48 8b 00             	mov    (%rax),%rax
    4cd9:	8b 55 e8             	mov    -0x18(%rbp),%edx
    4cdc:	48 63 d2             	movslq %edx,%rdx
    4cdf:	48 c1 e2 02          	shl    $0x2,%rdx
    4ce3:	48 01 d0             	add    %rdx,%rax
    4ce6:	f3 0f 10 00          	movss  (%rax),%xmm0
    4cea:	48 8b 05 00 00 00 00 	mov    0x0(%rip),%rax        # 4cf1 <comp_delta_td_cost+0x259>
    4cf1:	8b 55 ec             	mov    -0x14(%rbp),%edx
    4cf4:	48 63 d2             	movslq %edx,%rdx
    4cf7:	48 c1 e2 03          	shl    $0x3,%rdx
    4cfb:	48 01 d0             	add    %rdx,%rax
    4cfe:	48 8b 00             	mov    (%rax),%rax
    4d01:	8b 55 e8             	mov    -0x18(%rbp),%edx
    4d04:	48 63 d2             	movslq %edx,%rdx
    4d07:	48 c1 e2 02          	shl    $0x2,%rdx
    4d0b:	48 01 d0             	add    %rdx,%rax
    4d0e:	f3 0f 10 08          	movss  (%rax),%xmm1
    4d12:	f3 0f 5c c1          	subss  %xmm1,%xmm0
    4d16:	f3 0f 10 4d f4       	movss  -0xc(%rbp),%xmm1
    4d1b:	f3 0f 58 c1          	addss  %xmm1,%xmm0
    4d1f:	f3 0f 11 45 f4       	movss  %xmm0,-0xc(%rbp)
    4d24:	e9 9c 01 00 00       	jmpq   4ec5 <comp_delta_td_cost+0x42d>
    4d29:	c7 45 f8 01 00 00 00 	movl   $0x1,-0x8(%rbp)
    4d30:	e9 60 01 00 00       	jmpq   4e95 <comp_delta_td_cost+0x3fd>
    4d35:	8b 55 f8             	mov    -0x8(%rbp),%edx
    4d38:	8b 45 ec             	mov    -0x14(%rbp),%eax
    4d3b:	89 d6                	mov    %edx,%esi
    4d3d:	89 c7                	mov    %eax,%edi
    4d3f:	e8 04 f4 ff ff       	callq  4148 <comp_td_point_to_point_delay>
    4d44:	f3 0f 11 45 d0       	movss  %xmm0,-0x30(%rbp)
    4d49:	8b 45 d0             	mov    -0x30(%rbp),%eax
    4d4c:	89 45 e4             	mov    %eax,-0x1c(%rbp)
    4d4f:	48 8b 05 00 00 00 00 	mov    0x0(%rip),%rax        # 4d56 <comp_delta_td_cost+0x2be>
    4d56:	8b 55 ec             	mov    -0x14(%rbp),%edx
    4d59:	48 63 d2             	movslq %edx,%rdx
    4d5c:	48 c1 e2 03          	shl    $0x3,%rdx
    4d60:	48 01 d0             	add    %rdx,%rax
    4d63:	48 8b 00             	mov    (%rax),%rax
    4d66:	8b 55 f8             	mov    -0x8(%rbp),%edx
    4d69:	48 63 d2             	movslq %edx,%rdx
    4d6c:	48 c1 e2 02          	shl    $0x2,%rdx
    4d70:	48 01 c2             	add    %rax,%rdx
    4d73:	8b 45 e4             	mov    -0x1c(%rbp),%eax
    4d76:	89 02                	mov    %eax,(%rdx)
    4d78:	48 8b 05 00 00 00 00 	mov    0x0(%rip),%rax        # 4d7f <comp_delta_td_cost+0x2e7>
    4d7f:	8b 55 ec             	mov    -0x14(%rbp),%edx
    4d82:	48 63 d2             	movslq %edx,%rdx
    4d85:	48 c1 e2 03          	shl    $0x3,%rdx
    4d89:	48 01 d0             	add    %rdx,%rax
    4d8c:	48 8b 00             	mov    (%rax),%rax
    4d8f:	8b 55 f8             	mov    -0x8(%rbp),%edx
    4d92:	48 63 d2             	movslq %edx,%rdx
    4d95:	48 c1 e2 02          	shl    $0x2,%rdx
    4d99:	48 01 d0             	add    %rdx,%rax
    4d9c:	48 8b 15 00 00 00 00 	mov    0x0(%rip),%rdx        # 4da3 <comp_delta_td_cost+0x30b>
    4da3:	8b 4d ec             	mov    -0x14(%rbp),%ecx
    4da6:	48 63 c9             	movslq %ecx,%rcx
    4da9:	48 c1 e1 03          	shl    $0x3,%rcx
    4dad:	48 01 ca             	add    %rcx,%rdx
    4db0:	48 8b 12             	mov    (%rdx),%rdx
    4db3:	8b 4d f8             	mov    -0x8(%rbp),%ecx
    4db6:	48 63 c9             	movslq %ecx,%rcx
    4db9:	48 c1 e1 02          	shl    $0x2,%rcx
    4dbd:	48 01 ca             	add    %rcx,%rdx
    4dc0:	f3 0f 10 02          	movss  (%rdx),%xmm0
    4dc4:	f3 0f 59 45 e4       	mulss  -0x1c(%rbp),%xmm0
    4dc9:	f3 0f 11 00          	movss  %xmm0,(%rax)
    4dcd:	48 8b 05 00 00 00 00 	mov    0x0(%rip),%rax        # 4dd4 <comp_delta_td_cost+0x33c>
    4dd4:	8b 55 ec             	mov    -0x14(%rbp),%edx
    4dd7:	48 63 d2             	movslq %edx,%rdx
    4dda:	48 c1 e2 03          	shl    $0x3,%rdx
    4dde:	48 01 d0             	add    %rdx,%rax
    4de1:	48 8b 00             	mov    (%rax),%rax
    4de4:	8b 55 f8             	mov    -0x8(%rbp),%edx
    4de7:	48 63 d2             	movslq %edx,%rdx
    4dea:	48 c1 e2 02          	shl    $0x2,%rdx
    4dee:	48 01 d0             	add    %rdx,%rax
    4df1:	f3 0f 10 00          	movss  (%rax),%xmm0
    4df5:	48 8b 05 00 00 00 00 	mov    0x0(%rip),%rax        # 4dfc <comp_delta_td_cost+0x364>
    4dfc:	8b 55 ec             	mov    -0x14(%rbp),%edx
    4dff:	48 63 d2             	movslq %edx,%rdx
    4e02:	48 c1 e2 03          	shl    $0x3,%rdx
    4e06:	48 01 d0             	add    %rdx,%rax
    4e09:	48 8b 00             	mov    (%rax),%rax
    4e0c:	8b 55 f8             	mov    -0x8(%rbp),%edx
    4e0f:	48 63 d2             	movslq %edx,%rdx
    4e12:	48 c1 e2 02          	shl    $0x2,%rdx
    4e16:	48 01 d0             	add    %rdx,%rax
    4e19:	f3 0f 10 08          	movss  (%rax),%xmm1
    4e1d:	f3 0f 5c c1          	subss  %xmm1,%xmm0
    4e21:	f3 0f 10 4d f0       	movss  -0x10(%rbp),%xmm1
    4e26:	f3 0f 58 c1          	addss  %xmm1,%xmm0
    4e2a:	f3 0f 11 45 f0       	movss  %xmm0,-0x10(%rbp)
    4e2f:	48 8b 05 00 00 00 00 	mov    0x0(%rip),%rax        # 4e36 <comp_delta_td_cost+0x39e>
    4e36:	8b 55 ec             	mov    -0x14(%rbp),%edx
    4e39:	48 63 d2             	movslq %edx,%rdx
    4e3c:	48 c1 e2 03          	shl    $0x3,%rdx
    4e40:	48 01 d0             	add    %rdx,%rax
    4e43:	48 8b 00             	mov    (%rax),%rax
    4e46:	8b 55 f8             	mov    -0x8(%rbp),%edx
    4e49:	48 63 d2             	movslq %edx,%rdx
    4e4c:	48 c1 e2 02          	shl    $0x2,%rdx
    4e50:	48 01 d0             	add    %rdx,%rax
    4e53:	f3 0f 10 00          	movss  (%rax),%xmm0
    4e57:	48 8b 05 00 00 00 00 	mov    0x0(%rip),%rax        # 4e5e <comp_delta_td_cost+0x3c6>
    4e5e:	8b 55 ec             	mov    -0x14(%rbp),%edx
    4e61:	48 63 d2             	movslq %edx,%rdx
    4e64:	48 c1 e2 03          	shl    $0x3,%rdx
    4e68:	48 01 d0             	add    %rdx,%rax
    4e6b:	48 8b 00             	mov    (%rax),%rax
    4e6e:	8b 55 f8             	mov    -0x8(%rbp),%edx
    4e71:	48 63 d2             	movslq %edx,%rdx
    4e74:	48 c1 e2 02          	shl    $0x2,%rdx
    4e78:	48 01 d0             	add    %rdx,%rax
    4e7b:	f3 0f 10 08          	movss  (%rax),%xmm1
    4e7f:	f3 0f 5c c1          	subss  %xmm1,%xmm0
    4e83:	f3 0f 10 4d f4       	movss  -0xc(%rbp),%xmm1
    4e88:	f3 0f 58 c1          	addss  %xmm1,%xmm0
    4e8c:	f3 0f 11 45 f4       	movss  %xmm0,-0xc(%rbp)
    4e91:	83 45 f8 01          	addl   $0x1,-0x8(%rbp)
    4e95:	48 8b 0d 00 00 00 00 	mov    0x0(%rip),%rcx        # 4e9c <comp_delta_td_cost+0x404>
    4e9c:	8b 45 ec             	mov    -0x14(%rbp),%eax
    4e9f:	48 63 d0             	movslq %eax,%rdx
    4ea2:	48 89 d0             	mov    %rdx,%rax
    4ea5:	48 c1 e0 02          	shl    $0x2,%rax
    4ea9:	48 01 d0             	add    %rdx,%rax
    4eac:	48 c1 e0 03          	shl    $0x3,%rax
    4eb0:	48 01 c8             	add    %rcx,%rax
    4eb3:	8b 40 08             	mov    0x8(%rax),%eax
    4eb6:	3b 45 f8             	cmp    -0x8(%rbp),%eax
    4eb9:	0f 8d 76 fe ff ff    	jge    4d35 <comp_delta_td_cost+0x29d>
    4ebf:	eb 04                	jmp    4ec5 <comp_delta_td_cost+0x42d>
    4ec1:	90                   	nop
    4ec2:	eb 01                	jmp    4ec5 <comp_delta_td_cost+0x42d>
    4ec4:	90                   	nop
    4ec5:	83 45 fc 01          	addl   $0x1,-0x4(%rbp)
    4ec9:	8b 45 fc             	mov    -0x4(%rbp),%eax
    4ecc:	3b 45 d4             	cmp    -0x2c(%rbp),%eax
    4ecf:	0f 8c ff fb ff ff    	jl     4ad4 <comp_delta_td_cost+0x3c>
    4ed5:	83 7d d8 ff          	cmpl   $0xffffffff,-0x28(%rbp)
    4ed9:	0f 84 0d 04 00 00    	je     52ec <comp_delta_td_cost+0x854>
    4edf:	c7 45 fc 00 00 00 00 	movl   $0x0,-0x4(%rbp)
    4ee6:	e9 f5 03 00 00       	jmpq   52e0 <comp_delta_td_cost+0x848>
    4eeb:	48 8b 0d 00 00 00 00 	mov    0x0(%rip),%rcx        # 4ef2 <comp_delta_td_cost+0x45a>
    4ef2:	8b 45 d8             	mov    -0x28(%rbp),%eax
    4ef5:	48 63 d0             	movslq %eax,%rdx
    4ef8:	48 89 d0             	mov    %rdx,%rax
    4efb:	48 c1 e0 02          	shl    $0x2,%rax
    4eff:	48 01 d0             	add    %rdx,%rax
    4f02:	48 c1 e0 03          	shl    $0x3,%rax
    4f06:	48 01 c8             	add    %rcx,%rax
    4f09:	48 8b 40 10          	mov    0x10(%rax),%rax
    4f0d:	8b 55 fc             	mov    -0x4(%rbp),%edx
    4f10:	48 63 d2             	movslq %edx,%rdx
    4f13:	48 c1 e2 02          	shl    $0x2,%rdx
    4f17:	48 01 d0             	add    %rdx,%rax
    4f1a:	8b 00                	mov    (%rax),%eax
    4f1c:	89 45 ec             	mov    %eax,-0x14(%rbp)
    4f1f:	83 7d ec ff          	cmpl   $0xffffffff,-0x14(%rbp)
    4f23:	0f 84 af 03 00 00    	je     52d8 <comp_delta_td_cost+0x840>
    4f29:	48 8b 0d 00 00 00 00 	mov    0x0(%rip),%rcx        # 4f30 <comp_delta_td_cost+0x498>
    4f30:	8b 45 ec             	mov    -0x14(%rbp),%eax
    4f33:	48 63 d0             	movslq %eax,%rdx
    4f36:	48 89 d0             	mov    %rdx,%rax
    4f39:	48 c1 e0 02          	shl    $0x2,%rax
    4f3d:	48 01 d0             	add    %rdx,%rax
    4f40:	48 c1 e0 03          	shl    $0x3,%rax
    4f44:	48 01 c8             	add    %rcx,%rax
    4f47:	8b 40 20             	mov    0x20(%rax),%eax
    4f4a:	85 c0                	test   %eax,%eax
    4f4c:	0f 85 89 03 00 00    	jne    52db <comp_delta_td_cost+0x843>
    4f52:	48 8b 05 00 00 00 00 	mov    0x0(%rip),%rax        # 4f59 <comp_delta_td_cost+0x4c1>
    4f59:	8b 55 d8             	mov    -0x28(%rbp),%edx
    4f5c:	48 63 d2             	movslq %edx,%rdx
    4f5f:	48 c1 e2 03          	shl    $0x3,%rdx
    4f63:	48 01 d0             	add    %rdx,%rax
    4f66:	48 8b 00             	mov    (%rax),%rax
    4f69:	8b 55 fc             	mov    -0x4(%rbp),%edx
    4f6c:	48 63 d2             	movslq %edx,%rdx
    4f6f:	48 c1 e2 02          	shl    $0x2,%rdx
    4f73:	48 01 d0             	add    %rdx,%rax
    4f76:	8b 00                	mov    (%rax),%eax
    4f78:	89 45 e8             	mov    %eax,-0x18(%rbp)
    4f7b:	83 7d e8 00          	cmpl   $0x0,-0x18(%rbp)
    4f7f:	0f 84 bb 01 00 00    	je     5140 <comp_delta_td_cost+0x6a8>
    4f85:	48 8b 0d 00 00 00 00 	mov    0x0(%rip),%rcx        # 4f8c <comp_delta_td_cost+0x4f4>
    4f8c:	8b 45 ec             	mov    -0x14(%rbp),%eax
    4f8f:	48 63 d0             	movslq %eax,%rdx
    4f92:	48 89 d0             	mov    %rdx,%rax
    4f95:	48 c1 e0 02          	shl    $0x2,%rax
    4f99:	48 01 d0             	add    %rdx,%rax
    4f9c:	48 c1 e0 03          	shl    $0x3,%rax
    4fa0:	48 01 c8             	add    %rcx,%rax
    4fa3:	48 8b 40 10          	mov    0x10(%rax),%rax
    4fa7:	8b 00                	mov    (%rax),%eax
    4fa9:	3b 45 d8             	cmp    -0x28(%rbp),%eax
    4fac:	0f 84 2a 03 00 00    	je     52dc <comp_delta_td_cost+0x844>
    4fb2:	48 8b 0d 00 00 00 00 	mov    0x0(%rip),%rcx        # 4fb9 <comp_delta_td_cost+0x521>
    4fb9:	8b 45 ec             	mov    -0x14(%rbp),%eax
    4fbc:	48 63 d0             	movslq %eax,%rdx
    4fbf:	48 89 d0             	mov    %rdx,%rax
    4fc2:	48 c1 e0 02          	shl    $0x2,%rax
    4fc6:	48 01 d0             	add    %rdx,%rax
    4fc9:	48 c1 e0 03          	shl    $0x3,%rax
    4fcd:	48 01 c8             	add    %rcx,%rax
    4fd0:	48 8b 40 10          	mov    0x10(%rax),%rax
    4fd4:	8b 00                	mov    (%rax),%eax
    4fd6:	3b 45 dc             	cmp    -0x24(%rbp),%eax
    4fd9:	0f 84 fd 02 00 00    	je     52dc <comp_delta_td_cost+0x844>
    4fdf:	8b 55 e8             	mov    -0x18(%rbp),%edx
    4fe2:	8b 45 ec             	mov    -0x14(%rbp),%eax
    4fe5:	89 d6                	mov    %edx,%esi
    4fe7:	89 c7                	mov    %eax,%edi
    4fe9:	e8 5a f1 ff ff       	callq  4148 <comp_td_point_to_point_delay>
    4fee:	f3 0f 11 45 d0       	movss  %xmm0,-0x30(%rbp)
    4ff3:	8b 45 d0             	mov    -0x30(%rbp),%eax
    4ff6:	89 45 e4             	mov    %eax,-0x1c(%rbp)
    4ff9:	48 8b 05 00 00 00 00 	mov    0x0(%rip),%rax        # 5000 <comp_delta_td_cost+0x568>
    5000:	8b 55 ec             	mov    -0x14(%rbp),%edx
    5003:	48 63 d2             	movslq %edx,%rdx
    5006:	48 c1 e2 03          	shl    $0x3,%rdx
    500a:	48 01 d0             	add    %rdx,%rax
    500d:	48 8b 00             	mov    (%rax),%rax
    5010:	8b 55 e8             	mov    -0x18(%rbp),%edx
    5013:	48 63 d2             	movslq %edx,%rdx
    5016:	48 c1 e2 02          	shl    $0x2,%rdx
    501a:	48 01 c2             	add    %rax,%rdx
    501d:	8b 45 e4             	mov    -0x1c(%rbp),%eax
    5020:	89 02                	mov    %eax,(%rdx)
    5022:	48 8b 05 00 00 00 00 	mov    0x0(%rip),%rax        # 5029 <comp_delta_td_cost+0x591>
    5029:	8b 55 ec             	mov    -0x14(%rbp),%edx
    502c:	48 63 d2             	movslq %edx,%rdx
    502f:	48 c1 e2 03          	shl    $0x3,%rdx
    5033:	48 01 d0             	add    %rdx,%rax
    5036:	48 8b 00             	mov    (%rax),%rax
    5039:	8b 55 e8             	mov    -0x18(%rbp),%edx
    503c:	48 63 d2             	movslq %edx,%rdx
    503f:	48 c1 e2 02          	shl    $0x2,%rdx
    5043:	48 01 d0             	add    %rdx,%rax
    5046:	48 8b 15 00 00 00 00 	mov    0x0(%rip),%rdx        # 504d <comp_delta_td_cost+0x5b5>
    504d:	8b 4d ec             	mov    -0x14(%rbp),%ecx
    5050:	48 63 c9             	movslq %ecx,%rcx
    5053:	48 c1 e1 03          	shl    $0x3,%rcx
    5057:	48 01 ca             	add    %rcx,%rdx
    505a:	48 8b 12             	mov    (%rdx),%rdx
    505d:	8b 4d e8             	mov    -0x18(%rbp),%ecx
    5060:	48 63 c9             	movslq %ecx,%rcx
    5063:	48 c1 e1 02          	shl    $0x2,%rcx
    5067:	48 01 ca             	add    %rcx,%rdx
    506a:	f3 0f 10 02          	movss  (%rdx),%xmm0
    506e:	f3 0f 59 45 e4       	mulss  -0x1c(%rbp),%xmm0
    5073:	f3 0f 11 00          	movss  %xmm0,(%rax)
    5077:	48 8b 05 00 00 00 00 	mov    0x0(%rip),%rax        # 507e <comp_delta_td_cost+0x5e6>
    507e:	8b 55 ec             	mov    -0x14(%rbp),%edx
    5081:	48 63 d2             	movslq %edx,%rdx
    5084:	48 c1 e2 03          	shl    $0x3,%rdx
    5088:	48 01 d0             	add    %rdx,%rax
    508b:	48 8b 00             	mov    (%rax),%rax
    508e:	8b 55 e8             	mov    -0x18(%rbp),%edx
    5091:	48 63 d2             	movslq %edx,%rdx
    5094:	48 c1 e2 02          	shl    $0x2,%rdx
    5098:	48 01 d0             	add    %rdx,%rax
    509b:	f3 0f 10 00          	movss  (%rax),%xmm0
    509f:	48 8b 05 00 00 00 00 	mov    0x0(%rip),%rax        # 50a6 <comp_delta_td_cost+0x60e>
    50a6:	8b 55 ec             	mov    -0x14(%rbp),%edx
    50a9:	48 63 d2             	movslq %edx,%rdx
    50ac:	48 c1 e2 03          	shl    $0x3,%rdx
    50b0:	48 01 d0             	add    %rdx,%rax
    50b3:	48 8b 00             	mov    (%rax),%rax
    50b6:	8b 55 e8             	mov    -0x18(%rbp),%edx
    50b9:	48 63 d2             	movslq %edx,%rdx
    50bc:	48 c1 e2 02          	shl    $0x2,%rdx
    50c0:	48 01 d0             	add    %rdx,%rax
    50c3:	f3 0f 10 08          	movss  (%rax),%xmm1
    50c7:	f3 0f 5c c1          	subss  %xmm1,%xmm0
    50cb:	f3 0f 10 4d f0       	movss  -0x10(%rbp),%xmm1
    50d0:	f3 0f 58 c1          	addss  %xmm1,%xmm0
    50d4:	f3 0f 11 45 f0       	movss  %xmm0,-0x10(%rbp)
    50d9:	48 8b 05 00 00 00 00 	mov    0x0(%rip),%rax        # 50e0 <comp_delta_td_cost+0x648>
    50e0:	8b 55 ec             	mov    -0x14(%rbp),%edx
    50e3:	48 63 d2             	movslq %edx,%rdx
    50e6:	48 c1 e2 03          	shl    $0x3,%rdx
    50ea:	48 01 d0             	add    %rdx,%rax
    50ed:	48 8b 00             	mov    (%rax),%rax
    50f0:	8b 55 e8             	mov    -0x18(%rbp),%edx
    50f3:	48 63 d2             	movslq %edx,%rdx
    50f6:	48 c1 e2 02          	shl    $0x2,%rdx
    50fa:	48 01 d0             	add    %rdx,%rax
    50fd:	f3 0f 10 00          	movss  (%rax),%xmm0
    5101:	48 8b 05 00 00 00 00 	mov    0x0(%rip),%rax        # 5108 <comp_delta_td_cost+0x670>
    5108:	8b 55 ec             	mov    -0x14(%rbp),%edx
    510b:	48 63 d2             	movslq %edx,%rdx
    510e:	48 c1 e2 03          	shl    $0x3,%rdx
    5112:	48 01 d0             	add    %rdx,%rax
    5115:	48 8b 00             	mov    (%rax),%rax
    5118:	8b 55 e8             	mov    -0x18(%rbp),%edx
    511b:	48 63 d2             	movslq %edx,%rdx
    511e:	48 c1 e2 02          	shl    $0x2,%rdx
    5122:	48 01 d0             	add    %rdx,%rax
    5125:	f3 0f 10 08          	movss  (%rax),%xmm1
    5129:	f3 0f 5c c1          	subss  %xmm1,%xmm0
    512d:	f3 0f 10 4d f4       	movss  -0xc(%rbp),%xmm1
    5132:	f3 0f 58 c1          	addss  %xmm1,%xmm0
    5136:	f3 0f 11 45 f4       	movss  %xmm0,-0xc(%rbp)
    513b:	e9 9c 01 00 00       	jmpq   52dc <comp_delta_td_cost+0x844>
    5140:	c7 45 f8 01 00 00 00 	movl   $0x1,-0x8(%rbp)
    5147:	e9 60 01 00 00       	jmpq   52ac <comp_delta_td_cost+0x814>
    514c:	8b 55 f8             	mov    -0x8(%rbp),%edx
    514f:	8b 45 ec             	mov    -0x14(%rbp),%eax
    5152:	89 d6                	mov    %edx,%esi
    5154:	89 c7                	mov    %eax,%edi
    5156:	e8 ed ef ff ff       	callq  4148 <comp_td_point_to_point_delay>
    515b:	f3 0f 11 45 d0       	movss  %xmm0,-0x30(%rbp)
    5160:	8b 45 d0             	mov    -0x30(%rbp),%eax
    5163:	89 45 e4             	mov    %eax,-0x1c(%rbp)
    5166:	48 8b 05 00 00 00 00 	mov    0x0(%rip),%rax        # 516d <comp_delta_td_cost+0x6d5>
    516d:	8b 55 ec             	mov    -0x14(%rbp),%edx
    5170:	48 63 d2             	movslq %edx,%rdx
    5173:	48 c1 e2 03          	shl    $0x3,%rdx
    5177:	48 01 d0             	add    %rdx,%rax
    517a:	48 8b 00             	mov    (%rax),%rax
    517d:	8b 55 f8             	mov    -0x8(%rbp),%edx
    5180:	48 63 d2             	movslq %edx,%rdx
    5183:	48 c1 e2 02          	shl    $0x2,%rdx
    5187:	48 01 c2             	add    %rax,%rdx
    518a:	8b 45 e4             	mov    -0x1c(%rbp),%eax
    518d:	89 02                	mov    %eax,(%rdx)
    518f:	48 8b 05 00 00 00 00 	mov    0x0(%rip),%rax        # 5196 <comp_delta_td_cost+0x6fe>
    5196:	8b 55 ec             	mov    -0x14(%rbp),%edx
    5199:	48 63 d2             	movslq %edx,%rdx
    519c:	48 c1 e2 03          	shl    $0x3,%rdx
    51a0:	48 01 d0             	add    %rdx,%rax
    51a3:	48 8b 00             	mov    (%rax),%rax
    51a6:	8b 55 f8             	mov    -0x8(%rbp),%edx
    51a9:	48 63 d2             	movslq %edx,%rdx
    51ac:	48 c1 e2 02          	shl    $0x2,%rdx
    51b0:	48 01 d0             	add    %rdx,%rax
    51b3:	48 8b 15 00 00 00 00 	mov    0x0(%rip),%rdx        # 51ba <comp_delta_td_cost+0x722>
    51ba:	8b 4d ec             	mov    -0x14(%rbp),%ecx
    51bd:	48 63 c9             	movslq %ecx,%rcx
    51c0:	48 c1 e1 03          	shl    $0x3,%rcx
    51c4:	48 01 ca             	add    %rcx,%rdx
    51c7:	48 8b 12             	mov    (%rdx),%rdx
    51ca:	8b 4d f8             	mov    -0x8(%rbp),%ecx
    51cd:	48 63 c9             	movslq %ecx,%rcx
    51d0:	48 c1 e1 02          	shl    $0x2,%rcx
    51d4:	48 01 ca             	add    %rcx,%rdx
    51d7:	f3 0f 10 02          	movss  (%rdx),%xmm0
    51db:	f3 0f 59 45 e4       	mulss  -0x1c(%rbp),%xmm0
    51e0:	f3 0f 11 00          	movss  %xmm0,(%rax)
    51e4:	48 8b 05 00 00 00 00 	mov    0x0(%rip),%rax        # 51eb <comp_delta_td_cost+0x753>
    51eb:	8b 55 ec             	mov    -0x14(%rbp),%edx
    51ee:	48 63 d2             	movslq %edx,%rdx
    51f1:	48 c1 e2 03          	shl    $0x3,%rdx
    51f5:	48 01 d0             	add    %rdx,%rax
    51f8:	48 8b 00             	mov    (%rax),%rax
    51fb:	8b 55 f8             	mov    -0x8(%rbp),%edx
    51fe:	48 63 d2             	movslq %edx,%rdx
    5201:	48 c1 e2 02          	shl    $0x2,%rdx
    5205:	48 01 d0             	add    %rdx,%rax
    5208:	f3 0f 10 00          	movss  (%rax),%xmm0
    520c:	48 8b 05 00 00 00 00 	mov    0x0(%rip),%rax        # 5213 <comp_delta_td_cost+0x77b>
    5213:	8b 55 ec             	mov    -0x14(%rbp),%edx
    5216:	48 63 d2             	movslq %edx,%rdx
    5219:	48 c1 e2 03          	shl    $0x3,%rdx
    521d:	48 01 d0             	add    %rdx,%rax
    5220:	48 8b 00             	mov    (%rax),%rax
    5223:	8b 55 f8             	mov    -0x8(%rbp),%edx
    5226:	48 63 d2             	movslq %edx,%rdx
    5229:	48 c1 e2 02          	shl    $0x2,%rdx
    522d:	48 01 d0             	add    %rdx,%rax
    5230:	f3 0f 10 08          	movss  (%rax),%xmm1
    5234:	f3 0f 5c c1          	subss  %xmm1,%xmm0
    5238:	f3 0f 10 4d f0       	movss  -0x10(%rbp),%xmm1
    523d:	f3 0f 58 c1          	addss  %xmm1,%xmm0
    5241:	f3 0f 11 45 f0       	movss  %xmm0,-0x10(%rbp)
    5246:	48 8b 05 00 00 00 00 	mov    0x0(%rip),%rax        # 524d <comp_delta_td_cost+0x7b5>
    524d:	8b 55 ec             	mov    -0x14(%rbp),%edx
    5250:	48 63 d2             	movslq %edx,%rdx
    5253:	48 c1 e2 03          	shl    $0x3,%rdx
    5257:	48 01 d0             	add    %rdx,%rax
    525a:	48 8b 00             	mov    (%rax),%rax
    525d:	8b 55 f8             	mov    -0x8(%rbp),%edx
    5260:	48 63 d2             	movslq %edx,%rdx
    5263:	48 c1 e2 02          	shl    $0x2,%rdx
    5267:	48 01 d0             	add    %rdx,%rax
    526a:	f3 0f 10 00          	movss  (%rax),%xmm0
    526e:	48 8b 05 00 00 00 00 	mov    0x0(%rip),%rax        # 5275 <comp_delta_td_cost+0x7dd>
    5275:	8b 55 ec             	mov    -0x14(%rbp),%edx
    5278:	48 63 d2             	movslq %edx,%rdx
    527b:	48 c1 e2 03          	shl    $0x3,%rdx
    527f:	48 01 d0             	add    %rdx,%rax
    5282:	48 8b 00             	mov    (%rax),%rax
    5285:	8b 55 f8             	mov    -0x8(%rbp),%edx
    5288:	48 63 d2             	movslq %edx,%rdx
    528b:	48 c1 e2 02          	shl    $0x2,%rdx
    528f:	48 01 d0             	add    %rdx,%rax
    5292:	f3 0f 10 08          	movss  (%rax),%xmm1
    5296:	f3 0f 5c c1          	subss  %xmm1,%xmm0
    529a:	f3 0f 10 4d f4       	movss  -0xc(%rbp),%xmm1
    529f:	f3 0f 58 c1          	addss  %xmm1,%xmm0
    52a3:	f3 0f 11 45 f4       	movss  %xmm0,-0xc(%rbp)
    52a8:	83 45 f8 01          	addl   $0x1,-0x8(%rbp)
    52ac:	48 8b 0d 00 00 00 00 	mov    0x0(%rip),%rcx        # 52b3 <comp_delta_td_cost+0x81b>
    52b3:	8b 45 ec             	mov    -0x14(%rbp),%eax
    52b6:	48 63 d0             	movslq %eax,%rdx
    52b9:	48 89 d0             	mov    %rdx,%rax
    52bc:	48 c1 e0 02          	shl    $0x2,%rax
    52c0:	48 01 d0             	add    %rdx,%rax
    52c3:	48 c1 e0 03          	shl    $0x3,%rax
    52c7:	48 01 c8             	add    %rcx,%rax
    52ca:	8b 40 08             	mov    0x8(%rax),%eax
    52cd:	3b 45 f8             	cmp    -0x8(%rbp),%eax
    52d0:	0f 8d 76 fe ff ff    	jge    514c <comp_delta_td_cost+0x6b4>
    52d6:	eb 04                	jmp    52dc <comp_delta_td_cost+0x844>
    52d8:	90                   	nop
    52d9:	eb 01                	jmp    52dc <comp_delta_td_cost+0x844>
    52db:	90                   	nop
    52dc:	83 45 fc 01          	addl   $0x1,-0x4(%rbp)
    52e0:	8b 45 fc             	mov    -0x4(%rbp),%eax
    52e3:	3b 45 d4             	cmp    -0x2c(%rbp),%eax
    52e6:	0f 8c ff fb ff ff    	jl     4eeb <comp_delta_td_cost+0x453>
    52ec:	48 8b 55 c8          	mov    -0x38(%rbp),%rdx
    52f0:	8b 45 f4             	mov    -0xc(%rbp),%eax
    52f3:	89 02                	mov    %eax,(%rdx)
    52f5:	48 8b 55 c0          	mov    -0x40(%rbp),%rdx
    52f9:	8b 45 f0             	mov    -0x10(%rbp),%eax
    52fc:	89 02                	mov    %eax,(%rdx)
    52fe:	c9                   	leaveq 
    52ff:	c3                   	retq   

0000000000005300 <comp_td_costs>:
    5300:	55                   	push   %rbp
    5301:	48 89 e5             	mov    %rsp,%rbp
    5304:	48 83 ec 40          	sub    $0x40,%rsp
    5308:	e8 00 00 00 00       	callq  530d <comp_td_costs+0xd>
    530d:	48 89 7d d8          	mov    %rdi,-0x28(%rbp)
    5311:	48 89 75 d0          	mov    %rsi,-0x30(%rbp)
    5315:	8b 05 00 00 00 00    	mov    0x0(%rip),%eax        # 531b <comp_td_costs+0x1b>
    531b:	89 45 f4             	mov    %eax,-0xc(%rbp)
    531e:	8b 05 00 00 00 00    	mov    0x0(%rip),%eax        # 5324 <comp_td_costs+0x24>
    5324:	89 45 f0             	mov    %eax,-0x10(%rbp)
    5327:	c7 45 fc 00 00 00 00 	movl   $0x0,-0x4(%rbp)
    532e:	e9 7b 01 00 00       	jmpq   54ae <comp_td_costs+0x1ae>
    5333:	48 8b 0d 00 00 00 00 	mov    0x0(%rip),%rcx        # 533a <comp_td_costs+0x3a>
    533a:	8b 45 fc             	mov    -0x4(%rbp),%eax
    533d:	48 63 d0             	movslq %eax,%rdx
    5340:	48 89 d0             	mov    %rdx,%rax
    5343:	48 c1 e0 02          	shl    $0x2,%rax
    5347:	48 01 d0             	add    %rdx,%rax
    534a:	48 c1 e0 03          	shl    $0x3,%rax
    534e:	48 01 c8             	add    %rcx,%rax
    5351:	8b 40 20             	mov    0x20(%rax),%eax
    5354:	85 c0                	test   %eax,%eax
    5356:	0f 85 4e 01 00 00    	jne    54aa <comp_td_costs+0x1aa>
    535c:	c7 45 f8 01 00 00 00 	movl   $0x1,-0x8(%rbp)
    5363:	e9 18 01 00 00       	jmpq   5480 <comp_td_costs+0x180>
    5368:	8b 55 f8             	mov    -0x8(%rbp),%edx
    536b:	8b 45 fc             	mov    -0x4(%rbp),%eax
    536e:	89 d6                	mov    %edx,%esi
    5370:	89 c7                	mov    %eax,%edi
    5372:	e8 d1 ed ff ff       	callq  4148 <comp_td_point_to_point_delay>
    5377:	f3 0f 11 45 cc       	movss  %xmm0,-0x34(%rbp)
    537c:	8b 45 cc             	mov    -0x34(%rbp),%eax
    537f:	89 45 ec             	mov    %eax,-0x14(%rbp)
    5382:	48 8b 05 00 00 00 00 	mov    0x0(%rip),%rax        # 5389 <comp_td_costs+0x89>
    5389:	8b 55 fc             	mov    -0x4(%rbp),%edx
    538c:	48 63 d2             	movslq %edx,%rdx
    538f:	48 c1 e2 03          	shl    $0x3,%rdx
    5393:	48 01 d0             	add    %rdx,%rax
    5396:	48 8b 00             	mov    (%rax),%rax
    5399:	8b 55 f8             	mov    -0x8(%rbp),%edx
    539c:	48 63 d2             	movslq %edx,%rdx
    539f:	48 c1 e2 02          	shl    $0x2,%rdx
    53a3:	48 01 d0             	add    %rdx,%rax
    53a6:	f3 0f 10 00          	movss  (%rax),%xmm0
    53aa:	f3 0f 59 45 ec       	mulss  -0x14(%rbp),%xmm0
    53af:	f3 0f 11 45 e8       	movss  %xmm0,-0x18(%rbp)
    53b4:	f3 0f 10 45 f0       	movss  -0x10(%rbp),%xmm0
    53b9:	f3 0f 58 45 ec       	addss  -0x14(%rbp),%xmm0
    53be:	f3 0f 11 45 f0       	movss  %xmm0,-0x10(%rbp)
    53c3:	48 8b 05 00 00 00 00 	mov    0x0(%rip),%rax        # 53ca <comp_td_costs+0xca>
    53ca:	8b 55 fc             	mov    -0x4(%rbp),%edx
    53cd:	48 63 d2             	movslq %edx,%rdx
    53d0:	48 c1 e2 03          	shl    $0x3,%rdx
    53d4:	48 01 d0             	add    %rdx,%rax
    53d7:	48 8b 00             	mov    (%rax),%rax
    53da:	8b 55 f8             	mov    -0x8(%rbp),%edx
    53dd:	48 63 d2             	movslq %edx,%rdx
    53e0:	48 c1 e2 02          	shl    $0x2,%rdx
    53e4:	48 01 c2             	add    %rax,%rdx
    53e7:	8b 45 ec             	mov    -0x14(%rbp),%eax
    53ea:	89 02                	mov    %eax,(%rdx)
    53ec:	48 8b 05 00 00 00 00 	mov    0x0(%rip),%rax        # 53f3 <comp_td_costs+0xf3>
    53f3:	8b 55 fc             	mov    -0x4(%rbp),%edx
    53f6:	48 63 d2             	movslq %edx,%rdx
    53f9:	48 c1 e2 03          	shl    $0x3,%rdx
    53fd:	48 01 d0             	add    %rdx,%rax
    5400:	48 8b 00             	mov    (%rax),%rax
    5403:	8b 55 f8             	mov    -0x8(%rbp),%edx
    5406:	48 63 d2             	movslq %edx,%rdx
    5409:	48 c1 e2 02          	shl    $0x2,%rdx
    540d:	48 01 c2             	add    %rax,%rdx
    5410:	8b 05 00 00 00 00    	mov    0x0(%rip),%eax        # 5416 <comp_td_costs+0x116>
    5416:	89 02                	mov    %eax,(%rdx)
    5418:	48 8b 05 00 00 00 00 	mov    0x0(%rip),%rax        # 541f <comp_td_costs+0x11f>
    541f:	8b 55 fc             	mov    -0x4(%rbp),%edx
    5422:	48 63 d2             	movslq %edx,%rdx
    5425:	48 c1 e2 03          	shl    $0x3,%rdx
    5429:	48 01 d0             	add    %rdx,%rax
    542c:	48 8b 00             	mov    (%rax),%rax
    542f:	8b 55 f8             	mov    -0x8(%rbp),%edx
    5432:	48 63 d2             	movslq %edx,%rdx
    5435:	48 c1 e2 02          	shl    $0x2,%rdx
    5439:	48 01 c2             	add    %rax,%rdx
    543c:	8b 45 e8             	mov    -0x18(%rbp),%eax
    543f:	89 02                	mov    %eax,(%rdx)
    5441:	48 8b 05 00 00 00 00 	mov    0x0(%rip),%rax        # 5448 <comp_td_costs+0x148>
    5448:	8b 55 fc             	mov    -0x4(%rbp),%edx
    544b:	48 63 d2             	movslq %edx,%rdx
    544e:	48 c1 e2 03          	shl    $0x3,%rdx
    5452:	48 01 d0             	add    %rdx,%rax
    5455:	48 8b 00             	mov    (%rax),%rax
    5458:	8b 55 f8             	mov    -0x8(%rbp),%edx
    545b:	48 63 d2             	movslq %edx,%rdx
    545e:	48 c1 e2 02          	shl    $0x2,%rdx
    5462:	48 01 c2             	add    %rax,%rdx
    5465:	8b 05 00 00 00 00    	mov    0x0(%rip),%eax        # 546b <comp_td_costs+0x16b>
    546b:	89 02                	mov    %eax,(%rdx)
    546d:	f3 0f 10 45 f4       	movss  -0xc(%rbp),%xmm0
    5472:	f3 0f 58 45 e8       	addss  -0x18(%rbp),%xmm0
    5477:	f3 0f 11 45 f4       	movss  %xmm0,-0xc(%rbp)
    547c:	83 45 f8 01          	addl   $0x1,-0x8(%rbp)
    5480:	48 8b 0d 00 00 00 00 	mov    0x0(%rip),%rcx        # 5487 <comp_td_costs+0x187>
    5487:	8b 45 fc             	mov    -0x4(%rbp),%eax
    548a:	48 63 d0             	movslq %eax,%rdx
    548d:	48 89 d0             	mov    %rdx,%rax
    5490:	48 c1 e0 02          	shl    $0x2,%rax
    5494:	48 01 d0             	add    %rdx,%rax
    5497:	48 c1 e0 03          	shl    $0x3,%rax
    549b:	48 01 c8             	add    %rcx,%rax
    549e:	8b 40 08             	mov    0x8(%rax),%eax
    54a1:	3b 45 f8             	cmp    -0x8(%rbp),%eax
    54a4:	0f 8d be fe ff ff    	jge    5368 <comp_td_costs+0x68>
    54aa:	83 45 fc 01          	addl   $0x1,-0x4(%rbp)
    54ae:	8b 05 00 00 00 00    	mov    0x0(%rip),%eax        # 54b4 <comp_td_costs+0x1b4>
    54b4:	39 45 fc             	cmp    %eax,-0x4(%rbp)
    54b7:	0f 8c 76 fe ff ff    	jl     5333 <comp_td_costs+0x33>
    54bd:	48 8b 55 d8          	mov    -0x28(%rbp),%rdx
    54c1:	8b 45 f4             	mov    -0xc(%rbp),%eax
    54c4:	89 02                	mov    %eax,(%rdx)
    54c6:	48 8b 55 d0          	mov    -0x30(%rbp),%rdx
    54ca:	8b 45 f0             	mov    -0x10(%rbp),%eax
    54cd:	89 02                	mov    %eax,(%rdx)
    54cf:	c9                   	leaveq 
    54d0:	c3                   	retq   

00000000000054d1 <comp_bb_cost>:
    54d1:	55                   	push   %rbp
    54d2:	48 89 e5             	mov    %rsp,%rbp
    54d5:	53                   	push   %rbx
    54d6:	48 83 ec 48          	sub    $0x48,%rsp
    54da:	e8 00 00 00 00       	callq  54df <comp_bb_cost+0xe>
    54df:	89 7d cc             	mov    %edi,-0x34(%rbp)
    54e2:	89 75 c8             	mov    %esi,-0x38(%rbp)
    54e5:	89 55 c4             	mov    %edx,-0x3c(%rbp)
    54e8:	8b 05 00 00 00 00    	mov    0x0(%rip),%eax        # 54ee <comp_bb_cost+0x1d>
    54ee:	89 45 e0             	mov    %eax,-0x20(%rbp)
    54f1:	b8 00 00 00 00       	mov    $0x0,%eax
    54f6:	48 89 45 d8          	mov    %rax,-0x28(%rbp)
    54fa:	83 7d c8 01          	cmpl   $0x1,-0x38(%rbp)
    54fe:	0f 85 84 00 00 00    	jne    5588 <comp_bb_cost+0xb7>
    5504:	c7 45 ec 00 00 00 00 	movl   $0x0,-0x14(%rbp)
    550b:	eb 73                	jmp    5580 <comp_bb_cost+0xaf>
    550d:	c7 45 e8 00 00 00 00 	movl   $0x0,-0x18(%rbp)
    5514:	eb 5e                	jmp    5574 <comp_bb_cost+0xa3>
    5516:	48 8b 05 00 00 00 00 	mov    0x0(%rip),%rax        # 551d <comp_bb_cost+0x4c>
    551d:	8b 55 ec             	mov    -0x14(%rbp),%edx
    5520:	48 63 d2             	movslq %edx,%rdx
    5523:	48 c1 e2 03          	shl    $0x3,%rdx
    5527:	48 01 d0             	add    %rdx,%rax
    552a:	48 8b 00             	mov    (%rax),%rax
    552d:	8b 55 e8             	mov    -0x18(%rbp),%edx
    5530:	48 63 d2             	movslq %edx,%rdx
    5533:	48 c1 e2 04          	shl    $0x4,%rdx
    5537:	48 01 c2             	add    %rax,%rdx
    553a:	8b 05 00 00 00 00    	mov    0x0(%rip),%eax        # 5540 <comp_bb_cost+0x6f>
    5540:	89 42 08             	mov    %eax,0x8(%rdx)
    5543:	48 8b 05 00 00 00 00 	mov    0x0(%rip),%rax        # 554a <comp_bb_cost+0x79>
    554a:	8b 55 ec             	mov    -0x14(%rbp),%edx
    554d:	48 63 d2             	movslq %edx,%rdx
    5550:	48 c1 e2 03          	shl    $0x3,%rdx
    5554:	48 01 d0             	add    %rdx,%rax
    5557:	48 8b 00             	mov    (%rax),%rax
    555a:	8b 55 e8             	mov    -0x18(%rbp),%edx
    555d:	48 63 d2             	movslq %edx,%rdx
    5560:	48 c1 e2 04          	shl    $0x4,%rdx
    5564:	48 01 c2             	add    %rax,%rdx
    5567:	8b 05 00 00 00 00    	mov    0x0(%rip),%eax        # 556d <comp_bb_cost+0x9c>
    556d:	89 42 08             	mov    %eax,0x8(%rdx)
    5570:	83 45 e8 01          	addl   $0x1,-0x18(%rbp)
    5574:	8b 45 e8             	mov    -0x18(%rbp),%eax
    5577:	3b 45 c4             	cmp    -0x3c(%rbp),%eax
    557a:	7c 9a                	jl     5516 <comp_bb_cost+0x45>
    557c:	83 45 ec 01          	addl   $0x1,-0x14(%rbp)
    5580:	8b 45 ec             	mov    -0x14(%rbp),%eax
    5583:	3b 45 c4             	cmp    -0x3c(%rbp),%eax
    5586:	7c 85                	jl     550d <comp_bb_cost+0x3c>
    5588:	c7 45 e4 00 00 00 00 	movl   $0x0,-0x1c(%rbp)
    558f:	e9 81 01 00 00       	jmpq   5715 <comp_bb_cost+0x244>
    5594:	48 8b 0d 00 00 00 00 	mov    0x0(%rip),%rcx        # 559b <comp_bb_cost+0xca>
    559b:	8b 45 e4             	mov    -0x1c(%rbp),%eax
    559e:	48 63 d0             	movslq %eax,%rdx
    55a1:	48 89 d0             	mov    %rdx,%rax
    55a4:	48 c1 e0 02          	shl    $0x2,%rax
    55a8:	48 01 d0             	add    %rdx,%rax
    55ab:	48 c1 e0 03          	shl    $0x3,%rax
    55af:	48 01 c8             	add    %rcx,%rax
    55b2:	8b 40 20             	mov    0x20(%rax),%eax
    55b5:	85 c0                	test   %eax,%eax
    55b7:	0f 85 54 01 00 00    	jne    5711 <comp_bb_cost+0x240>
    55bd:	48 8b 0d 00 00 00 00 	mov    0x0(%rip),%rcx        # 55c4 <comp_bb_cost+0xf3>
    55c4:	8b 45 e4             	mov    -0x1c(%rbp),%eax
    55c7:	48 63 d0             	movslq %eax,%rdx
    55ca:	48 89 d0             	mov    %rdx,%rax
    55cd:	48 c1 e0 02          	shl    $0x2,%rax
    55d1:	48 01 d0             	add    %rdx,%rax
    55d4:	48 c1 e0 03          	shl    $0x3,%rax
    55d8:	48 01 c8             	add    %rcx,%rax
    55db:	8b 40 08             	mov    0x8(%rax),%eax
    55de:	83 f8 03             	cmp    $0x3,%eax
    55e1:	7e 3d                	jle    5620 <comp_bb_cost+0x14f>
    55e3:	83 7d cc 00          	cmpl   $0x0,-0x34(%rbp)
    55e7:	75 37                	jne    5620 <comp_bb_cost+0x14f>
    55e9:	48 8b 05 00 00 00 00 	mov    0x0(%rip),%rax        # 55f0 <comp_bb_cost+0x11f>
    55f0:	8b 55 e4             	mov    -0x1c(%rbp),%edx
    55f3:	48 63 d2             	movslq %edx,%rdx
    55f6:	48 c1 e2 04          	shl    $0x4,%rdx
    55fa:	48 01 c2             	add    %rax,%rdx
    55fd:	48 8b 05 00 00 00 00 	mov    0x0(%rip),%rax        # 5604 <comp_bb_cost+0x133>
    5604:	8b 4d e4             	mov    -0x1c(%rbp),%ecx
    5607:	48 63 c9             	movslq %ecx,%rcx
    560a:	48 c1 e1 04          	shl    $0x4,%rcx
    560e:	48 01 c1             	add    %rax,%rcx
    5611:	8b 45 e4             	mov    -0x1c(%rbp),%eax
    5614:	48 89 ce             	mov    %rcx,%rsi
    5617:	89 c7                	mov    %eax,%edi
    5619:	e8 b2 1d 00 00       	callq  73d0 <get_bb_from_scratch>
    561e:	eb 21                	jmp    5641 <comp_bb_cost+0x170>
    5620:	48 8b 05 00 00 00 00 	mov    0x0(%rip),%rax        # 5627 <comp_bb_cost+0x156>
    5627:	8b 55 e4             	mov    -0x1c(%rbp),%edx
    562a:	48 63 d2             	movslq %edx,%rdx
    562d:	48 c1 e2 04          	shl    $0x4,%rdx
    5631:	48 01 c2             	add    %rax,%rdx
    5634:	8b 45 e4             	mov    -0x1c(%rbp),%eax
    5637:	48 89 d6             	mov    %rdx,%rsi
    563a:	89 c7                	mov    %eax,%edi
    563c:	e8 54 24 00 00       	callq  7a95 <get_non_updateable_bb>
    5641:	83 7d c8 01          	cmpl   $0x1,-0x38(%rbp)
    5645:	0f 84 9d 00 00 00    	je     56e8 <comp_bb_cost+0x217>
    564b:	48 8b 05 00 00 00 00 	mov    0x0(%rip),%rax        # 5652 <comp_bb_cost+0x181>
    5652:	8b 55 e4             	mov    -0x1c(%rbp),%edx
    5655:	48 63 d2             	movslq %edx,%rdx
    5658:	48 c1 e2 02          	shl    $0x2,%rdx
    565c:	48 8d 1c 10          	lea    (%rax,%rdx,1),%rbx
    5660:	48 8b 05 00 00 00 00 	mov    0x0(%rip),%rax        # 5667 <comp_bb_cost+0x196>
    5667:	8b 55 e4             	mov    -0x1c(%rbp),%edx
    566a:	48 63 d2             	movslq %edx,%rdx
    566d:	48 c1 e2 04          	shl    $0x4,%rdx
    5671:	48 01 c2             	add    %rax,%rdx
    5674:	8b 45 e4             	mov    -0x1c(%rbp),%eax
    5677:	48 89 d6             	mov    %rdx,%rsi
    567a:	89 c7                	mov    %eax,%edi
    567c:	e8 91 22 00 00       	callq  7912 <get_net_cost>
    5681:	f3 0f 11 45 c0       	movss  %xmm0,-0x40(%rbp)
    5686:	8b 45 c0             	mov    -0x40(%rbp),%eax
    5689:	89 03                	mov    %eax,(%rbx)
    568b:	48 8b 05 00 00 00 00 	mov    0x0(%rip),%rax        # 5692 <comp_bb_cost+0x1c1>
    5692:	8b 55 e4             	mov    -0x1c(%rbp),%edx
    5695:	48 63 d2             	movslq %edx,%rdx
    5698:	48 c1 e2 02          	shl    $0x2,%rdx
    569c:	48 01 d0             	add    %rdx,%rax
    569f:	f3 0f 10 00          	movss  (%rax),%xmm0
    56a3:	f3 0f 10 4d e0       	movss  -0x20(%rbp),%xmm1
    56a8:	f3 0f 58 c1          	addss  %xmm1,%xmm0
    56ac:	f3 0f 11 45 e0       	movss  %xmm0,-0x20(%rbp)
    56b1:	83 7d cc 01          	cmpl   $0x1,-0x34(%rbp)
    56b5:	75 5a                	jne    5711 <comp_bb_cost+0x240>
    56b7:	48 8b 05 00 00 00 00 	mov    0x0(%rip),%rax        # 56be <comp_bb_cost+0x1ed>
    56be:	8b 55 e4             	mov    -0x1c(%rbp),%edx
    56c1:	48 63 d2             	movslq %edx,%rdx
    56c4:	48 c1 e2 04          	shl    $0x4,%rdx
    56c8:	48 01 c2             	add    %rax,%rdx
    56cb:	8b 45 e4             	mov    -0x1c(%rbp),%eax
    56ce:	48 89 d6             	mov    %rdx,%rsi
    56d1:	89 c7                	mov    %eax,%edi
    56d3:	e8 1a 20 00 00       	callq  76f2 <get_net_wirelength_estimate>
    56d8:	f2 0f 10 4d d8       	movsd  -0x28(%rbp),%xmm1
    56dd:	f2 0f 58 c1          	addsd  %xmm1,%xmm0
    56e1:	f2 0f 11 45 d8       	movsd  %xmm0,-0x28(%rbp)
    56e6:	eb 29                	jmp    5711 <comp_bb_cost+0x240>
    56e8:	48 8b 05 00 00 00 00 	mov    0x0(%rip),%rax        # 56ef <comp_bb_cost+0x21e>
    56ef:	8b 55 e4             	mov    -0x1c(%rbp),%edx
    56f2:	48 63 d2             	movslq %edx,%rdx
    56f5:	48 c1 e2 04          	shl    $0x4,%rdx
    56f9:	48 8d 34 10          	lea    (%rax,%rdx,1),%rsi
    56fd:	8b 55 c4             	mov    -0x3c(%rbp),%edx
    5700:	8b 45 e4             	mov    -0x1c(%rbp),%eax
    5703:	89 d1                	mov    %edx,%ecx
    5705:	ba 01 00 00 00       	mov    $0x1,%edx
    570a:	89 c7                	mov    %eax,%edi
    570c:	e8 1e 03 00 00       	callq  5a2f <update_region_occ>
    5711:	83 45 e4 01          	addl   $0x1,-0x1c(%rbp)
    5715:	8b 05 00 00 00 00    	mov    0x0(%rip),%eax        # 571b <comp_bb_cost+0x24a>
    571b:	39 45 e4             	cmp    %eax,-0x1c(%rbp)
    571e:	0f 8c 70 fe ff ff    	jl     5594 <comp_bb_cost+0xc3>
    5724:	83 7d c8 01          	cmpl   $0x1,-0x38(%rbp)
    5728:	75 15                	jne    573f <comp_bb_cost+0x26e>
    572a:	8b 45 c4             	mov    -0x3c(%rbp),%eax
    572d:	89 c7                	mov    %eax,%edi
    572f:	e8 3f 00 00 00       	callq  5773 <nonlinear_cong_cost>
    5734:	f3 0f 11 45 c0       	movss  %xmm0,-0x40(%rbp)
    5739:	8b 45 c0             	mov    -0x40(%rbp),%eax
    573c:	89 45 e0             	mov    %eax,-0x20(%rbp)
    573f:	83 7d cc 01          	cmpl   $0x1,-0x34(%rbp)
    5743:	75 1c                	jne    5761 <comp_bb_cost+0x290>
    5745:	48 8b 45 d8          	mov    -0x28(%rbp),%rax
    5749:	48 89 45 b8          	mov    %rax,-0x48(%rbp)
    574d:	f2 0f 10 45 b8       	movsd  -0x48(%rbp),%xmm0
    5752:	bf 00 00 00 00       	mov    $0x0,%edi
    5757:	b8 01 00 00 00       	mov    $0x1,%eax
    575c:	e8 00 00 00 00       	callq  5761 <comp_bb_cost+0x290>
    5761:	8b 45 e0             	mov    -0x20(%rbp),%eax
    5764:	89 45 c0             	mov    %eax,-0x40(%rbp)
    5767:	f3 0f 10 45 c0       	movss  -0x40(%rbp),%xmm0
    576c:	48 83 c4 48          	add    $0x48,%rsp
    5770:	5b                   	pop    %rbx
    5771:	5d                   	pop    %rbp
    5772:	c3                   	retq   

0000000000005773 <nonlinear_cong_cost>:
    5773:	55                   	push   %rbp
    5774:	48 89 e5             	mov    %rsp,%rbp
    5777:	48 83 ec 18          	sub    $0x18,%rsp
    577b:	e8 00 00 00 00       	callq  5780 <nonlinear_cong_cost+0xd>
    5780:	89 7d ec             	mov    %edi,-0x14(%rbp)
    5783:	8b 05 00 00 00 00    	mov    0x0(%rip),%eax        # 5789 <nonlinear_cong_cost+0x16>
    5789:	89 45 fc             	mov    %eax,-0x4(%rbp)
    578c:	c7 45 f8 00 00 00 00 	movl   $0x0,-0x8(%rbp)
    5793:	e9 7e 02 00 00       	jmpq   5a16 <nonlinear_cong_cost+0x2a3>
    5798:	c7 45 f4 00 00 00 00 	movl   $0x0,-0xc(%rbp)
    579f:	e9 62 02 00 00       	jmpq   5a06 <nonlinear_cong_cost+0x293>
    57a4:	48 8b 05 00 00 00 00 	mov    0x0(%rip),%rax        # 57ab <nonlinear_cong_cost+0x38>
    57ab:	8b 55 f8             	mov    -0x8(%rbp),%edx
    57ae:	48 63 d2             	movslq %edx,%rdx
    57b1:	48 c1 e2 03          	shl    $0x3,%rdx
    57b5:	48 01 d0             	add    %rdx,%rax
    57b8:	48 8b 00             	mov    (%rax),%rax
    57bb:	8b 55 f4             	mov    -0xc(%rbp),%edx
    57be:	48 63 d2             	movslq %edx,%rdx
    57c1:	48 c1 e2 04          	shl    $0x4,%rdx
    57c5:	48 01 d0             	add    %rdx,%rax
    57c8:	f3 0f 10 48 08       	movss  0x8(%rax),%xmm1
    57cd:	48 8b 05 00 00 00 00 	mov    0x0(%rip),%rax        # 57d4 <nonlinear_cong_cost+0x61>
    57d4:	8b 55 f8             	mov    -0x8(%rbp),%edx
    57d7:	48 63 d2             	movslq %edx,%rdx
    57da:	48 c1 e2 03          	shl    $0x3,%rdx
    57de:	48 01 d0             	add    %rdx,%rax
    57e1:	48 8b 00             	mov    (%rax),%rax
    57e4:	8b 55 f4             	mov    -0xc(%rbp),%edx
    57e7:	48 63 d2             	movslq %edx,%rdx
    57ea:	48 c1 e2 04          	shl    $0x4,%rdx
    57ee:	48 01 d0             	add    %rdx,%rax
    57f1:	f3 0f 10 00          	movss  (%rax),%xmm0
    57f5:	0f 2e c1             	ucomiss %xmm1,%xmm0
    57f8:	76 66                	jbe    5860 <nonlinear_cong_cost+0xed>
    57fa:	48 8b 05 00 00 00 00 	mov    0x0(%rip),%rax        # 5801 <nonlinear_cong_cost+0x8e>
    5801:	8b 55 f8             	mov    -0x8(%rbp),%edx
    5804:	48 63 d2             	movslq %edx,%rdx
    5807:	48 c1 e2 03          	shl    $0x3,%rdx
    580b:	48 01 d0             	add    %rdx,%rax
    580e:	48 8b 00             	mov    (%rax),%rax
    5811:	8b 55 f4             	mov    -0xc(%rbp),%edx
    5814:	48 63 d2             	movslq %edx,%rdx
    5817:	48 c1 e2 04          	shl    $0x4,%rdx
    581b:	48 01 d0             	add    %rdx,%rax
    581e:	f3 0f 10 48 08       	movss  0x8(%rax),%xmm1
    5823:	48 8b 05 00 00 00 00 	mov    0x0(%rip),%rax        # 582a <nonlinear_cong_cost+0xb7>
    582a:	8b 55 f8             	mov    -0x8(%rbp),%edx
    582d:	48 63 d2             	movslq %edx,%rdx
    5830:	48 c1 e2 03          	shl    $0x3,%rdx
    5834:	48 01 d0             	add    %rdx,%rax
    5837:	48 8b 00             	mov    (%rax),%rax
    583a:	8b 55 f4             	mov    -0xc(%rbp),%edx
    583d:	48 63 d2             	movslq %edx,%rdx
    5840:	48 c1 e2 04          	shl    $0x4,%rdx
    5844:	48 01 d0             	add    %rdx,%rax
    5847:	f3 0f 10 40 04       	movss  0x4(%rax),%xmm0
    584c:	f3 0f 59 c1          	mulss  %xmm1,%xmm0
    5850:	f3 0f 10 4d fc       	movss  -0x4(%rbp),%xmm1
    5855:	f3 0f 58 c1          	addss  %xmm1,%xmm0
    5859:	f3 0f 11 45 fc       	movss  %xmm0,-0x4(%rbp)
    585e:	eb 73                	jmp    58d3 <nonlinear_cong_cost+0x160>
    5860:	48 8b 05 00 00 00 00 	mov    0x0(%rip),%rax        # 5867 <nonlinear_cong_cost+0xf4>
    5867:	8b 55 f8             	mov    -0x8(%rbp),%edx
    586a:	48 63 d2             	movslq %edx,%rdx
    586d:	48 c1 e2 03          	shl    $0x3,%rdx
    5871:	48 01 d0             	add    %rdx,%rax
    5874:	48 8b 00             	mov    (%rax),%rax
    5877:	8b 55 f4             	mov    -0xc(%rbp),%edx
    587a:	48 63 d2             	movslq %edx,%rdx
    587d:	48 c1 e2 04          	shl    $0x4,%rdx
    5881:	48 01 d0             	add    %rdx,%rax
    5884:	f3 0f 10 48 08       	movss  0x8(%rax),%xmm1
    5889:	48 8b 05 00 00 00 00 	mov    0x0(%rip),%rax        # 5890 <nonlinear_cong_cost+0x11d>
    5890:	8b 55 f8             	mov    -0x8(%rbp),%edx
    5893:	48 63 d2             	movslq %edx,%rdx
    5896:	48 c1 e2 03          	shl    $0x3,%rdx
    589a:	48 01 d0             	add    %rdx,%rax
    589d:	48 8b 00             	mov    (%rax),%rax
    58a0:	8b 55 f4             	mov    -0xc(%rbp),%edx
    58a3:	48 63 d2             	movslq %edx,%rdx
    58a6:	48 c1 e2 04          	shl    $0x4,%rdx
    58aa:	48 01 d0             	add    %rdx,%rax
    58ad:	f3 0f 10 40 04       	movss  0x4(%rax),%xmm0
    58b2:	f3 0f 59 c1          	mulss  %xmm1,%xmm0
    58b6:	f3 0f 11 45 f0       	movss  %xmm0,-0x10(%rbp)
    58bb:	f3 0f 10 45 f0       	movss  -0x10(%rbp),%xmm0
    58c0:	f3 0f 59 45 f0       	mulss  -0x10(%rbp),%xmm0
    58c5:	f3 0f 10 4d fc       	movss  -0x4(%rbp),%xmm1
    58ca:	f3 0f 58 c1          	addss  %xmm1,%xmm0
    58ce:	f3 0f 11 45 fc       	movss  %xmm0,-0x4(%rbp)
    58d3:	48 8b 05 00 00 00 00 	mov    0x0(%rip),%rax        # 58da <nonlinear_cong_cost+0x167>
    58da:	8b 55 f8             	mov    -0x8(%rbp),%edx
    58dd:	48 63 d2             	movslq %edx,%rdx
    58e0:	48 c1 e2 03          	shl    $0x3,%rdx
    58e4:	48 01 d0             	add    %rdx,%rax
    58e7:	48 8b 00             	mov    (%rax),%rax
    58ea:	8b 55 f4             	mov    -0xc(%rbp),%edx
    58ed:	48 63 d2             	movslq %edx,%rdx
    58f0:	48 c1 e2 04          	shl    $0x4,%rdx
    58f4:	48 01 d0             	add    %rdx,%rax
    58f7:	f3 0f 10 48 08       	movss  0x8(%rax),%xmm1
    58fc:	48 8b 05 00 00 00 00 	mov    0x0(%rip),%rax        # 5903 <nonlinear_cong_cost+0x190>
    5903:	8b 55 f8             	mov    -0x8(%rbp),%edx
    5906:	48 63 d2             	movslq %edx,%rdx
    5909:	48 c1 e2 03          	shl    $0x3,%rdx
    590d:	48 01 d0             	add    %rdx,%rax
    5910:	48 8b 00             	mov    (%rax),%rax
    5913:	8b 55 f4             	mov    -0xc(%rbp),%edx
    5916:	48 63 d2             	movslq %edx,%rdx
    5919:	48 c1 e2 04          	shl    $0x4,%rdx
    591d:	48 01 d0             	add    %rdx,%rax
    5920:	f3 0f 10 00          	movss  (%rax),%xmm0
    5924:	0f 2e c1             	ucomiss %xmm1,%xmm0
    5927:	76 66                	jbe    598f <nonlinear_cong_cost+0x21c>
    5929:	48 8b 05 00 00 00 00 	mov    0x0(%rip),%rax        # 5930 <nonlinear_cong_cost+0x1bd>
    5930:	8b 55 f8             	mov    -0x8(%rbp),%edx
    5933:	48 63 d2             	movslq %edx,%rdx
    5936:	48 c1 e2 03          	shl    $0x3,%rdx
    593a:	48 01 d0             	add    %rdx,%rax
    593d:	48 8b 00             	mov    (%rax),%rax
    5940:	8b 55 f4             	mov    -0xc(%rbp),%edx
    5943:	48 63 d2             	movslq %edx,%rdx
    5946:	48 c1 e2 04          	shl    $0x4,%rdx
    594a:	48 01 d0             	add    %rdx,%rax
    594d:	f3 0f 10 48 08       	movss  0x8(%rax),%xmm1
    5952:	48 8b 05 00 00 00 00 	mov    0x0(%rip),%rax        # 5959 <nonlinear_cong_cost+0x1e6>
    5959:	8b 55 f8             	mov    -0x8(%rbp),%edx
    595c:	48 63 d2             	movslq %edx,%rdx
    595f:	48 c1 e2 03          	shl    $0x3,%rdx
    5963:	48 01 d0             	add    %rdx,%rax
    5966:	48 8b 00             	mov    (%rax),%rax
    5969:	8b 55 f4             	mov    -0xc(%rbp),%edx
    596c:	48 63 d2             	movslq %edx,%rdx
    596f:	48 c1 e2 04          	shl    $0x4,%rdx
    5973:	48 01 d0             	add    %rdx,%rax
    5976:	f3 0f 10 40 04       	movss  0x4(%rax),%xmm0
    597b:	f3 0f 59 c1          	mulss  %xmm1,%xmm0
    597f:	f3 0f 10 4d fc       	movss  -0x4(%rbp),%xmm1
    5984:	f3 0f 58 c1          	addss  %xmm1,%xmm0
    5988:	f3 0f 11 45 fc       	movss  %xmm0,-0x4(%rbp)
    598d:	eb 73                	jmp    5a02 <nonlinear_cong_cost+0x28f>
    598f:	48 8b 05 00 00 00 00 	mov    0x0(%rip),%rax        # 5996 <nonlinear_cong_cost+0x223>
    5996:	8b 55 f8             	mov    -0x8(%rbp),%edx
    5999:	48 63 d2             	movslq %edx,%rdx
    599c:	48 c1 e2 03          	shl    $0x3,%rdx
    59a0:	48 01 d0             	add    %rdx,%rax
    59a3:	48 8b 00             	mov    (%rax),%rax
    59a6:	8b 55 f4             	mov    -0xc(%rbp),%edx
    59a9:	48 63 d2             	movslq %edx,%rdx
    59ac:	48 c1 e2 04          	shl    $0x4,%rdx
    59b0:	48 01 d0             	add    %rdx,%rax
    59b3:	f3 0f 10 48 08       	movss  0x8(%rax),%xmm1
    59b8:	48 8b 05 00 00 00 00 	mov    0x0(%rip),%rax        # 59bf <nonlinear_cong_cost+0x24c>
    59bf:	8b 55 f8             	mov    -0x8(%rbp),%edx
    59c2:	48 63 d2             	movslq %edx,%rdx
    59c5:	48 c1 e2 03          	shl    $0x3,%rdx
    59c9:	48 01 d0             	add    %rdx,%rax
    59cc:	48 8b 00             	mov    (%rax),%rax
    59cf:	8b 55 f4             	mov    -0xc(%rbp),%edx
    59d2:	48 63 d2             	movslq %edx,%rdx
    59d5:	48 c1 e2 04          	shl    $0x4,%rdx
    59d9:	48 01 d0             	add    %rdx,%rax
    59dc:	f3 0f 10 40 04       	movss  0x4(%rax),%xmm0
    59e1:	f3 0f 59 c1          	mulss  %xmm1,%xmm0
    59e5:	f3 0f 11 45 f0       	movss  %xmm0,-0x10(%rbp)
    59ea:	f3 0f 10 45 f0       	movss  -0x10(%rbp),%xmm0
    59ef:	f3 0f 59 45 f0       	mulss  -0x10(%rbp),%xmm0
    59f4:	f3 0f 10 4d fc       	movss  -0x4(%rbp),%xmm1
    59f9:	f3 0f 58 c1          	addss  %xmm1,%xmm0
    59fd:	f3 0f 11 45 fc       	movss  %xmm0,-0x4(%rbp)
    5a02:	83 45 f4 01          	addl   $0x1,-0xc(%rbp)
    5a06:	8b 45 f4             	mov    -0xc(%rbp),%eax
    5a09:	3b 45 ec             	cmp    -0x14(%rbp),%eax
    5a0c:	0f 8c 92 fd ff ff    	jl     57a4 <nonlinear_cong_cost+0x31>
    5a12:	83 45 f8 01          	addl   $0x1,-0x8(%rbp)
    5a16:	8b 45 f8             	mov    -0x8(%rbp),%eax
    5a19:	3b 45 ec             	cmp    -0x14(%rbp),%eax
    5a1c:	0f 8c 76 fd ff ff    	jl     5798 <nonlinear_cong_cost+0x25>
    5a22:	8b 45 fc             	mov    -0x4(%rbp),%eax
    5a25:	89 45 e8             	mov    %eax,-0x18(%rbp)
    5a28:	f3 0f 10 45 e8       	movss  -0x18(%rbp),%xmm0
    5a2d:	c9                   	leaveq 
    5a2e:	c3                   	retq   

0000000000005a2f <update_region_occ>:
    5a2f:	55                   	push   %rbp
    5a30:	48 89 e5             	mov    %rsp,%rbp
    5a33:	48 83 c4 80          	add    $0xffffffffffffff80,%rsp
    5a37:	e8 00 00 00 00       	callq  5a3c <update_region_occ+0xd>
    5a3c:	89 7d 9c             	mov    %edi,-0x64(%rbp)
    5a3f:	48 89 75 90          	mov    %rsi,-0x70(%rbp)
    5a43:	89 55 98             	mov    %edx,-0x68(%rbp)
    5a46:	89 4d 8c             	mov    %ecx,-0x74(%rbp)
    5a49:	48 8b 0d 00 00 00 00 	mov    0x0(%rip),%rcx        # 5a50 <update_region_occ+0x21>
    5a50:	8b 45 9c             	mov    -0x64(%rbp),%eax
    5a53:	48 63 d0             	movslq %eax,%rdx
    5a56:	48 89 d0             	mov    %rdx,%rax
    5a59:	48 c1 e0 02          	shl    $0x2,%rax
    5a5d:	48 01 d0             	add    %rdx,%rax
    5a60:	48 c1 e0 03          	shl    $0x3,%rax
    5a64:	48 01 c8             	add    %rcx,%rax
    5a67:	8b 40 08             	mov    0x8(%rax),%eax
    5a6a:	83 f8 31             	cmp    $0x31,%eax
    5a6d:	7e 4f                	jle    5abe <update_region_occ+0x8f>
    5a6f:	48 8b 0d 00 00 00 00 	mov    0x0(%rip),%rcx        # 5a76 <update_region_occ+0x47>
    5a76:	8b 45 9c             	mov    -0x64(%rbp),%eax
    5a79:	48 63 d0             	movslq %eax,%rdx
    5a7c:	48 89 d0             	mov    %rdx,%rax
    5a7f:	48 c1 e0 02          	shl    $0x2,%rax
    5a83:	48 01 d0             	add    %rdx,%rax
    5a86:	48 c1 e0 03          	shl    $0x3,%rax
    5a8a:	48 01 c8             	add    %rcx,%rax
    5a8d:	8b 40 08             	mov    0x8(%rax),%eax
    5a90:	83 e8 31             	sub    $0x31,%eax
    5a93:	f2 0f 2a c0          	cvtsi2sd %eax,%xmm0
    5a97:	f2 0f 10 0d 00 00 00 	movsd  0x0(%rip),%xmm1        # 5a9f <update_region_occ+0x70>
    5a9e:	00 
    5a9f:	f2 0f 59 c1          	mulsd  %xmm1,%xmm0
    5aa3:	f2 0f 10 0d 00 00 00 	movsd  0x0(%rip),%xmm1        # 5aab <update_region_occ+0x7c>
    5aaa:	00 
    5aab:	f2 0f 58 c1          	addsd  %xmm1,%xmm0
    5aaf:	66 0f 14 c0          	unpcklpd %xmm0,%xmm0
    5ab3:	66 0f 5a c0          	cvtpd2ps %xmm0,%xmm0
    5ab7:	f3 0f 11 45 fc       	movss  %xmm0,-0x4(%rbp)
    5abc:	eb 2d                	jmp    5aeb <update_region_occ+0xbc>
    5abe:	48 8b 0d 00 00 00 00 	mov    0x0(%rip),%rcx        # 5ac5 <update_region_occ+0x96>
    5ac5:	8b 45 9c             	mov    -0x64(%rbp),%eax
    5ac8:	48 63 d0             	movslq %eax,%rdx
    5acb:	48 89 d0             	mov    %rdx,%rax
    5ace:	48 c1 e0 02          	shl    $0x2,%rax
    5ad2:	48 01 d0             	add    %rdx,%rax
    5ad5:	48 c1 e0 03          	shl    $0x3,%rax
    5ad9:	48 01 c8             	add    %rcx,%rax
    5adc:	8b 40 08             	mov    0x8(%rax),%eax
    5adf:	48 98                	cltq   
    5ae1:	8b 04 85 00 00 00 00 	mov    0x0(,%rax,4),%eax
    5ae8:	89 45 fc             	mov    %eax,-0x4(%rbp)
    5aeb:	48 8b 45 90          	mov    -0x70(%rbp),%rax
    5aef:	8b 00                	mov    (%rax),%eax
    5af1:	f2 0f 2a c0          	cvtsi2sd %eax,%xmm0
    5af5:	f2 0f 10 0d 00 00 00 	movsd  0x0(%rip),%xmm1        # 5afd <update_region_occ+0xce>
    5afc:	00 
    5afd:	f2 0f 5c c1          	subsd  %xmm1,%xmm0
    5b01:	66 0f 14 c0          	unpcklpd %xmm0,%xmm0
    5b05:	66 0f 5a c0          	cvtpd2ps %xmm0,%xmm0
    5b09:	f3 0f 11 45 f0       	movss  %xmm0,-0x10(%rbp)
    5b0e:	48 8b 45 90          	mov    -0x70(%rbp),%rax
    5b12:	8b 40 04             	mov    0x4(%rax),%eax
    5b15:	f2 0f 2a c0          	cvtsi2sd %eax,%xmm0
    5b19:	f2 0f 10 0d 00 00 00 	movsd  0x0(%rip),%xmm1        # 5b21 <update_region_occ+0xf2>
    5b20:	00 
    5b21:	f2 0f 58 c1          	addsd  %xmm1,%xmm0
    5b25:	66 0f 14 c0          	unpcklpd %xmm0,%xmm0
    5b29:	66 0f 5a c0          	cvtpd2ps %xmm0,%xmm0
    5b2d:	f3 0f 11 45 ec       	movss  %xmm0,-0x14(%rbp)
    5b32:	48 8b 45 90          	mov    -0x70(%rbp),%rax
    5b36:	8b 40 08             	mov    0x8(%rax),%eax
    5b39:	f2 0f 2a c0          	cvtsi2sd %eax,%xmm0
    5b3d:	f2 0f 10 0d 00 00 00 	movsd  0x0(%rip),%xmm1        # 5b45 <update_region_occ+0x116>
    5b44:	00 
    5b45:	f2 0f 5c c1          	subsd  %xmm1,%xmm0
    5b49:	66 0f 14 c0          	unpcklpd %xmm0,%xmm0
    5b4d:	66 0f 5a c0          	cvtpd2ps %xmm0,%xmm0
    5b51:	f3 0f 11 45 e8       	movss  %xmm0,-0x18(%rbp)
    5b56:	48 8b 45 90          	mov    -0x70(%rbp),%rax
    5b5a:	8b 40 0c             	mov    0xc(%rax),%eax
    5b5d:	f2 0f 2a c0          	cvtsi2sd %eax,%xmm0
    5b61:	f2 0f 10 0d 00 00 00 	movsd  0x0(%rip),%xmm1        # 5b69 <update_region_occ+0x13a>
    5b68:	00 
    5b69:	f2 0f 58 c1          	addsd  %xmm1,%xmm0
    5b6d:	66 0f 14 c0          	unpcklpd %xmm0,%xmm0
    5b71:	66 0f 5a c0          	cvtpd2ps %xmm0,%xmm0
    5b75:	f3 0f 11 45 e4       	movss  %xmm0,-0x1c(%rbp)
    5b7a:	f3 0f 2a 45 8c       	cvtsi2ssl -0x74(%rbp),%xmm0
    5b7f:	8b 05 00 00 00 00    	mov    0x0(%rip),%eax        # 5b85 <update_region_occ+0x156>
    5b85:	f3 0f 2a c8          	cvtsi2ss %eax,%xmm1
    5b89:	f3 0f 5e c1          	divss  %xmm1,%xmm0
    5b8d:	f3 0f 11 45 e0       	movss  %xmm0,-0x20(%rbp)
    5b92:	f3 0f 2a 45 8c       	cvtsi2ssl -0x74(%rbp),%xmm0
    5b97:	8b 05 00 00 00 00    	mov    0x0(%rip),%eax        # 5b9d <update_region_occ+0x16e>
    5b9d:	f3 0f 2a c8          	cvtsi2ss %eax,%xmm1
    5ba1:	f3 0f 5e c1          	divss  %xmm1,%xmm0
    5ba5:	f3 0f 11 45 dc       	movss  %xmm0,-0x24(%rbp)
    5baa:	f3 0f 10 45 f0       	movss  -0x10(%rbp),%xmm0
    5baf:	0f 5a c0             	cvtps2pd %xmm0,%xmm0
    5bb2:	f2 0f 10 0d 00 00 00 	movsd  0x0(%rip),%xmm1        # 5bba <update_region_occ+0x18b>
    5bb9:	00 
    5bba:	f2 0f 5c c1          	subsd  %xmm1,%xmm0
    5bbe:	f2 0f 2c c0          	cvttsd2si %xmm0,%eax
    5bc2:	f3 0f 2a c0          	cvtsi2ss %eax,%xmm0
    5bc6:	f3 0f 59 45 e0       	mulss  -0x20(%rbp),%xmm0
    5bcb:	f3 0f 2c c0          	cvttss2si %xmm0,%eax
    5bcf:	89 45 d8             	mov    %eax,-0x28(%rbp)
    5bd2:	f3 0f 10 45 ec       	movss  -0x14(%rbp),%xmm0
    5bd7:	0f 5a c0             	cvtps2pd %xmm0,%xmm0
    5bda:	f2 0f 10 0d 00 00 00 	movsd  0x0(%rip),%xmm1        # 5be2 <update_region_occ+0x1b3>
    5be1:	00 
    5be2:	f2 0f 5c c1          	subsd  %xmm1,%xmm0
    5be6:	f2 0f 2c c0          	cvttsd2si %xmm0,%eax
    5bea:	f3 0f 2a c0          	cvtsi2ss %eax,%xmm0
    5bee:	f3 0f 59 45 e0       	mulss  -0x20(%rbp),%xmm0
    5bf3:	f3 0f 2c c0          	cvttss2si %xmm0,%eax
    5bf7:	89 45 d4             	mov    %eax,-0x2c(%rbp)
    5bfa:	8b 45 8c             	mov    -0x74(%rbp),%eax
    5bfd:	8d 50 ff             	lea    -0x1(%rax),%edx
    5c00:	8b 45 d4             	mov    -0x2c(%rbp),%eax
    5c03:	39 c2                	cmp    %eax,%edx
    5c05:	0f 4e c2             	cmovle %edx,%eax
    5c08:	89 45 d4             	mov    %eax,-0x2c(%rbp)
    5c0b:	f3 0f 10 45 e8       	movss  -0x18(%rbp),%xmm0
    5c10:	0f 5a c0             	cvtps2pd %xmm0,%xmm0
    5c13:	f2 0f 10 0d 00 00 00 	movsd  0x0(%rip),%xmm1        # 5c1b <update_region_occ+0x1ec>
    5c1a:	00 
    5c1b:	f2 0f 5c c1          	subsd  %xmm1,%xmm0
    5c1f:	f2 0f 2c c0          	cvttsd2si %xmm0,%eax
    5c23:	f3 0f 2a c0          	cvtsi2ss %eax,%xmm0
    5c27:	f3 0f 59 45 dc       	mulss  -0x24(%rbp),%xmm0
    5c2c:	f3 0f 2c c0          	cvttss2si %xmm0,%eax
    5c30:	89 45 d0             	mov    %eax,-0x30(%rbp)
    5c33:	f3 0f 10 45 e4       	movss  -0x1c(%rbp),%xmm0
    5c38:	0f 5a c0             	cvtps2pd %xmm0,%xmm0
    5c3b:	f2 0f 10 0d 00 00 00 	movsd  0x0(%rip),%xmm1        # 5c43 <update_region_occ+0x214>
    5c42:	00 
    5c43:	f2 0f 5c c1          	subsd  %xmm1,%xmm0
    5c47:	f2 0f 2c c0          	cvttsd2si %xmm0,%eax
    5c4b:	f3 0f 2a c0          	cvtsi2ss %eax,%xmm0
    5c4f:	f3 0f 59 45 dc       	mulss  -0x24(%rbp),%xmm0
    5c54:	f3 0f 2c c0          	cvttss2si %xmm0,%eax
    5c58:	89 45 cc             	mov    %eax,-0x34(%rbp)
    5c5b:	8b 45 8c             	mov    -0x74(%rbp),%eax
    5c5e:	8d 50 ff             	lea    -0x1(%rax),%edx
    5c61:	8b 45 cc             	mov    -0x34(%rbp),%eax
    5c64:	39 c2                	cmp    %eax,%edx
    5c66:	0f 4e c2             	cmovle %edx,%eax
    5c69:	89 45 cc             	mov    %eax,-0x34(%rbp)
    5c6c:	f3 0f 10 45 ec       	movss  -0x14(%rbp),%xmm0
    5c71:	f3 0f 5c 45 f0       	subss  -0x10(%rbp),%xmm0
    5c76:	f3 0f 10 0d 00 00 00 	movss  0x0(%rip),%xmm1        # 5c7e <update_region_occ+0x24f>
    5c7d:	00 
    5c7e:	0f 28 d1             	movaps %xmm1,%xmm2
    5c81:	f3 0f 5e d0          	divss  %xmm0,%xmm2
    5c85:	0f 28 c2             	movaps %xmm2,%xmm0
    5c88:	f3 0f 11 45 c8       	movss  %xmm0,-0x38(%rbp)
    5c8d:	f3 0f 10 45 e4       	movss  -0x1c(%rbp),%xmm0
    5c92:	f3 0f 5c 45 e8       	subss  -0x18(%rbp),%xmm0
    5c97:	f3 0f 10 0d 00 00 00 	movss  0x0(%rip),%xmm1        # 5c9f <update_region_occ+0x270>
    5c9e:	00 
    5c9f:	0f 28 d1             	movaps %xmm1,%xmm2
    5ca2:	f3 0f 5e d0          	divss  %xmm0,%xmm2
    5ca6:	0f 28 c2             	movaps %xmm2,%xmm0
    5ca9:	f3 0f 11 45 c4       	movss  %xmm0,-0x3c(%rbp)
    5cae:	8b 45 d8             	mov    -0x28(%rbp),%eax
    5cb1:	89 45 f8             	mov    %eax,-0x8(%rbp)
    5cb4:	e9 9d 02 00 00       	jmpq   5f56 <update_region_occ+0x527>
    5cb9:	8b 45 d0             	mov    -0x30(%rbp),%eax
    5cbc:	89 45 f4             	mov    %eax,-0xc(%rbp)
    5cbf:	e9 82 02 00 00       	jmpq   5f46 <update_region_occ+0x517>
    5cc4:	48 8b 05 00 00 00 00 	mov    0x0(%rip),%rax        # 5ccb <update_region_occ+0x29c>
    5ccb:	8b 55 f8             	mov    -0x8(%rbp),%edx
    5cce:	48 63 d2             	movslq %edx,%rdx
    5cd1:	48 c1 e2 02          	shl    $0x2,%rdx
    5cd5:	48 01 d0             	add    %rdx,%rax
    5cd8:	f3 0f 10 00          	movss  (%rax),%xmm0
    5cdc:	0f 2e 45 f0          	ucomiss -0x10(%rbp),%xmm0
    5ce0:	76 18                	jbe    5cfa <update_region_occ+0x2cb>
    5ce2:	48 8b 05 00 00 00 00 	mov    0x0(%rip),%rax        # 5ce9 <update_region_occ+0x2ba>
    5ce9:	8b 55 f8             	mov    -0x8(%rbp),%edx
    5cec:	48 63 d2             	movslq %edx,%rdx
    5cef:	48 c1 e2 02          	shl    $0x2,%rdx
    5cf3:	48 01 d0             	add    %rdx,%rax
    5cf6:	8b 00                	mov    (%rax),%eax
    5cf8:	eb 03                	jmp    5cfd <update_region_occ+0x2ce>
    5cfa:	8b 45 f0             	mov    -0x10(%rbp),%eax
    5cfd:	89 45 c0             	mov    %eax,-0x40(%rbp)
    5d00:	48 8b 05 00 00 00 00 	mov    0x0(%rip),%rax        # 5d07 <update_region_occ+0x2d8>
    5d07:	8b 55 f8             	mov    -0x8(%rbp),%edx
    5d0a:	48 63 d2             	movslq %edx,%rdx
    5d0d:	48 83 c2 01          	add    $0x1,%rdx
    5d11:	48 c1 e2 02          	shl    $0x2,%rdx
    5d15:	48 01 d0             	add    %rdx,%rax
    5d18:	f3 0f 10 00          	movss  (%rax),%xmm0
    5d1c:	0f 2e 45 ec          	ucomiss -0x14(%rbp),%xmm0
    5d20:	76 05                	jbe    5d27 <update_region_occ+0x2f8>
    5d22:	8b 45 ec             	mov    -0x14(%rbp),%eax
    5d25:	eb 1a                	jmp    5d41 <update_region_occ+0x312>
    5d27:	48 8b 05 00 00 00 00 	mov    0x0(%rip),%rax        # 5d2e <update_region_occ+0x2ff>
    5d2e:	8b 55 f8             	mov    -0x8(%rbp),%edx
    5d31:	48 63 d2             	movslq %edx,%rdx
    5d34:	48 83 c2 01          	add    $0x1,%rdx
    5d38:	48 c1 e2 02          	shl    $0x2,%rdx
    5d3c:	48 01 d0             	add    %rdx,%rax
    5d3f:	8b 00                	mov    (%rax),%eax
    5d41:	89 45 bc             	mov    %eax,-0x44(%rbp)
    5d44:	48 8b 05 00 00 00 00 	mov    0x0(%rip),%rax        # 5d4b <update_region_occ+0x31c>
    5d4b:	8b 55 f4             	mov    -0xc(%rbp),%edx
    5d4e:	48 63 d2             	movslq %edx,%rdx
    5d51:	48 c1 e2 02          	shl    $0x2,%rdx
    5d55:	48 01 d0             	add    %rdx,%rax
    5d58:	f3 0f 10 00          	movss  (%rax),%xmm0
    5d5c:	0f 2e 45 e8          	ucomiss -0x18(%rbp),%xmm0
    5d60:	76 18                	jbe    5d7a <update_region_occ+0x34b>
    5d62:	48 8b 05 00 00 00 00 	mov    0x0(%rip),%rax        # 5d69 <update_region_occ+0x33a>
    5d69:	8b 55 f4             	mov    -0xc(%rbp),%edx
    5d6c:	48 63 d2             	movslq %edx,%rdx
    5d6f:	48 c1 e2 02          	shl    $0x2,%rdx
    5d73:	48 01 d0             	add    %rdx,%rax
    5d76:	8b 00                	mov    (%rax),%eax
    5d78:	eb 03                	jmp    5d7d <update_region_occ+0x34e>
    5d7a:	8b 45 e8             	mov    -0x18(%rbp),%eax
    5d7d:	89 45 b8             	mov    %eax,-0x48(%rbp)
    5d80:	48 8b 05 00 00 00 00 	mov    0x0(%rip),%rax        # 5d87 <update_region_occ+0x358>
    5d87:	8b 55 f4             	mov    -0xc(%rbp),%edx
    5d8a:	48 63 d2             	movslq %edx,%rdx
    5d8d:	48 83 c2 01          	add    $0x1,%rdx
    5d91:	48 c1 e2 02          	shl    $0x2,%rdx
    5d95:	48 01 d0             	add    %rdx,%rax
    5d98:	f3 0f 10 00          	movss  (%rax),%xmm0
    5d9c:	0f 2e 45 e4          	ucomiss -0x1c(%rbp),%xmm0
    5da0:	76 05                	jbe    5da7 <update_region_occ+0x378>
    5da2:	8b 45 e4             	mov    -0x1c(%rbp),%eax
    5da5:	eb 1a                	jmp    5dc1 <update_region_occ+0x392>
    5da7:	48 8b 05 00 00 00 00 	mov    0x0(%rip),%rax        # 5dae <update_region_occ+0x37f>
    5dae:	8b 55 f4             	mov    -0xc(%rbp),%edx
    5db1:	48 63 d2             	movslq %edx,%rdx
    5db4:	48 83 c2 01          	add    $0x1,%rdx
    5db8:	48 c1 e2 02          	shl    $0x2,%rdx
    5dbc:	48 01 d0             	add    %rdx,%rax
    5dbf:	8b 00                	mov    (%rax),%eax
    5dc1:	89 45 b4             	mov    %eax,-0x4c(%rbp)
    5dc4:	f3 0f 10 45 bc       	movss  -0x44(%rbp),%xmm0
    5dc9:	f3 0f 5c 45 c0       	subss  -0x40(%rbp),%xmm0
    5dce:	f3 0f 11 45 b0       	movss  %xmm0,-0x50(%rbp)
    5dd3:	f3 0f 10 45 b4       	movss  -0x4c(%rbp),%xmm0
    5dd8:	f3 0f 5c 45 b8       	subss  -0x48(%rbp),%xmm0
    5ddd:	f3 0f 11 45 ac       	movss  %xmm0,-0x54(%rbp)
    5de2:	f3 0f 10 45 b0       	movss  -0x50(%rbp),%xmm0
    5de7:	0f 5a c0             	cvtps2pd %xmm0,%xmm0
    5dea:	f2 0f 10 0d 00 00 00 	movsd  0x0(%rip),%xmm1        # 5df2 <update_region_occ+0x3c3>
    5df1:	00 
    5df2:	66 0f 2e c8          	ucomisd %xmm0,%xmm1
    5df6:	76 1c                	jbe    5e14 <update_region_occ+0x3e5>
    5df8:	f3 0f 10 45 b0       	movss  -0x50(%rbp),%xmm0
    5dfd:	0f 5a c0             	cvtps2pd %xmm0,%xmm0
    5e00:	8b 45 9c             	mov    -0x64(%rbp),%eax
    5e03:	89 c6                	mov    %eax,%esi
    5e05:	bf 00 00 00 00       	mov    $0x0,%edi
    5e0a:	b8 01 00 00 00       	mov    $0x1,%eax
    5e0f:	e8 00 00 00 00       	callq  5e14 <update_region_occ+0x3e5>
    5e14:	f3 0f 10 45 ac       	movss  -0x54(%rbp),%xmm0
    5e19:	0f 5a c0             	cvtps2pd %xmm0,%xmm0
    5e1c:	f2 0f 10 0d 00 00 00 	movsd  0x0(%rip),%xmm1        # 5e24 <update_region_occ+0x3f5>
    5e23:	00 
    5e24:	66 0f 2e c8          	ucomisd %xmm0,%xmm1
    5e28:	76 1c                	jbe    5e46 <update_region_occ+0x417>
    5e2a:	f3 0f 10 45 ac       	movss  -0x54(%rbp),%xmm0
    5e2f:	0f 5a c0             	cvtps2pd %xmm0,%xmm0
    5e32:	8b 45 9c             	mov    -0x64(%rbp),%eax
    5e35:	89 c6                	mov    %eax,%esi
    5e37:	bf 00 00 00 00       	mov    $0x0,%edi
    5e3c:	b8 01 00 00 00       	mov    $0x1,%eax
    5e41:	e8 00 00 00 00       	callq  5e46 <update_region_occ+0x417>
    5e46:	f3 0f 10 45 fc       	movss  -0x4(%rbp),%xmm0
    5e4b:	f3 0f 59 45 ac       	mulss  -0x54(%rbp),%xmm0
    5e50:	f3 0f 59 45 b0       	mulss  -0x50(%rbp),%xmm0
    5e55:	f3 0f 59 45 c4       	mulss  -0x3c(%rbp),%xmm0
    5e5a:	f3 0f 59 45 e0       	mulss  -0x20(%rbp),%xmm0
    5e5f:	f3 0f 11 45 a8       	movss  %xmm0,-0x58(%rbp)
    5e64:	f3 0f 10 45 fc       	movss  -0x4(%rbp),%xmm0
    5e69:	f3 0f 59 45 b0       	mulss  -0x50(%rbp),%xmm0
    5e6e:	f3 0f 59 45 ac       	mulss  -0x54(%rbp),%xmm0
    5e73:	f3 0f 59 45 c8       	mulss  -0x38(%rbp),%xmm0
    5e78:	f3 0f 59 45 dc       	mulss  -0x24(%rbp),%xmm0
    5e7d:	f3 0f 11 45 a4       	movss  %xmm0,-0x5c(%rbp)
    5e82:	48 8b 05 00 00 00 00 	mov    0x0(%rip),%rax        # 5e89 <update_region_occ+0x45a>
    5e89:	8b 55 f8             	mov    -0x8(%rbp),%edx
    5e8c:	48 63 d2             	movslq %edx,%rdx
    5e8f:	48 c1 e2 03          	shl    $0x3,%rdx
    5e93:	48 01 d0             	add    %rdx,%rax
    5e96:	48 8b 00             	mov    (%rax),%rax
    5e99:	8b 55 f4             	mov    -0xc(%rbp),%edx
    5e9c:	48 63 d2             	movslq %edx,%rdx
    5e9f:	48 c1 e2 04          	shl    $0x4,%rdx
    5ea3:	48 01 d0             	add    %rdx,%rax
    5ea6:	48 8b 15 00 00 00 00 	mov    0x0(%rip),%rdx        # 5ead <update_region_occ+0x47e>
    5ead:	8b 4d f8             	mov    -0x8(%rbp),%ecx
    5eb0:	48 63 c9             	movslq %ecx,%rcx
    5eb3:	48 c1 e1 03          	shl    $0x3,%rcx
    5eb7:	48 01 ca             	add    %rcx,%rdx
    5eba:	48 8b 12             	mov    (%rdx),%rdx
    5ebd:	8b 4d f4             	mov    -0xc(%rbp),%ecx
    5ec0:	48 63 c9             	movslq %ecx,%rcx
    5ec3:	48 c1 e1 04          	shl    $0x4,%rcx
    5ec7:	48 01 ca             	add    %rcx,%rdx
    5eca:	f3 0f 10 4a 08       	movss  0x8(%rdx),%xmm1
    5ecf:	f3 0f 2a 45 98       	cvtsi2ssl -0x68(%rbp),%xmm0
    5ed4:	f3 0f 59 45 a8       	mulss  -0x58(%rbp),%xmm0
    5ed9:	f3 0f 58 c1          	addss  %xmm1,%xmm0
    5edd:	f3 0f 11 40 08       	movss  %xmm0,0x8(%rax)
    5ee2:	48 8b 05 00 00 00 00 	mov    0x0(%rip),%rax        # 5ee9 <update_region_occ+0x4ba>
    5ee9:	8b 55 f8             	mov    -0x8(%rbp),%edx
    5eec:	48 63 d2             	movslq %edx,%rdx
    5eef:	48 c1 e2 03          	shl    $0x3,%rdx
    5ef3:	48 01 d0             	add    %rdx,%rax
    5ef6:	48 8b 00             	mov    (%rax),%rax
    5ef9:	8b 55 f4             	mov    -0xc(%rbp),%edx
    5efc:	48 63 d2             	movslq %edx,%rdx
    5eff:	48 c1 e2 04          	shl    $0x4,%rdx
    5f03:	48 01 d0             	add    %rdx,%rax
    5f06:	48 8b 15 00 00 00 00 	mov    0x0(%rip),%rdx        # 5f0d <update_region_occ+0x4de>
    5f0d:	8b 4d f8             	mov    -0x8(%rbp),%ecx
    5f10:	48 63 c9             	movslq %ecx,%rcx
    5f13:	48 c1 e1 03          	shl    $0x3,%rcx
    5f17:	48 01 ca             	add    %rcx,%rdx
    5f1a:	48 8b 12             	mov    (%rdx),%rdx
    5f1d:	8b 4d f4             	mov    -0xc(%rbp),%ecx
    5f20:	48 63 c9             	movslq %ecx,%rcx
    5f23:	48 c1 e1 04          	shl    $0x4,%rcx
    5f27:	48 01 ca             	add    %rcx,%rdx
    5f2a:	f3 0f 10 4a 08       	movss  0x8(%rdx),%xmm1
    5f2f:	f3 0f 2a 45 98       	cvtsi2ssl -0x68(%rbp),%xmm0
    5f34:	f3 0f 59 45 a4       	mulss  -0x5c(%rbp),%xmm0
    5f39:	f3 0f 58 c1          	addss  %xmm1,%xmm0
    5f3d:	f3 0f 11 40 08       	movss  %xmm0,0x8(%rax)
    5f42:	83 45 f4 01          	addl   $0x1,-0xc(%rbp)
    5f46:	8b 45 f4             	mov    -0xc(%rbp),%eax
    5f49:	3b 45 cc             	cmp    -0x34(%rbp),%eax
    5f4c:	0f 8e 72 fd ff ff    	jle    5cc4 <update_region_occ+0x295>
    5f52:	83 45 f8 01          	addl   $0x1,-0x8(%rbp)
    5f56:	8b 45 f8             	mov    -0x8(%rbp),%eax
    5f59:	3b 45 d4             	cmp    -0x2c(%rbp),%eax
    5f5c:	0f 8e 57 fd ff ff    	jle    5cb9 <update_region_occ+0x28a>
    5f62:	c9                   	leaveq 
    5f63:	c3                   	retq   

0000000000005f64 <free_place_regions>:
    5f64:	55                   	push   %rbp
    5f65:	48 89 e5             	mov    %rsp,%rbp
    5f68:	48 83 ec 10          	sub    $0x10,%rsp
    5f6c:	e8 00 00 00 00       	callq  5f71 <free_place_regions+0xd>
    5f71:	89 7d fc             	mov    %edi,-0x4(%rbp)
    5f74:	8b 45 fc             	mov    -0x4(%rbp),%eax
    5f77:	8d 50 ff             	lea    -0x1(%rax),%edx
    5f7a:	48 8b 05 00 00 00 00 	mov    0x0(%rip),%rax        # 5f81 <free_place_regions+0x1d>
    5f81:	41 b8 10 00 00 00    	mov    $0x10,%r8d
    5f87:	b9 00 00 00 00       	mov    $0x0,%ecx
    5f8c:	be 00 00 00 00       	mov    $0x0,%esi
    5f91:	48 89 c7             	mov    %rax,%rdi
    5f94:	e8 00 00 00 00       	callq  5f99 <free_place_regions+0x35>
    5f99:	8b 45 fc             	mov    -0x4(%rbp),%eax
    5f9c:	8d 50 ff             	lea    -0x1(%rax),%edx
    5f9f:	48 8b 05 00 00 00 00 	mov    0x0(%rip),%rax        # 5fa6 <free_place_regions+0x42>
    5fa6:	41 b8 10 00 00 00    	mov    $0x10,%r8d
    5fac:	b9 00 00 00 00       	mov    $0x0,%ecx
    5fb1:	be 00 00 00 00       	mov    $0x0,%esi
    5fb6:	48 89 c7             	mov    %rax,%rdi
    5fb9:	e8 00 00 00 00       	callq  5fbe <free_place_regions+0x5a>
    5fbe:	48 8b 05 00 00 00 00 	mov    0x0(%rip),%rax        # 5fc5 <free_place_regions+0x61>
    5fc5:	48 89 c7             	mov    %rax,%rdi
    5fc8:	e8 00 00 00 00       	callq  5fcd <free_place_regions+0x69>
    5fcd:	48 8b 05 00 00 00 00 	mov    0x0(%rip),%rax        # 5fd4 <free_place_regions+0x70>
    5fd4:	48 89 c7             	mov    %rax,%rdi
    5fd7:	e8 00 00 00 00       	callq  5fdc <free_place_regions+0x78>
    5fdc:	c9                   	leaveq 
    5fdd:	c3                   	retq   

0000000000005fde <free_placement_structs>:
    5fde:	55                   	push   %rbp
    5fdf:	48 89 e5             	mov    %rsp,%rbp
    5fe2:	48 83 ec 30          	sub    $0x30,%rsp
    5fe6:	e8 00 00 00 00       	callq  5feb <free_placement_structs+0xd>
    5feb:	89 7d ec             	mov    %edi,-0x14(%rbp)
    5fee:	89 75 e8             	mov    %esi,-0x18(%rbp)
    5ff1:	48 89 55 e0          	mov    %rdx,-0x20(%rbp)
    5ff5:	48 89 4d d8          	mov    %rcx,-0x28(%rbp)
    5ff9:	8b 45 10             	mov    0x10(%rbp),%eax
    5ffc:	83 f8 01             	cmp    $0x1,%eax
    5fff:	74 13                	je     6014 <free_placement_structs+0x36>
    6001:	8b 45 10             	mov    0x10(%rbp),%eax
    6004:	83 f8 02             	cmp    $0x2,%eax
    6007:	74 0b                	je     6014 <free_placement_structs+0x36>
    6009:	8b 45 44             	mov    0x44(%rbp),%eax
    600c:	85 c0                	test   %eax,%eax
    600e:	0f 84 77 01 00 00    	je     618b <free_placement_structs+0x1ad>
    6014:	c7 45 fc 00 00 00 00 	movl   $0x0,-0x4(%rbp)
    601b:	e9 f8 00 00 00       	jmpq   6118 <free_placement_structs+0x13a>
    6020:	48 8b 05 00 00 00 00 	mov    0x0(%rip),%rax        # 6027 <free_placement_structs+0x49>
    6027:	8b 55 fc             	mov    -0x4(%rbp),%edx
    602a:	48 63 d2             	movslq %edx,%rdx
    602d:	48 c1 e2 03          	shl    $0x3,%rdx
    6031:	48 01 d0             	add    %rdx,%rax
    6034:	48 8b 10             	mov    (%rax),%rdx
    6037:	48 83 c2 04          	add    $0x4,%rdx
    603b:	48 89 10             	mov    %rdx,(%rax)
    603e:	48 8b 05 00 00 00 00 	mov    0x0(%rip),%rax        # 6045 <free_placement_structs+0x67>
    6045:	8b 55 fc             	mov    -0x4(%rbp),%edx
    6048:	48 63 d2             	movslq %edx,%rdx
    604b:	48 c1 e2 03          	shl    $0x3,%rdx
    604f:	48 01 d0             	add    %rdx,%rax
    6052:	48 8b 00             	mov    (%rax),%rax
    6055:	48 89 c7             	mov    %rax,%rdi
    6058:	e8 00 00 00 00       	callq  605d <free_placement_structs+0x7f>
    605d:	48 8b 05 00 00 00 00 	mov    0x0(%rip),%rax        # 6064 <free_placement_structs+0x86>
    6064:	8b 55 fc             	mov    -0x4(%rbp),%edx
    6067:	48 63 d2             	movslq %edx,%rdx
    606a:	48 c1 e2 03          	shl    $0x3,%rdx
    606e:	48 01 d0             	add    %rdx,%rax
    6071:	48 8b 10             	mov    (%rax),%rdx
    6074:	48 83 c2 04          	add    $0x4,%rdx
    6078:	48 89 10             	mov    %rdx,(%rax)
    607b:	48 8b 05 00 00 00 00 	mov    0x0(%rip),%rax        # 6082 <free_placement_structs+0xa4>
    6082:	8b 55 fc             	mov    -0x4(%rbp),%edx
    6085:	48 63 d2             	movslq %edx,%rdx
    6088:	48 c1 e2 03          	shl    $0x3,%rdx
    608c:	48 01 d0             	add    %rdx,%rax
    608f:	48 8b 00             	mov    (%rax),%rax
    6092:	48 89 c7             	mov    %rax,%rdi
    6095:	e8 00 00 00 00       	callq  609a <free_placement_structs+0xbc>
    609a:	48 8b 05 00 00 00 00 	mov    0x0(%rip),%rax        # 60a1 <free_placement_structs+0xc3>
    60a1:	8b 55 fc             	mov    -0x4(%rbp),%edx
    60a4:	48 63 d2             	movslq %edx,%rdx
    60a7:	48 c1 e2 03          	shl    $0x3,%rdx
    60ab:	48 01 d0             	add    %rdx,%rax
    60ae:	48 8b 10             	mov    (%rax),%rdx
    60b1:	48 83 c2 04          	add    $0x4,%rdx
    60b5:	48 89 10             	mov    %rdx,(%rax)
    60b8:	48 8b 05 00 00 00 00 	mov    0x0(%rip),%rax        # 60bf <free_placement_structs+0xe1>
    60bf:	8b 55 fc             	mov    -0x4(%rbp),%edx
    60c2:	48 63 d2             	movslq %edx,%rdx
    60c5:	48 c1 e2 03          	shl    $0x3,%rdx
    60c9:	48 01 d0             	add    %rdx,%rax
    60cc:	48 8b 00             	mov    (%rax),%rax
    60cf:	48 89 c7             	mov    %rax,%rdi
    60d2:	e8 00 00 00 00       	callq  60d7 <free_placement_structs+0xf9>
    60d7:	48 8b 05 00 00 00 00 	mov    0x0(%rip),%rax        # 60de <free_placement_structs+0x100>
    60de:	8b 55 fc             	mov    -0x4(%rbp),%edx
    60e1:	48 63 d2             	movslq %edx,%rdx
    60e4:	48 c1 e2 03          	shl    $0x3,%rdx
    60e8:	48 01 d0             	add    %rdx,%rax
    60eb:	48 8b 10             	mov    (%rax),%rdx
    60ee:	48 83 c2 04          	add    $0x4,%rdx
    60f2:	48 89 10             	mov    %rdx,(%rax)
    60f5:	48 8b 05 00 00 00 00 	mov    0x0(%rip),%rax        # 60fc <free_placement_structs+0x11e>
    60fc:	8b 55 fc             	mov    -0x4(%rbp),%edx
    60ff:	48 63 d2             	movslq %edx,%rdx
    6102:	48 c1 e2 03          	shl    $0x3,%rdx
    6106:	48 01 d0             	add    %rdx,%rax
    6109:	48 8b 00             	mov    (%rax),%rax
    610c:	48 89 c7             	mov    %rax,%rdi
    610f:	e8 00 00 00 00       	callq  6114 <free_placement_structs+0x136>
    6114:	83 45 fc 01          	addl   $0x1,-0x4(%rbp)
    6118:	8b 05 00 00 00 00    	mov    0x0(%rip),%eax        # 611e <free_placement_structs+0x140>
    611e:	39 45 fc             	cmp    %eax,-0x4(%rbp)
    6121:	0f 8c f9 fe ff ff    	jl     6020 <free_placement_structs+0x42>
    6127:	48 8b 05 00 00 00 00 	mov    0x0(%rip),%rax        # 612e <free_placement_structs+0x150>
    612e:	48 89 c7             	mov    %rax,%rdi
    6131:	e8 00 00 00 00       	callq  6136 <free_placement_structs+0x158>
    6136:	48 8b 05 00 00 00 00 	mov    0x0(%rip),%rax        # 613d <free_placement_structs+0x15f>
    613d:	48 89 c7             	mov    %rax,%rdi
    6140:	e8 00 00 00 00       	callq  6145 <free_placement_structs+0x167>
    6145:	48 8b 05 00 00 00 00 	mov    0x0(%rip),%rax        # 614c <free_placement_structs+0x16e>
    614c:	48 89 c7             	mov    %rax,%rdi
    614f:	e8 00 00 00 00       	callq  6154 <free_placement_structs+0x176>
    6154:	48 8b 05 00 00 00 00 	mov    0x0(%rip),%rax        # 615b <free_placement_structs+0x17d>
    615b:	48 89 c7             	mov    %rax,%rdi
    615e:	e8 00 00 00 00       	callq  6163 <free_placement_structs+0x185>
    6163:	8b 05 00 00 00 00    	mov    0x0(%rip),%eax        # 6169 <free_placement_structs+0x18b>
    6169:	8d 50 ff             	lea    -0x1(%rax),%edx
    616c:	48 8b 05 00 00 00 00 	mov    0x0(%rip),%rax        # 6173 <free_placement_structs+0x195>
    6173:	41 b8 04 00 00 00    	mov    $0x4,%r8d
    6179:	b9 00 00 00 00       	mov    $0x0,%ecx
    617e:	be 00 00 00 00       	mov    $0x0,%esi
    6183:	48 89 c7             	mov    %rax,%rdi
    6186:	e8 00 00 00 00       	callq  618b <free_placement_structs+0x1ad>
    618b:	48 8b 05 00 00 00 00 	mov    0x0(%rip),%rax        # 6192 <free_placement_structs+0x1b4>
    6192:	48 89 c7             	mov    %rax,%rdi
    6195:	e8 00 00 00 00       	callq  619a <free_placement_structs+0x1bc>
    619a:	48 8b 05 00 00 00 00 	mov    0x0(%rip),%rax        # 61a1 <free_placement_structs+0x1c3>
    61a1:	48 89 c7             	mov    %rax,%rdi
    61a4:	e8 00 00 00 00       	callq  61a9 <free_placement_structs+0x1cb>
    61a9:	48 8b 05 00 00 00 00 	mov    0x0(%rip),%rax        # 61b0 <free_placement_structs+0x1d2>
    61b0:	48 89 c7             	mov    %rax,%rdi
    61b3:	e8 00 00 00 00       	callq  61b8 <free_placement_structs+0x1da>
    61b8:	48 8b 05 00 00 00 00 	mov    0x0(%rip),%rax        # 61bf <free_placement_structs+0x1e1>
    61bf:	48 89 c7             	mov    %rax,%rdi
    61c2:	e8 00 00 00 00       	callq  61c7 <free_placement_structs+0x1e9>
    61c7:	48 c7 05 00 00 00 00 	movq   $0x0,0x0(%rip)        # 61d2 <free_placement_structs+0x1f4>
    61ce:	00 00 00 00 
    61d2:	48 c7 05 00 00 00 00 	movq   $0x0,0x0(%rip)        # 61dd <free_placement_structs+0x1ff>
    61d9:	00 00 00 00 
    61dd:	48 c7 05 00 00 00 00 	movq   $0x0,0x0(%rip)        # 61e8 <free_placement_structs+0x20a>
    61e4:	00 00 00 00 
    61e8:	48 c7 05 00 00 00 00 	movq   $0x0,0x0(%rip)        # 61f3 <free_placement_structs+0x215>
    61ef:	00 00 00 00 
    61f3:	e8 29 0e 00 00       	callq  7021 <free_unique_pin_list>
    61f8:	83 7d ec 01          	cmpl   $0x1,-0x14(%rbp)
    61fc:	75 50                	jne    624e <free_placement_structs+0x270>
    61fe:	8b 45 e8             	mov    -0x18(%rbp),%eax
    6201:	89 c7                	mov    %eax,%edi
    6203:	e8 5c fd ff ff       	callq  5f64 <free_place_regions>
    6208:	8b 45 e8             	mov    -0x18(%rbp),%eax
    620b:	8d 50 ff             	lea    -0x1(%rax),%edx
    620e:	48 8b 45 e0          	mov    -0x20(%rbp),%rax
    6212:	41 b8 04 00 00 00    	mov    $0x4,%r8d
    6218:	b9 00 00 00 00       	mov    $0x0,%ecx
    621d:	be 00 00 00 00       	mov    $0x0,%esi
    6222:	48 89 c7             	mov    %rax,%rdi
    6225:	e8 00 00 00 00       	callq  622a <free_placement_structs+0x24c>
    622a:	8b 45 e8             	mov    -0x18(%rbp),%eax
    622d:	8d 50 ff             	lea    -0x1(%rax),%edx
    6230:	48 8b 45 d8          	mov    -0x28(%rbp),%rax
    6234:	41 b8 04 00 00 00    	mov    $0x4,%r8d
    623a:	b9 00 00 00 00       	mov    $0x0,%ecx
    623f:	be 00 00 00 00       	mov    $0x0,%esi
    6244:	48 89 c7             	mov    %rax,%rdi
    6247:	e8 00 00 00 00       	callq  624c <free_placement_structs+0x26e>
    624c:	eb 0b                	jmp    6259 <free_placement_structs+0x27b>
    624e:	83 7d ec 00          	cmpl   $0x0,-0x14(%rbp)
    6252:	75 05                	jne    6259 <free_placement_structs+0x27b>
    6254:	e8 21 2b 00 00       	callq  8d7a <free_fast_cost_update_structs>
    6259:	c9                   	leaveq 
    625a:	c3                   	retq   

000000000000625b <alloc_and_load_placement_structs>:
    625b:	55                   	push   %rbp
    625c:	48 89 e5             	mov    %rsp,%rbp
    625f:	53                   	push   %rbx
    6260:	48 83 ec 38          	sub    $0x38,%rsp
    6264:	e8 00 00 00 00       	callq  6269 <alloc_and_load_placement_structs+0xe>
    6269:	89 7d dc             	mov    %edi,-0x24(%rbp)
    626c:	89 75 d8             	mov    %esi,-0x28(%rbp)
    626f:	f3 0f 11 45 d4       	movss  %xmm0,-0x2c(%rbp)
    6274:	48 89 55 c8          	mov    %rdx,-0x38(%rbp)
    6278:	48 89 4d c0          	mov    %rcx,-0x40(%rbp)
    627c:	c7 45 e4 00 00 00 00 	movl   $0x0,-0x1c(%rbp)
    6283:	c7 45 e0 00 00 00 00 	movl   $0x0,-0x20(%rbp)
    628a:	eb 36                	jmp    62c2 <alloc_and_load_placement_structs+0x67>
    628c:	48 8b 0d 00 00 00 00 	mov    0x0(%rip),%rcx        # 6293 <alloc_and_load_placement_structs+0x38>
    6293:	8b 45 e0             	mov    -0x20(%rbp),%eax
    6296:	48 63 d0             	movslq %eax,%rdx
    6299:	48 89 d0             	mov    %rdx,%rax
    629c:	48 c1 e0 03          	shl    $0x3,%rax
    62a0:	48 01 d0             	add    %rdx,%rax
    62a3:	48 01 c0             	add    %rax,%rax
    62a6:	48 01 d0             	add    %rdx,%rax
    62a9:	48 c1 e0 03          	shl    $0x3,%rax
    62ad:	48 01 c8             	add    %rcx,%rax
    62b0:	8b 50 08             	mov    0x8(%rax),%edx
    62b3:	8b 45 e4             	mov    -0x1c(%rbp),%eax
    62b6:	39 c2                	cmp    %eax,%edx
    62b8:	0f 4d c2             	cmovge %edx,%eax
    62bb:	89 45 e4             	mov    %eax,-0x1c(%rbp)
    62be:	83 45 e0 01          	addl   $0x1,-0x20(%rbp)
    62c2:	8b 05 00 00 00 00    	mov    0x0(%rip),%eax        # 62c8 <alloc_and_load_placement_structs+0x6d>
    62c8:	39 45 e0             	cmp    %eax,-0x20(%rbp)
    62cb:	7c bf                	jl     628c <alloc_and_load_placement_structs+0x31>
    62cd:	8b 45 10             	mov    0x10(%rbp),%eax
    62d0:	83 f8 01             	cmp    $0x1,%eax
    62d3:	74 13                	je     62e8 <alloc_and_load_placement_structs+0x8d>
    62d5:	8b 45 10             	mov    0x10(%rbp),%eax
    62d8:	83 f8 02             	cmp    $0x2,%eax
    62db:	74 0b                	je     62e8 <alloc_and_load_placement_structs+0x8d>
    62dd:	8b 45 44             	mov    0x44(%rbp),%eax
    62e0:	85 c0                	test   %eax,%eax
    62e2:	0f 84 fc 02 00 00    	je     65e4 <alloc_and_load_placement_structs+0x389>
    62e8:	8b 05 00 00 00 00    	mov    0x0(%rip),%eax        # 62ee <alloc_and_load_placement_structs+0x93>
    62ee:	48 98                	cltq   
    62f0:	48 c1 e0 03          	shl    $0x3,%rax
    62f4:	48 89 c7             	mov    %rax,%rdi
    62f7:	e8 00 00 00 00       	callq  62fc <alloc_and_load_placement_structs+0xa1>
    62fc:	48 89 05 00 00 00 00 	mov    %rax,0x0(%rip)        # 6303 <alloc_and_load_placement_structs+0xa8>
    6303:	8b 05 00 00 00 00    	mov    0x0(%rip),%eax        # 6309 <alloc_and_load_placement_structs+0xae>
    6309:	48 98                	cltq   
    630b:	48 c1 e0 03          	shl    $0x3,%rax
    630f:	48 89 c7             	mov    %rax,%rdi
    6312:	e8 00 00 00 00       	callq  6317 <alloc_and_load_placement_structs+0xbc>
    6317:	48 89 05 00 00 00 00 	mov    %rax,0x0(%rip)        # 631e <alloc_and_load_placement_structs+0xc3>
    631e:	8b 05 00 00 00 00    	mov    0x0(%rip),%eax        # 6324 <alloc_and_load_placement_structs+0xc9>
    6324:	48 98                	cltq   
    6326:	48 c1 e0 03          	shl    $0x3,%rax
    632a:	48 89 c7             	mov    %rax,%rdi
    632d:	e8 00 00 00 00       	callq  6332 <alloc_and_load_placement_structs+0xd7>
    6332:	48 89 05 00 00 00 00 	mov    %rax,0x0(%rip)        # 6339 <alloc_and_load_placement_structs+0xde>
    6339:	8b 05 00 00 00 00    	mov    0x0(%rip),%eax        # 633f <alloc_and_load_placement_structs+0xe4>
    633f:	48 98                	cltq   
    6341:	48 c1 e0 03          	shl    $0x3,%rax
    6345:	48 89 c7             	mov    %rax,%rdi
    6348:	e8 00 00 00 00       	callq  634d <alloc_and_load_placement_structs+0xf2>
    634d:	48 89 05 00 00 00 00 	mov    %rax,0x0(%rip)        # 6354 <alloc_and_load_placement_structs+0xf9>
    6354:	8b 45 e4             	mov    -0x1c(%rbp),%eax
    6357:	8d 50 ff             	lea    -0x1(%rax),%edx
    635a:	8b 05 00 00 00 00    	mov    0x0(%rip),%eax        # 6360 <alloc_and_load_placement_structs+0x105>
    6360:	83 e8 01             	sub    $0x1,%eax
    6363:	41 b8 04 00 00 00    	mov    $0x4,%r8d
    6369:	89 d1                	mov    %edx,%ecx
    636b:	ba 00 00 00 00       	mov    $0x0,%edx
    6370:	89 c6                	mov    %eax,%esi
    6372:	bf 00 00 00 00       	mov    $0x0,%edi
    6377:	e8 00 00 00 00       	callq  637c <alloc_and_load_placement_structs+0x121>
    637c:	48 89 05 00 00 00 00 	mov    %rax,0x0(%rip)        # 6383 <alloc_and_load_placement_structs+0x128>
    6383:	c7 45 ec 00 00 00 00 	movl   $0x0,-0x14(%rbp)
    638a:	e9 98 01 00 00       	jmpq   6527 <alloc_and_load_placement_structs+0x2cc>
    638f:	48 8b 05 00 00 00 00 	mov    0x0(%rip),%rax        # 6396 <alloc_and_load_placement_structs+0x13b>
    6396:	8b 55 ec             	mov    -0x14(%rbp),%edx
    6399:	48 63 d2             	movslq %edx,%rdx
    639c:	48 c1 e2 03          	shl    $0x3,%rdx
    63a0:	48 8d 1c 10          	lea    (%rax,%rdx,1),%rbx
    63a4:	48 8b 0d 00 00 00 00 	mov    0x0(%rip),%rcx        # 63ab <alloc_and_load_placement_structs+0x150>
    63ab:	8b 45 ec             	mov    -0x14(%rbp),%eax
    63ae:	48 63 d0             	movslq %eax,%rdx
    63b1:	48 89 d0             	mov    %rdx,%rax
    63b4:	48 c1 e0 02          	shl    $0x2,%rax
    63b8:	48 01 d0             	add    %rdx,%rax
    63bb:	48 c1 e0 03          	shl    $0x3,%rax
    63bf:	48 01 c8             	add    %rcx,%rax
    63c2:	8b 40 08             	mov    0x8(%rax),%eax
    63c5:	48 98                	cltq   
    63c7:	48 c1 e0 02          	shl    $0x2,%rax
    63cb:	48 89 c7             	mov    %rax,%rdi
    63ce:	e8 00 00 00 00       	callq  63d3 <alloc_and_load_placement_structs+0x178>
    63d3:	48 89 03             	mov    %rax,(%rbx)
    63d6:	48 8b 05 00 00 00 00 	mov    0x0(%rip),%rax        # 63dd <alloc_and_load_placement_structs+0x182>
    63dd:	8b 55 ec             	mov    -0x14(%rbp),%edx
    63e0:	48 63 d2             	movslq %edx,%rdx
    63e3:	48 c1 e2 03          	shl    $0x3,%rdx
    63e7:	48 01 d0             	add    %rdx,%rax
    63ea:	48 8b 10             	mov    (%rax),%rdx
    63ed:	48 83 ea 04          	sub    $0x4,%rdx
    63f1:	48 89 10             	mov    %rdx,(%rax)
    63f4:	48 8b 05 00 00 00 00 	mov    0x0(%rip),%rax        # 63fb <alloc_and_load_placement_structs+0x1a0>
    63fb:	8b 55 ec             	mov    -0x14(%rbp),%edx
    63fe:	48 63 d2             	movslq %edx,%rdx
    6401:	48 c1 e2 03          	shl    $0x3,%rdx
    6405:	48 8d 1c 10          	lea    (%rax,%rdx,1),%rbx
    6409:	48 8b 0d 00 00 00 00 	mov    0x0(%rip),%rcx        # 6410 <alloc_and_load_placement_structs+0x1b5>
    6410:	8b 45 ec             	mov    -0x14(%rbp),%eax
    6413:	48 63 d0             	movslq %eax,%rdx
    6416:	48 89 d0             	mov    %rdx,%rax
    6419:	48 c1 e0 02          	shl    $0x2,%rax
    641d:	48 01 d0             	add    %rdx,%rax
    6420:	48 c1 e0 03          	shl    $0x3,%rax
    6424:	48 01 c8             	add    %rcx,%rax
    6427:	8b 40 08             	mov    0x8(%rax),%eax
    642a:	48 98                	cltq   
    642c:	48 c1 e0 02          	shl    $0x2,%rax
    6430:	48 89 c7             	mov    %rax,%rdi
    6433:	e8 00 00 00 00       	callq  6438 <alloc_and_load_placement_structs+0x1dd>
    6438:	48 89 03             	mov    %rax,(%rbx)
    643b:	48 8b 05 00 00 00 00 	mov    0x0(%rip),%rax        # 6442 <alloc_and_load_placement_structs+0x1e7>
    6442:	8b 55 ec             	mov    -0x14(%rbp),%edx
    6445:	48 63 d2             	movslq %edx,%rdx
    6448:	48 c1 e2 03          	shl    $0x3,%rdx
    644c:	48 01 d0             	add    %rdx,%rax
    644f:	48 8b 10             	mov    (%rax),%rdx
    6452:	48 83 ea 04          	sub    $0x4,%rdx
    6456:	48 89 10             	mov    %rdx,(%rax)
    6459:	48 8b 05 00 00 00 00 	mov    0x0(%rip),%rax        # 6460 <alloc_and_load_placement_structs+0x205>
    6460:	8b 55 ec             	mov    -0x14(%rbp),%edx
    6463:	48 63 d2             	movslq %edx,%rdx
    6466:	48 c1 e2 03          	shl    $0x3,%rdx
    646a:	48 8d 1c 10          	lea    (%rax,%rdx,1),%rbx
    646e:	48 8b 0d 00 00 00 00 	mov    0x0(%rip),%rcx        # 6475 <alloc_and_load_placement_structs+0x21a>
    6475:	8b 45 ec             	mov    -0x14(%rbp),%eax
    6478:	48 63 d0             	movslq %eax,%rdx
    647b:	48 89 d0             	mov    %rdx,%rax
    647e:	48 c1 e0 02          	shl    $0x2,%rax
    6482:	48 01 d0             	add    %rdx,%rax
    6485:	48 c1 e0 03          	shl    $0x3,%rax
    6489:	48 01 c8             	add    %rcx,%rax
    648c:	8b 40 08             	mov    0x8(%rax),%eax
    648f:	48 98                	cltq   
    6491:	48 c1 e0 02          	shl    $0x2,%rax
    6495:	48 89 c7             	mov    %rax,%rdi
    6498:	e8 00 00 00 00       	callq  649d <alloc_and_load_placement_structs+0x242>
    649d:	48 89 03             	mov    %rax,(%rbx)
    64a0:	48 8b 05 00 00 00 00 	mov    0x0(%rip),%rax        # 64a7 <alloc_and_load_placement_structs+0x24c>
    64a7:	8b 55 ec             	mov    -0x14(%rbp),%edx
    64aa:	48 63 d2             	movslq %edx,%rdx
    64ad:	48 c1 e2 03          	shl    $0x3,%rdx
    64b1:	48 01 d0             	add    %rdx,%rax
    64b4:	48 8b 10             	mov    (%rax),%rdx
    64b7:	48 83 ea 04          	sub    $0x4,%rdx
    64bb:	48 89 10             	mov    %rdx,(%rax)
    64be:	48 8b 05 00 00 00 00 	mov    0x0(%rip),%rax        # 64c5 <alloc_and_load_placement_structs+0x26a>
    64c5:	8b 55 ec             	mov    -0x14(%rbp),%edx
    64c8:	48 63 d2             	movslq %edx,%rdx
    64cb:	48 c1 e2 03          	shl    $0x3,%rdx
    64cf:	48 8d 1c 10          	lea    (%rax,%rdx,1),%rbx
    64d3:	48 8b 0d 00 00 00 00 	mov    0x0(%rip),%rcx        # 64da <alloc_and_load_placement_structs+0x27f>
    64da:	8b 45 ec             	mov    -0x14(%rbp),%eax
    64dd:	48 63 d0             	movslq %eax,%rdx
    64e0:	48 89 d0             	mov    %rdx,%rax
    64e3:	48 c1 e0 02          	shl    $0x2,%rax
    64e7:	48 01 d0             	add    %rdx,%rax
    64ea:	48 c1 e0 03          	shl    $0x3,%rax
    64ee:	48 01 c8             	add    %rcx,%rax
    64f1:	8b 40 08             	mov    0x8(%rax),%eax
    64f4:	48 98                	cltq   
    64f6:	48 c1 e0 02          	shl    $0x2,%rax
    64fa:	48 89 c7             	mov    %rax,%rdi
    64fd:	e8 00 00 00 00       	callq  6502 <alloc_and_load_placement_structs+0x2a7>
    6502:	48 89 03             	mov    %rax,(%rbx)
    6505:	48 8b 05 00 00 00 00 	mov    0x0(%rip),%rax        # 650c <alloc_and_load_placement_structs+0x2b1>
    650c:	8b 55 ec             	mov    -0x14(%rbp),%edx
    650f:	48 63 d2             	movslq %edx,%rdx
    6512:	48 c1 e2 03          	shl    $0x3,%rdx
    6516:	48 01 d0             	add    %rdx,%rax
    6519:	48 8b 10             	mov    (%rax),%rdx
    651c:	48 83 ea 04          	sub    $0x4,%rdx
    6520:	48 89 10             	mov    %rdx,(%rax)
    6523:	83 45 ec 01          	addl   $0x1,-0x14(%rbp)
    6527:	8b 05 00 00 00 00    	mov    0x0(%rip),%eax        # 652d <alloc_and_load_placement_structs+0x2d2>
    652d:	39 45 ec             	cmp    %eax,-0x14(%rbp)
    6530:	0f 8c 59 fe ff ff    	jl     638f <alloc_and_load_placement_structs+0x134>
    6536:	c7 45 ec 00 00 00 00 	movl   $0x0,-0x14(%rbp)
    653d:	e9 93 00 00 00       	jmpq   65d5 <alloc_and_load_placement_structs+0x37a>
    6542:	c7 45 e8 01 00 00 00 	movl   $0x1,-0x18(%rbp)
    6549:	eb 5c                	jmp    65a7 <alloc_and_load_placement_structs+0x34c>
    654b:	48 8b 05 00 00 00 00 	mov    0x0(%rip),%rax        # 6552 <alloc_and_load_placement_structs+0x2f7>
    6552:	8b 55 ec             	mov    -0x14(%rbp),%edx
    6555:	48 63 d2             	movslq %edx,%rdx
    6558:	48 c1 e2 03          	shl    $0x3,%rdx
    655c:	48 01 d0             	add    %rdx,%rax
    655f:	48 8b 00             	mov    (%rax),%rax
    6562:	8b 55 e8             	mov    -0x18(%rbp),%edx
    6565:	48 63 d2             	movslq %edx,%rdx
    6568:	48 c1 e2 02          	shl    $0x2,%rdx
    656c:	48 01 c2             	add    %rax,%rdx
    656f:	8b 05 00 00 00 00    	mov    0x0(%rip),%eax        # 6575 <alloc_and_load_placement_structs+0x31a>
    6575:	89 02                	mov    %eax,(%rdx)
    6577:	48 8b 05 00 00 00 00 	mov    0x0(%rip),%rax        # 657e <alloc_and_load_placement_structs+0x323>
    657e:	8b 55 ec             	mov    -0x14(%rbp),%edx
    6581:	48 63 d2             	movslq %edx,%rdx
    6584:	48 c1 e2 03          	shl    $0x3,%rdx
    6588:	48 01 d0             	add    %rdx,%rax
    658b:	48 8b 00             	mov    (%rax),%rax
    658e:	8b 55 e8             	mov    -0x18(%rbp),%edx
    6591:	48 63 d2             	movslq %edx,%rdx
    6594:	48 c1 e2 02          	shl    $0x2,%rdx
    6598:	48 01 c2             	add    %rax,%rdx
    659b:	8b 05 00 00 00 00    	mov    0x0(%rip),%eax        # 65a1 <alloc_and_load_placement_structs+0x346>
    65a1:	89 02                	mov    %eax,(%rdx)
    65a3:	83 45 e8 01          	addl   $0x1,-0x18(%rbp)
    65a7:	48 8b 0d 00 00 00 00 	mov    0x0(%rip),%rcx        # 65ae <alloc_and_load_placement_structs+0x353>
    65ae:	8b 45 ec             	mov    -0x14(%rbp),%eax
    65b1:	48 63 d0             	movslq %eax,%rdx
    65b4:	48 89 d0             	mov    %rdx,%rax
    65b7:	48 c1 e0 02          	shl    $0x2,%rax
    65bb:	48 01 d0             	add    %rdx,%rax
    65be:	48 c1 e0 03          	shl    $0x3,%rax
    65c2:	48 01 c8             	add    %rcx,%rax
    65c5:	8b 40 08             	mov    0x8(%rax),%eax
    65c8:	3b 45 e8             	cmp    -0x18(%rbp),%eax
    65cb:	0f 8d 7a ff ff ff    	jge    654b <alloc_and_load_placement_structs+0x2f0>
    65d1:	83 45 ec 01          	addl   $0x1,-0x14(%rbp)
    65d5:	8b 05 00 00 00 00    	mov    0x0(%rip),%eax        # 65db <alloc_and_load_placement_structs+0x380>
    65db:	39 45 ec             	cmp    %eax,-0x14(%rbp)
    65de:	0f 8c 5e ff ff ff    	jl     6542 <alloc_and_load_placement_structs+0x2e7>
    65e4:	8b 05 00 00 00 00    	mov    0x0(%rip),%eax        # 65ea <alloc_and_load_placement_structs+0x38f>
    65ea:	48 98                	cltq   
    65ec:	48 c1 e0 02          	shl    $0x2,%rax
    65f0:	48 89 c7             	mov    %rax,%rdi
    65f3:	e8 00 00 00 00       	callq  65f8 <alloc_and_load_placement_structs+0x39d>
    65f8:	48 89 05 00 00 00 00 	mov    %rax,0x0(%rip)        # 65ff <alloc_and_load_placement_structs+0x3a4>
    65ff:	8b 05 00 00 00 00    	mov    0x0(%rip),%eax        # 6605 <alloc_and_load_placement_structs+0x3aa>
    6605:	48 98                	cltq   
    6607:	48 c1 e0 02          	shl    $0x2,%rax
    660b:	48 89 c7             	mov    %rax,%rdi
    660e:	e8 00 00 00 00       	callq  6613 <alloc_and_load_placement_structs+0x3b8>
    6613:	48 89 05 00 00 00 00 	mov    %rax,0x0(%rip)        # 661a <alloc_and_load_placement_structs+0x3bf>
    661a:	c7 45 ec 00 00 00 00 	movl   $0x0,-0x14(%rbp)
    6621:	eb 20                	jmp    6643 <alloc_and_load_placement_structs+0x3e8>
    6623:	48 8b 05 00 00 00 00 	mov    0x0(%rip),%rax        # 662a <alloc_and_load_placement_structs+0x3cf>
    662a:	8b 55 ec             	mov    -0x14(%rbp),%edx
    662d:	48 63 d2             	movslq %edx,%rdx
    6630:	48 c1 e2 02          	shl    $0x2,%rdx
    6634:	48 01 c2             	add    %rax,%rdx
    6637:	8b 05 00 00 00 00    	mov    0x0(%rip),%eax        # 663d <alloc_and_load_placement_structs+0x3e2>
    663d:	89 02                	mov    %eax,(%rdx)
    663f:	83 45 ec 01          	addl   $0x1,-0x14(%rbp)
    6643:	8b 05 00 00 00 00    	mov    0x0(%rip),%eax        # 6649 <alloc_and_load_placement_structs+0x3ee>
    6649:	39 45 ec             	cmp    %eax,-0x14(%rbp)
    664c:	7c d5                	jl     6623 <alloc_and_load_placement_structs+0x3c8>
    664e:	8b 05 00 00 00 00    	mov    0x0(%rip),%eax        # 6654 <alloc_and_load_placement_structs+0x3f9>
    6654:	48 98                	cltq   
    6656:	48 c1 e0 04          	shl    $0x4,%rax
    665a:	48 89 c7             	mov    %rax,%rdi
    665d:	e8 00 00 00 00       	callq  6662 <alloc_and_load_placement_structs+0x407>
    6662:	48 89 05 00 00 00 00 	mov    %rax,0x0(%rip)        # 6669 <alloc_and_load_placement_structs+0x40e>
    6669:	8b 05 00 00 00 00    	mov    0x0(%rip),%eax        # 666f <alloc_and_load_placement_structs+0x414>
    666f:	48 98                	cltq   
    6671:	48 c1 e0 04          	shl    $0x4,%rax
    6675:	48 89 c7             	mov    %rax,%rdi
    6678:	e8 00 00 00 00       	callq  667d <alloc_and_load_placement_structs+0x422>
    667d:	48 89 05 00 00 00 00 	mov    %rax,0x0(%rip)        # 6684 <alloc_and_load_placement_structs+0x429>
    6684:	e8 2a 0a 00 00       	callq  70b3 <alloc_and_load_unique_pin_list>
    6689:	83 7d dc 01          	cmpl   $0x1,-0x24(%rbp)
    668d:	75 6e                	jne    66fd <alloc_and_load_placement_structs+0x4a2>
    668f:	8b 45 d8             	mov    -0x28(%rbp),%eax
    6692:	89 c7                	mov    %eax,%edi
    6694:	e8 97 00 00 00       	callq  6730 <alloc_place_regions>
    6699:	8b 45 d8             	mov    -0x28(%rbp),%eax
    669c:	89 c7                	mov    %eax,%edi
    669e:	e8 2d 01 00 00       	callq  67d0 <load_place_regions>
    66a3:	8b 45 d8             	mov    -0x28(%rbp),%eax
    66a6:	8d 50 ff             	lea    -0x1(%rax),%edx
    66a9:	8b 45 d8             	mov    -0x28(%rbp),%eax
    66ac:	83 e8 01             	sub    $0x1,%eax
    66af:	41 b8 04 00 00 00    	mov    $0x4,%r8d
    66b5:	89 d1                	mov    %edx,%ecx
    66b7:	ba 00 00 00 00       	mov    $0x0,%edx
    66bc:	89 c6                	mov    %eax,%esi
    66be:	bf 00 00 00 00       	mov    $0x0,%edi
    66c3:	e8 00 00 00 00       	callq  66c8 <alloc_and_load_placement_structs+0x46d>
    66c8:	48 8b 55 c8          	mov    -0x38(%rbp),%rdx
    66cc:	48 89 02             	mov    %rax,(%rdx)
    66cf:	8b 45 d8             	mov    -0x28(%rbp),%eax
    66d2:	8d 50 ff             	lea    -0x1(%rax),%edx
    66d5:	8b 45 d8             	mov    -0x28(%rbp),%eax
    66d8:	83 e8 01             	sub    $0x1,%eax
    66db:	41 b8 04 00 00 00    	mov    $0x4,%r8d
    66e1:	89 d1                	mov    %edx,%ecx
    66e3:	ba 00 00 00 00       	mov    $0x0,%edx
    66e8:	89 c6                	mov    %eax,%esi
    66ea:	bf 00 00 00 00       	mov    $0x0,%edi
    66ef:	e8 00 00 00 00       	callq  66f4 <alloc_and_load_placement_structs+0x499>
    66f4:	48 8b 55 c0          	mov    -0x40(%rbp),%rdx
    66f8:	48 89 02             	mov    %rax,(%rdx)
    66fb:	eb 16                	jmp    6713 <alloc_and_load_placement_structs+0x4b8>
    66fd:	48 8b 45 c8          	mov    -0x38(%rbp),%rax
    6701:	48 c7 00 00 00 00 00 	movq   $0x0,(%rax)
    6708:	48 8b 45 c0          	mov    -0x40(%rbp),%rax
    670c:	48 c7 00 00 00 00 00 	movq   $0x0,(%rax)
    6713:	83 7d dc 00          	cmpl   $0x0,-0x24(%rbp)
    6717:	75 10                	jne    6729 <alloc_and_load_placement_structs+0x4ce>
    6719:	8b 45 d4             	mov    -0x2c(%rbp),%eax
    671c:	89 45 d0             	mov    %eax,-0x30(%rbp)
    671f:	f3 0f 10 45 d0       	movss  -0x30(%rbp),%xmm0
    6724:	e8 ec 26 00 00       	callq  8e15 <alloc_and_load_for_fast_cost_update>
    6729:	48 83 c4 38          	add    $0x38,%rsp
    672d:	5b                   	pop    %rbx
    672e:	5d                   	pop    %rbp
    672f:	c3                   	retq   

0000000000006730 <alloc_place_regions>:
    6730:	55                   	push   %rbp
    6731:	48 89 e5             	mov    %rsp,%rbp
    6734:	48 83 ec 10          	sub    $0x10,%rsp
    6738:	e8 00 00 00 00       	callq  673d <alloc_place_regions+0xd>
    673d:	89 7d fc             	mov    %edi,-0x4(%rbp)
    6740:	8b 45 fc             	mov    -0x4(%rbp),%eax
    6743:	8d 50 ff             	lea    -0x1(%rax),%edx
    6746:	8b 45 fc             	mov    -0x4(%rbp),%eax
    6749:	83 e8 01             	sub    $0x1,%eax
    674c:	41 b8 10 00 00 00    	mov    $0x10,%r8d
    6752:	89 d1                	mov    %edx,%ecx
    6754:	ba 00 00 00 00       	mov    $0x0,%edx
    6759:	89 c6                	mov    %eax,%esi
    675b:	bf 00 00 00 00       	mov    $0x0,%edi
    6760:	e8 00 00 00 00       	callq  6765 <alloc_place_regions+0x35>
    6765:	48 89 05 00 00 00 00 	mov    %rax,0x0(%rip)        # 676c <alloc_place_regions+0x3c>
    676c:	8b 45 fc             	mov    -0x4(%rbp),%eax
    676f:	8d 50 ff             	lea    -0x1(%rax),%edx
    6772:	8b 45 fc             	mov    -0x4(%rbp),%eax
    6775:	83 e8 01             	sub    $0x1,%eax
    6778:	41 b8 10 00 00 00    	mov    $0x10,%r8d
    677e:	89 d1                	mov    %edx,%ecx
    6780:	ba 00 00 00 00       	mov    $0x0,%edx
    6785:	89 c6                	mov    %eax,%esi
    6787:	bf 00 00 00 00       	mov    $0x0,%edi
    678c:	e8 00 00 00 00       	callq  6791 <alloc_place_regions+0x61>
    6791:	48 89 05 00 00 00 00 	mov    %rax,0x0(%rip)        # 6798 <alloc_place_regions+0x68>
    6798:	8b 45 fc             	mov    -0x4(%rbp),%eax
    679b:	83 c0 01             	add    $0x1,%eax
    679e:	48 98                	cltq   
    67a0:	48 c1 e0 02          	shl    $0x2,%rax
    67a4:	48 89 c7             	mov    %rax,%rdi
    67a7:	e8 00 00 00 00       	callq  67ac <alloc_place_regions+0x7c>
    67ac:	48 89 05 00 00 00 00 	mov    %rax,0x0(%rip)        # 67b3 <alloc_place_regions+0x83>
    67b3:	8b 45 fc             	mov    -0x4(%rbp),%eax
    67b6:	83 c0 01             	add    $0x1,%eax
    67b9:	48 98                	cltq   
    67bb:	48 c1 e0 02          	shl    $0x2,%rax
    67bf:	48 89 c7             	mov    %rax,%rdi
    67c2:	e8 00 00 00 00       	callq  67c7 <alloc_place_regions+0x97>
    67c7:	48 89 05 00 00 00 00 	mov    %rax,0x0(%rip)        # 67ce <alloc_place_regions+0x9e>
    67ce:	c9                   	leaveq 
    67cf:	c3                   	retq   

00000000000067d0 <load_place_regions>:
    67d0:	55                   	push   %rbp
    67d1:	48 89 e5             	mov    %rsp,%rbp
    67d4:	48 83 ec 40          	sub    $0x40,%rsp
    67d8:	e8 00 00 00 00       	callq  67dd <load_place_regions+0xd>
    67dd:	89 7d cc             	mov    %edi,-0x34(%rbp)
    67e0:	c7 45 f8 00 00 00 00 	movl   $0x0,-0x8(%rbp)
    67e7:	e9 9d 03 00 00       	jmpq   6b89 <load_place_regions+0x3b9>
    67ec:	8b 05 00 00 00 00    	mov    0x0(%rip),%eax        # 67f2 <load_place_regions+0x22>
    67f2:	89 45 f0             	mov    %eax,-0x10(%rbp)
    67f5:	f3 0f 2a 45 f8       	cvtsi2ssl -0x8(%rbp),%xmm0
    67fa:	f3 0f 2a 4d cc       	cvtsi2ssl -0x34(%rbp),%xmm1
    67ff:	0f 28 d0             	movaps %xmm0,%xmm2
    6802:	f3 0f 5e d1          	divss  %xmm1,%xmm2
    6806:	0f 28 ca             	movaps %xmm2,%xmm1
    6809:	8b 05 00 00 00 00    	mov    0x0(%rip),%eax        # 680f <load_place_regions+0x3f>
    680f:	f3 0f 2a c0          	cvtsi2ss %eax,%xmm0
    6813:	f3 0f 59 c1          	mulss  %xmm1,%xmm0
    6817:	f3 0f 10 0d 00 00 00 	movss  0x0(%rip),%xmm1        # 681f <load_place_regions+0x4f>
    681e:	00 
    681f:	f3 0f 58 c1          	addss  %xmm1,%xmm0
    6823:	f3 0f 11 45 e8       	movss  %xmm0,-0x18(%rbp)
    6828:	8b 45 f8             	mov    -0x8(%rbp),%eax
    682b:	83 c0 01             	add    $0x1,%eax
    682e:	f3 0f 2a c0          	cvtsi2ss %eax,%xmm0
    6832:	f3 0f 2a 4d cc       	cvtsi2ssl -0x34(%rbp),%xmm1
    6837:	0f 28 d0             	movaps %xmm0,%xmm2
    683a:	f3 0f 5e d1          	divss  %xmm1,%xmm2
    683e:	0f 28 ca             	movaps %xmm2,%xmm1
    6841:	8b 05 00 00 00 00    	mov    0x0(%rip),%eax        # 6847 <load_place_regions+0x77>
    6847:	f3 0f 2a c0          	cvtsi2ss %eax,%xmm0
    684b:	f3 0f 59 c1          	mulss  %xmm1,%xmm0
    684f:	f3 0f 11 45 e4       	movss  %xmm0,-0x1c(%rbp)
    6854:	f3 0f 10 45 e8       	movss  -0x18(%rbp),%xmm0
    6859:	0f 5a c0             	cvtps2pd %xmm0,%xmm0
    685c:	e8 00 00 00 00       	callq  6861 <load_place_regions+0x91>
    6861:	f2 0f 2c c0          	cvttsd2si %xmm0,%eax
    6865:	89 45 e0             	mov    %eax,-0x20(%rbp)
    6868:	b8 01 00 00 00       	mov    $0x1,%eax
    686d:	83 7d e0 00          	cmpl   $0x0,-0x20(%rbp)
    6871:	0f 4f 45 e0          	cmovg  -0x20(%rbp),%eax
    6875:	89 45 e0             	mov    %eax,-0x20(%rbp)
    6878:	f3 0f 10 45 e4       	movss  -0x1c(%rbp),%xmm0
    687d:	0f 5a c0             	cvtps2pd %xmm0,%xmm0
    6880:	e8 00 00 00 00       	callq  6885 <load_place_regions+0xb5>
    6885:	f2 0f 2c c0          	cvttsd2si %xmm0,%eax
    6889:	89 45 dc             	mov    %eax,-0x24(%rbp)
    688c:	8b 05 00 00 00 00    	mov    0x0(%rip),%eax        # 6892 <load_place_regions+0xc2>
    6892:	39 45 dc             	cmp    %eax,-0x24(%rbp)
    6895:	0f 4e 45 dc          	cmovle -0x24(%rbp),%eax
    6899:	89 45 dc             	mov    %eax,-0x24(%rbp)
    689c:	48 8b 05 00 00 00 00 	mov    0x0(%rip),%rax        # 68a3 <load_place_regions+0xd3>
    68a3:	8b 55 e0             	mov    -0x20(%rbp),%edx
    68a6:	48 63 d2             	movslq %edx,%rdx
    68a9:	48 83 ea 01          	sub    $0x1,%rdx
    68ad:	48 c1 e2 02          	shl    $0x2,%rdx
    68b1:	48 01 d0             	add    %rdx,%rax
    68b4:	8b 10                	mov    (%rax),%edx
    68b6:	48 8b 05 00 00 00 00 	mov    0x0(%rip),%rax        # 68bd <load_place_regions+0xed>
    68bd:	8b 4d e0             	mov    -0x20(%rbp),%ecx
    68c0:	48 63 c9             	movslq %ecx,%rcx
    68c3:	48 c1 e1 02          	shl    $0x2,%rcx
    68c7:	48 01 c8             	add    %rcx,%rax
    68ca:	8b 00                	mov    (%rax),%eax
    68cc:	01 d0                	add    %edx,%eax
    68ce:	f2 0f 2a c0          	cvtsi2sd %eax,%xmm0
    68d2:	f2 0f 10 0d 00 00 00 	movsd  0x0(%rip),%xmm1        # 68da <load_place_regions+0x10a>
    68d9:	00 
    68da:	f2 0f 5e c1          	divsd  %xmm1,%xmm0
    68de:	66 0f 14 c0          	unpcklpd %xmm0,%xmm0
    68e2:	66 0f 5a c0          	cvtpd2ps %xmm0,%xmm0
    68e6:	f3 0f 11 45 ec       	movss  %xmm0,-0x14(%rbp)
    68eb:	83 7d e0 01          	cmpl   $0x1,-0x20(%rbp)
    68ef:	75 32                	jne    6923 <load_place_regions+0x153>
    68f1:	f3 0f 10 4d ec       	movss  -0x14(%rbp),%xmm1
    68f6:	0f 5a c9             	cvtps2pd %xmm1,%xmm1
    68f9:	48 8b 05 00 00 00 00 	mov    0x0(%rip),%rax        # 6900 <load_place_regions+0x130>
    6900:	8b 00                	mov    (%rax),%eax
    6902:	f2 0f 2a c0          	cvtsi2sd %eax,%xmm0
    6906:	f2 0f 10 15 00 00 00 	movsd  0x0(%rip),%xmm2        # 690e <load_place_regions+0x13e>
    690d:	00 
    690e:	f2 0f 5e c2          	divsd  %xmm2,%xmm0
    6912:	f2 0f 58 c1          	addsd  %xmm1,%xmm0
    6916:	66 0f 14 c0          	unpcklpd %xmm0,%xmm0
    691a:	66 0f 5a c0          	cvtpd2ps %xmm0,%xmm0
    691e:	f3 0f 11 45 ec       	movss  %xmm0,-0x14(%rbp)
    6923:	f3 0f 2a 45 e0       	cvtsi2ssl -0x20(%rbp),%xmm0
    6928:	f3 0f 10 4d e8       	movss  -0x18(%rbp),%xmm1
    692d:	0f 28 d1             	movaps %xmm1,%xmm2
    6930:	f3 0f 5c d0          	subss  %xmm0,%xmm2
    6934:	0f 28 c2             	movaps %xmm2,%xmm0
    6937:	f3 0f 10 0d 00 00 00 	movss  0x0(%rip),%xmm1        # 693f <load_place_regions+0x16f>
    693e:	00 
    693f:	0f 28 d1             	movaps %xmm1,%xmm2
    6942:	f3 0f 5c d0          	subss  %xmm0,%xmm2
    6946:	0f 28 c2             	movaps %xmm2,%xmm0
    6949:	f3 0f 11 45 d8       	movss  %xmm0,-0x28(%rbp)
    694e:	f3 0f 10 45 d8       	movss  -0x28(%rbp),%xmm0
    6953:	f3 0f 59 45 ec       	mulss  -0x14(%rbp),%xmm0
    6958:	f3 0f 10 4d f0       	movss  -0x10(%rbp),%xmm1
    695d:	f3 0f 58 c1          	addss  %xmm1,%xmm0
    6961:	f3 0f 11 45 f0       	movss  %xmm0,-0x10(%rbp)
    6966:	8b 45 e0             	mov    -0x20(%rbp),%eax
    6969:	83 c0 01             	add    $0x1,%eax
    696c:	89 45 f4             	mov    %eax,-0xc(%rbp)
    696f:	eb 62                	jmp    69d3 <load_place_regions+0x203>
    6971:	48 8b 05 00 00 00 00 	mov    0x0(%rip),%rax        # 6978 <load_place_regions+0x1a8>
    6978:	8b 55 f4             	mov    -0xc(%rbp),%edx
    697b:	48 63 d2             	movslq %edx,%rdx
    697e:	48 83 ea 01          	sub    $0x1,%rdx
    6982:	48 c1 e2 02          	shl    $0x2,%rdx
    6986:	48 01 d0             	add    %rdx,%rax
    6989:	8b 10                	mov    (%rax),%edx
    698b:	48 8b 05 00 00 00 00 	mov    0x0(%rip),%rax        # 6992 <load_place_regions+0x1c2>
    6992:	8b 4d f4             	mov    -0xc(%rbp),%ecx
    6995:	48 63 c9             	movslq %ecx,%rcx
    6998:	48 c1 e1 02          	shl    $0x2,%rcx
    699c:	48 01 c8             	add    %rcx,%rax
    699f:	8b 00                	mov    (%rax),%eax
    69a1:	01 d0                	add    %edx,%eax
    69a3:	f2 0f 2a c0          	cvtsi2sd %eax,%xmm0
    69a7:	f2 0f 10 0d 00 00 00 	movsd  0x0(%rip),%xmm1        # 69af <load_place_regions+0x1df>
    69ae:	00 
    69af:	f2 0f 5e c1          	divsd  %xmm1,%xmm0
    69b3:	66 0f 14 c0          	unpcklpd %xmm0,%xmm0
    69b7:	66 0f 5a c0          	cvtpd2ps %xmm0,%xmm0
    69bb:	f3 0f 11 45 ec       	movss  %xmm0,-0x14(%rbp)
    69c0:	f3 0f 10 45 f0       	movss  -0x10(%rbp),%xmm0
    69c5:	f3 0f 58 45 ec       	addss  -0x14(%rbp),%xmm0
    69ca:	f3 0f 11 45 f0       	movss  %xmm0,-0x10(%rbp)
    69cf:	83 45 f4 01          	addl   $0x1,-0xc(%rbp)
    69d3:	8b 45 f4             	mov    -0xc(%rbp),%eax
    69d6:	3b 45 dc             	cmp    -0x24(%rbp),%eax
    69d9:	7c 96                	jl     6971 <load_place_regions+0x1a1>
    69db:	48 8b 05 00 00 00 00 	mov    0x0(%rip),%rax        # 69e2 <load_place_regions+0x212>
    69e2:	8b 55 dc             	mov    -0x24(%rbp),%edx
    69e5:	48 63 d2             	movslq %edx,%rdx
    69e8:	48 83 ea 01          	sub    $0x1,%rdx
    69ec:	48 c1 e2 02          	shl    $0x2,%rdx
    69f0:	48 01 d0             	add    %rdx,%rax
    69f3:	8b 10                	mov    (%rax),%edx
    69f5:	48 8b 05 00 00 00 00 	mov    0x0(%rip),%rax        # 69fc <load_place_regions+0x22c>
    69fc:	8b 4d dc             	mov    -0x24(%rbp),%ecx
    69ff:	48 63 c9             	movslq %ecx,%rcx
    6a02:	48 c1 e1 02          	shl    $0x2,%rcx
    6a06:	48 01 c8             	add    %rcx,%rax
    6a09:	8b 00                	mov    (%rax),%eax
    6a0b:	01 d0                	add    %edx,%eax
    6a0d:	f2 0f 2a c0          	cvtsi2sd %eax,%xmm0
    6a11:	f2 0f 10 0d 00 00 00 	movsd  0x0(%rip),%xmm1        # 6a19 <load_place_regions+0x249>
    6a18:	00 
    6a19:	f2 0f 5e c1          	divsd  %xmm1,%xmm0
    6a1d:	66 0f 14 c0          	unpcklpd %xmm0,%xmm0
    6a21:	66 0f 5a c0          	cvtpd2ps %xmm0,%xmm0
    6a25:	f3 0f 11 45 ec       	movss  %xmm0,-0x14(%rbp)
    6a2a:	8b 05 00 00 00 00    	mov    0x0(%rip),%eax        # 6a30 <load_place_regions+0x260>
    6a30:	39 45 dc             	cmp    %eax,-0x24(%rbp)
    6a33:	75 42                	jne    6a77 <load_place_regions+0x2a7>
    6a35:	f3 0f 10 4d ec       	movss  -0x14(%rbp),%xmm1
    6a3a:	0f 5a c9             	cvtps2pd %xmm1,%xmm1
    6a3d:	48 8b 05 00 00 00 00 	mov    0x0(%rip),%rax        # 6a44 <load_place_regions+0x274>
    6a44:	8b 15 00 00 00 00    	mov    0x0(%rip),%edx        # 6a4a <load_place_regions+0x27a>
    6a4a:	48 63 d2             	movslq %edx,%rdx
    6a4d:	48 c1 e2 02          	shl    $0x2,%rdx
    6a51:	48 01 d0             	add    %rdx,%rax
    6a54:	8b 00                	mov    (%rax),%eax
    6a56:	f2 0f 2a c0          	cvtsi2sd %eax,%xmm0
    6a5a:	f2 0f 10 15 00 00 00 	movsd  0x0(%rip),%xmm2        # 6a62 <load_place_regions+0x292>
    6a61:	00 
    6a62:	f2 0f 5e c2          	divsd  %xmm2,%xmm0
    6a66:	f2 0f 58 c1          	addsd  %xmm1,%xmm0
    6a6a:	66 0f 14 c0          	unpcklpd %xmm0,%xmm0
    6a6e:	66 0f 5a c0          	cvtpd2ps %xmm0,%xmm0
    6a72:	f3 0f 11 45 ec       	movss  %xmm0,-0x14(%rbp)
    6a77:	f3 0f 2a 45 dc       	cvtsi2ssl -0x24(%rbp),%xmm0
    6a7c:	f3 0f 5c 45 e4       	subss  -0x1c(%rbp),%xmm0
    6a81:	f3 0f 10 0d 00 00 00 	movss  0x0(%rip),%xmm1        # 6a89 <load_place_regions+0x2b9>
    6a88:	00 
    6a89:	0f 28 d1             	movaps %xmm1,%xmm2
    6a8c:	f3 0f 5c d0          	subss  %xmm0,%xmm2
    6a90:	0f 28 c2             	movaps %xmm2,%xmm0
    6a93:	f3 0f 11 45 d8       	movss  %xmm0,-0x28(%rbp)
    6a98:	f3 0f 10 45 d8       	movss  -0x28(%rbp),%xmm0
    6a9d:	f3 0f 59 45 ec       	mulss  -0x14(%rbp),%xmm0
    6aa2:	f3 0f 10 4d f0       	movss  -0x10(%rbp),%xmm1
    6aa7:	f3 0f 58 c1          	addss  %xmm1,%xmm0
    6aab:	f3 0f 11 45 f0       	movss  %xmm0,-0x10(%rbp)
    6ab0:	c7 45 fc 00 00 00 00 	movl   $0x0,-0x4(%rbp)
    6ab7:	e9 bd 00 00 00       	jmpq   6b79 <load_place_regions+0x3a9>
    6abc:	48 8b 05 00 00 00 00 	mov    0x0(%rip),%rax        # 6ac3 <load_place_regions+0x2f3>
    6ac3:	8b 55 fc             	mov    -0x4(%rbp),%edx
    6ac6:	48 63 d2             	movslq %edx,%rdx
    6ac9:	48 c1 e2 03          	shl    $0x3,%rdx
    6acd:	48 01 d0             	add    %rdx,%rax
    6ad0:	48 8b 00             	mov    (%rax),%rax
    6ad3:	8b 55 f8             	mov    -0x8(%rbp),%edx
    6ad6:	48 63 d2             	movslq %edx,%rdx
    6ad9:	48 c1 e2 04          	shl    $0x4,%rdx
    6add:	48 01 c2             	add    %rax,%rdx
    6ae0:	8b 45 f0             	mov    -0x10(%rbp),%eax
    6ae3:	89 02                	mov    %eax,(%rdx)
    6ae5:	48 8b 05 00 00 00 00 	mov    0x0(%rip),%rax        # 6aec <load_place_regions+0x31c>
    6aec:	8b 55 fc             	mov    -0x4(%rbp),%edx
    6aef:	48 63 d2             	movslq %edx,%rdx
    6af2:	48 c1 e2 03          	shl    $0x3,%rdx
    6af6:	48 01 d0             	add    %rdx,%rax
    6af9:	48 8b 00             	mov    (%rax),%rax
    6afc:	8b 55 f8             	mov    -0x8(%rbp),%edx
    6aff:	48 63 d2             	movslq %edx,%rdx
    6b02:	48 c1 e2 04          	shl    $0x4,%rdx
    6b06:	48 01 d0             	add    %rdx,%rax
    6b09:	f3 0f 10 05 00 00 00 	movss  0x0(%rip),%xmm0        # 6b11 <load_place_regions+0x341>
    6b10:	00 
    6b11:	f3 0f 5e 45 f0       	divss  -0x10(%rbp),%xmm0
    6b16:	f3 0f 11 40 04       	movss  %xmm0,0x4(%rax)
    6b1b:	48 8b 05 00 00 00 00 	mov    0x0(%rip),%rax        # 6b22 <load_place_regions+0x352>
    6b22:	8b 55 fc             	mov    -0x4(%rbp),%edx
    6b25:	48 63 d2             	movslq %edx,%rdx
    6b28:	48 c1 e2 03          	shl    $0x3,%rdx
    6b2c:	48 01 d0             	add    %rdx,%rax
    6b2f:	48 8b 00             	mov    (%rax),%rax
    6b32:	8b 55 f8             	mov    -0x8(%rbp),%edx
    6b35:	48 63 d2             	movslq %edx,%rdx
    6b38:	48 c1 e2 04          	shl    $0x4,%rdx
    6b3c:	48 01 c2             	add    %rax,%rdx
    6b3f:	8b 05 00 00 00 00    	mov    0x0(%rip),%eax        # 6b45 <load_place_regions+0x375>
    6b45:	89 42 08             	mov    %eax,0x8(%rdx)
    6b48:	48 8b 05 00 00 00 00 	mov    0x0(%rip),%rax        # 6b4f <load_place_regions+0x37f>
    6b4f:	8b 55 fc             	mov    -0x4(%rbp),%edx
    6b52:	48 63 d2             	movslq %edx,%rdx
    6b55:	48 c1 e2 03          	shl    $0x3,%rdx
    6b59:	48 01 d0             	add    %rdx,%rax
    6b5c:	48 8b 00             	mov    (%rax),%rax
    6b5f:	8b 55 f8             	mov    -0x8(%rbp),%edx
    6b62:	48 63 d2             	movslq %edx,%rdx
    6b65:	48 c1 e2 04          	shl    $0x4,%rdx
    6b69:	48 01 c2             	add    %rax,%rdx
    6b6c:	8b 05 00 00 00 00    	mov    0x0(%rip),%eax        # 6b72 <load_place_regions+0x3a2>
    6b72:	89 42 0c             	mov    %eax,0xc(%rdx)
    6b75:	83 45 fc 01          	addl   $0x1,-0x4(%rbp)
    6b79:	8b 45 fc             	mov    -0x4(%rbp),%eax
    6b7c:	3b 45 cc             	cmp    -0x34(%rbp),%eax
    6b7f:	0f 8c 37 ff ff ff    	jl     6abc <load_place_regions+0x2ec>
    6b85:	83 45 f8 01          	addl   $0x1,-0x8(%rbp)
    6b89:	8b 45 f8             	mov    -0x8(%rbp),%eax
    6b8c:	3b 45 cc             	cmp    -0x34(%rbp),%eax
    6b8f:	0f 8c 57 fc ff ff    	jl     67ec <load_place_regions+0x1c>
    6b95:	c7 45 fc 00 00 00 00 	movl   $0x0,-0x4(%rbp)
    6b9c:	e9 9d 03 00 00       	jmpq   6f3e <load_place_regions+0x76e>
    6ba1:	8b 05 00 00 00 00    	mov    0x0(%rip),%eax        # 6ba7 <load_place_regions+0x3d7>
    6ba7:	89 45 f0             	mov    %eax,-0x10(%rbp)
    6baa:	f3 0f 2a 45 fc       	cvtsi2ssl -0x4(%rbp),%xmm0
    6baf:	f3 0f 2a 4d cc       	cvtsi2ssl -0x34(%rbp),%xmm1
    6bb4:	0f 28 d0             	movaps %xmm0,%xmm2
    6bb7:	f3 0f 5e d1          	divss  %xmm1,%xmm2
    6bbb:	0f 28 ca             	movaps %xmm2,%xmm1
    6bbe:	8b 05 00 00 00 00    	mov    0x0(%rip),%eax        # 6bc4 <load_place_regions+0x3f4>
    6bc4:	f3 0f 2a c0          	cvtsi2ss %eax,%xmm0
    6bc8:	f3 0f 59 c1          	mulss  %xmm1,%xmm0
    6bcc:	f3 0f 10 0d 00 00 00 	movss  0x0(%rip),%xmm1        # 6bd4 <load_place_regions+0x404>
    6bd3:	00 
    6bd4:	f3 0f 58 c1          	addss  %xmm1,%xmm0
    6bd8:	f3 0f 11 45 e8       	movss  %xmm0,-0x18(%rbp)
    6bdd:	8b 45 fc             	mov    -0x4(%rbp),%eax
    6be0:	83 c0 01             	add    $0x1,%eax
    6be3:	f3 0f 2a c0          	cvtsi2ss %eax,%xmm0
    6be7:	f3 0f 2a 4d cc       	cvtsi2ssl -0x34(%rbp),%xmm1
    6bec:	0f 28 d0             	movaps %xmm0,%xmm2
    6bef:	f3 0f 5e d1          	divss  %xmm1,%xmm2
    6bf3:	0f 28 ca             	movaps %xmm2,%xmm1
    6bf6:	8b 05 00 00 00 00    	mov    0x0(%rip),%eax        # 6bfc <load_place_regions+0x42c>
    6bfc:	f3 0f 2a c0          	cvtsi2ss %eax,%xmm0
    6c00:	f3 0f 59 c1          	mulss  %xmm1,%xmm0
    6c04:	f3 0f 11 45 e4       	movss  %xmm0,-0x1c(%rbp)
    6c09:	f3 0f 10 45 e8       	movss  -0x18(%rbp),%xmm0
    6c0e:	0f 5a c0             	cvtps2pd %xmm0,%xmm0
    6c11:	e8 00 00 00 00       	callq  6c16 <load_place_regions+0x446>
    6c16:	f2 0f 2c c0          	cvttsd2si %xmm0,%eax
    6c1a:	89 45 e0             	mov    %eax,-0x20(%rbp)
    6c1d:	b8 01 00 00 00       	mov    $0x1,%eax
    6c22:	83 7d e0 00          	cmpl   $0x0,-0x20(%rbp)
    6c26:	0f 4f 45 e0          	cmovg  -0x20(%rbp),%eax
    6c2a:	89 45 e0             	mov    %eax,-0x20(%rbp)
    6c2d:	f3 0f 10 45 e4       	movss  -0x1c(%rbp),%xmm0
    6c32:	0f 5a c0             	cvtps2pd %xmm0,%xmm0
    6c35:	e8 00 00 00 00       	callq  6c3a <load_place_regions+0x46a>
    6c3a:	f2 0f 2c c0          	cvttsd2si %xmm0,%eax
    6c3e:	89 45 dc             	mov    %eax,-0x24(%rbp)
    6c41:	8b 05 00 00 00 00    	mov    0x0(%rip),%eax        # 6c47 <load_place_regions+0x477>
    6c47:	39 45 dc             	cmp    %eax,-0x24(%rbp)
    6c4a:	0f 4e 45 dc          	cmovle -0x24(%rbp),%eax
    6c4e:	89 45 dc             	mov    %eax,-0x24(%rbp)
    6c51:	48 8b 05 00 00 00 00 	mov    0x0(%rip),%rax        # 6c58 <load_place_regions+0x488>
    6c58:	8b 55 e0             	mov    -0x20(%rbp),%edx
    6c5b:	48 63 d2             	movslq %edx,%rdx
    6c5e:	48 83 ea 01          	sub    $0x1,%rdx
    6c62:	48 c1 e2 02          	shl    $0x2,%rdx
    6c66:	48 01 d0             	add    %rdx,%rax
    6c69:	8b 10                	mov    (%rax),%edx
    6c6b:	48 8b 05 00 00 00 00 	mov    0x0(%rip),%rax        # 6c72 <load_place_regions+0x4a2>
    6c72:	8b 4d e0             	mov    -0x20(%rbp),%ecx
    6c75:	48 63 c9             	movslq %ecx,%rcx
    6c78:	48 c1 e1 02          	shl    $0x2,%rcx
    6c7c:	48 01 c8             	add    %rcx,%rax
    6c7f:	8b 00                	mov    (%rax),%eax
    6c81:	01 d0                	add    %edx,%eax
    6c83:	f2 0f 2a c0          	cvtsi2sd %eax,%xmm0
    6c87:	f2 0f 10 0d 00 00 00 	movsd  0x0(%rip),%xmm1        # 6c8f <load_place_regions+0x4bf>
    6c8e:	00 
    6c8f:	f2 0f 5e c1          	divsd  %xmm1,%xmm0
    6c93:	66 0f 14 c0          	unpcklpd %xmm0,%xmm0
    6c97:	66 0f 5a c0          	cvtpd2ps %xmm0,%xmm0
    6c9b:	f3 0f 11 45 ec       	movss  %xmm0,-0x14(%rbp)
    6ca0:	83 7d e0 01          	cmpl   $0x1,-0x20(%rbp)
    6ca4:	75 32                	jne    6cd8 <load_place_regions+0x508>
    6ca6:	f3 0f 10 4d ec       	movss  -0x14(%rbp),%xmm1
    6cab:	0f 5a c9             	cvtps2pd %xmm1,%xmm1
    6cae:	48 8b 05 00 00 00 00 	mov    0x0(%rip),%rax        # 6cb5 <load_place_regions+0x4e5>
    6cb5:	8b 00                	mov    (%rax),%eax
    6cb7:	f2 0f 2a c0          	cvtsi2sd %eax,%xmm0
    6cbb:	f2 0f 10 15 00 00 00 	movsd  0x0(%rip),%xmm2        # 6cc3 <load_place_regions+0x4f3>
    6cc2:	00 
    6cc3:	f2 0f 5e c2          	divsd  %xmm2,%xmm0
    6cc7:	f2 0f 58 c1          	addsd  %xmm1,%xmm0
    6ccb:	66 0f 14 c0          	unpcklpd %xmm0,%xmm0
    6ccf:	66 0f 5a c0          	cvtpd2ps %xmm0,%xmm0
    6cd3:	f3 0f 11 45 ec       	movss  %xmm0,-0x14(%rbp)
    6cd8:	f3 0f 2a 45 e0       	cvtsi2ssl -0x20(%rbp),%xmm0
    6cdd:	f3 0f 10 4d e8       	movss  -0x18(%rbp),%xmm1
    6ce2:	0f 28 d1             	movaps %xmm1,%xmm2
    6ce5:	f3 0f 5c d0          	subss  %xmm0,%xmm2
    6ce9:	0f 28 c2             	movaps %xmm2,%xmm0
    6cec:	f3 0f 10 0d 00 00 00 	movss  0x0(%rip),%xmm1        # 6cf4 <load_place_regions+0x524>
    6cf3:	00 
    6cf4:	0f 28 d1             	movaps %xmm1,%xmm2
    6cf7:	f3 0f 5c d0          	subss  %xmm0,%xmm2
    6cfb:	0f 28 c2             	movaps %xmm2,%xmm0
    6cfe:	f3 0f 11 45 d8       	movss  %xmm0,-0x28(%rbp)
    6d03:	f3 0f 10 45 d8       	movss  -0x28(%rbp),%xmm0
    6d08:	f3 0f 59 45 ec       	mulss  -0x14(%rbp),%xmm0
    6d0d:	f3 0f 10 4d f0       	movss  -0x10(%rbp),%xmm1
    6d12:	f3 0f 58 c1          	addss  %xmm1,%xmm0
    6d16:	f3 0f 11 45 f0       	movss  %xmm0,-0x10(%rbp)
    6d1b:	8b 45 e0             	mov    -0x20(%rbp),%eax
    6d1e:	83 c0 01             	add    $0x1,%eax
    6d21:	89 45 f4             	mov    %eax,-0xc(%rbp)
    6d24:	eb 62                	jmp    6d88 <load_place_regions+0x5b8>
    6d26:	48 8b 05 00 00 00 00 	mov    0x0(%rip),%rax        # 6d2d <load_place_regions+0x55d>
    6d2d:	8b 55 f4             	mov    -0xc(%rbp),%edx
    6d30:	48 63 d2             	movslq %edx,%rdx
    6d33:	48 83 ea 01          	sub    $0x1,%rdx
    6d37:	48 c1 e2 02          	shl    $0x2,%rdx
    6d3b:	48 01 d0             	add    %rdx,%rax
    6d3e:	8b 10                	mov    (%rax),%edx
    6d40:	48 8b 05 00 00 00 00 	mov    0x0(%rip),%rax        # 6d47 <load_place_regions+0x577>
    6d47:	8b 4d f4             	mov    -0xc(%rbp),%ecx
    6d4a:	48 63 c9             	movslq %ecx,%rcx
    6d4d:	48 c1 e1 02          	shl    $0x2,%rcx
    6d51:	48 01 c8             	add    %rcx,%rax
    6d54:	8b 00                	mov    (%rax),%eax
    6d56:	01 d0                	add    %edx,%eax
    6d58:	f2 0f 2a c0          	cvtsi2sd %eax,%xmm0
    6d5c:	f2 0f 10 0d 00 00 00 	movsd  0x0(%rip),%xmm1        # 6d64 <load_place_regions+0x594>
    6d63:	00 
    6d64:	f2 0f 5e c1          	divsd  %xmm1,%xmm0
    6d68:	66 0f 14 c0          	unpcklpd %xmm0,%xmm0
    6d6c:	66 0f 5a c0          	cvtpd2ps %xmm0,%xmm0
    6d70:	f3 0f 11 45 ec       	movss  %xmm0,-0x14(%rbp)
    6d75:	f3 0f 10 45 f0       	movss  -0x10(%rbp),%xmm0
    6d7a:	f3 0f 58 45 ec       	addss  -0x14(%rbp),%xmm0
    6d7f:	f3 0f 11 45 f0       	movss  %xmm0,-0x10(%rbp)
    6d84:	83 45 f4 01          	addl   $0x1,-0xc(%rbp)
    6d88:	8b 45 f4             	mov    -0xc(%rbp),%eax
    6d8b:	3b 45 dc             	cmp    -0x24(%rbp),%eax
    6d8e:	7c 96                	jl     6d26 <load_place_regions+0x556>
    6d90:	48 8b 05 00 00 00 00 	mov    0x0(%rip),%rax        # 6d97 <load_place_regions+0x5c7>
    6d97:	8b 55 dc             	mov    -0x24(%rbp),%edx
    6d9a:	48 63 d2             	movslq %edx,%rdx
    6d9d:	48 83 ea 01          	sub    $0x1,%rdx
    6da1:	48 c1 e2 02          	shl    $0x2,%rdx
    6da5:	48 01 d0             	add    %rdx,%rax
    6da8:	8b 10                	mov    (%rax),%edx
    6daa:	48 8b 05 00 00 00 00 	mov    0x0(%rip),%rax        # 6db1 <load_place_regions+0x5e1>
    6db1:	8b 4d dc             	mov    -0x24(%rbp),%ecx
    6db4:	48 63 c9             	movslq %ecx,%rcx
    6db7:	48 c1 e1 02          	shl    $0x2,%rcx
    6dbb:	48 01 c8             	add    %rcx,%rax
    6dbe:	8b 00                	mov    (%rax),%eax
    6dc0:	01 d0                	add    %edx,%eax
    6dc2:	f2 0f 2a c0          	cvtsi2sd %eax,%xmm0
    6dc6:	f2 0f 10 0d 00 00 00 	movsd  0x0(%rip),%xmm1        # 6dce <load_place_regions+0x5fe>
    6dcd:	00 
    6dce:	f2 0f 5e c1          	divsd  %xmm1,%xmm0
    6dd2:	66 0f 14 c0          	unpcklpd %xmm0,%xmm0
    6dd6:	66 0f 5a c0          	cvtpd2ps %xmm0,%xmm0
    6dda:	f3 0f 11 45 ec       	movss  %xmm0,-0x14(%rbp)
    6ddf:	8b 05 00 00 00 00    	mov    0x0(%rip),%eax        # 6de5 <load_place_regions+0x615>
    6de5:	39 45 dc             	cmp    %eax,-0x24(%rbp)
    6de8:	75 42                	jne    6e2c <load_place_regions+0x65c>
    6dea:	f3 0f 10 4d ec       	movss  -0x14(%rbp),%xmm1
    6def:	0f 5a c9             	cvtps2pd %xmm1,%xmm1
    6df2:	48 8b 05 00 00 00 00 	mov    0x0(%rip),%rax        # 6df9 <load_place_regions+0x629>
    6df9:	8b 15 00 00 00 00    	mov    0x0(%rip),%edx        # 6dff <load_place_regions+0x62f>
    6dff:	48 63 d2             	movslq %edx,%rdx
    6e02:	48 c1 e2 02          	shl    $0x2,%rdx
    6e06:	48 01 d0             	add    %rdx,%rax
    6e09:	8b 00                	mov    (%rax),%eax
    6e0b:	f2 0f 2a c0          	cvtsi2sd %eax,%xmm0
    6e0f:	f2 0f 10 15 00 00 00 	movsd  0x0(%rip),%xmm2        # 6e17 <load_place_regions+0x647>
    6e16:	00 
    6e17:	f2 0f 5e c2          	divsd  %xmm2,%xmm0
    6e1b:	f2 0f 58 c1          	addsd  %xmm1,%xmm0
    6e1f:	66 0f 14 c0          	unpcklpd %xmm0,%xmm0
    6e23:	66 0f 5a c0          	cvtpd2ps %xmm0,%xmm0
    6e27:	f3 0f 11 45 ec       	movss  %xmm0,-0x14(%rbp)
    6e2c:	f3 0f 2a 45 dc       	cvtsi2ssl -0x24(%rbp),%xmm0
    6e31:	f3 0f 5c 45 e4       	subss  -0x1c(%rbp),%xmm0
    6e36:	f3 0f 10 0d 00 00 00 	movss  0x0(%rip),%xmm1        # 6e3e <load_place_regions+0x66e>
    6e3d:	00 
    6e3e:	0f 28 d1             	movaps %xmm1,%xmm2
    6e41:	f3 0f 5c d0          	subss  %xmm0,%xmm2
    6e45:	0f 28 c2             	movaps %xmm2,%xmm0
    6e48:	f3 0f 11 45 d8       	movss  %xmm0,-0x28(%rbp)
    6e4d:	f3 0f 10 45 d8       	movss  -0x28(%rbp),%xmm0
    6e52:	f3 0f 59 45 ec       	mulss  -0x14(%rbp),%xmm0
    6e57:	f3 0f 10 4d f0       	movss  -0x10(%rbp),%xmm1
    6e5c:	f3 0f 58 c1          	addss  %xmm1,%xmm0
    6e60:	f3 0f 11 45 f0       	movss  %xmm0,-0x10(%rbp)
    6e65:	c7 45 f8 00 00 00 00 	movl   $0x0,-0x8(%rbp)
    6e6c:	e9 bd 00 00 00       	jmpq   6f2e <load_place_regions+0x75e>
    6e71:	48 8b 05 00 00 00 00 	mov    0x0(%rip),%rax        # 6e78 <load_place_regions+0x6a8>
    6e78:	8b 55 fc             	mov    -0x4(%rbp),%edx
    6e7b:	48 63 d2             	movslq %edx,%rdx
    6e7e:	48 c1 e2 03          	shl    $0x3,%rdx
    6e82:	48 01 d0             	add    %rdx,%rax
    6e85:	48 8b 00             	mov    (%rax),%rax
    6e88:	8b 55 f8             	mov    -0x8(%rbp),%edx
    6e8b:	48 63 d2             	movslq %edx,%rdx
    6e8e:	48 c1 e2 04          	shl    $0x4,%rdx
    6e92:	48 01 c2             	add    %rax,%rdx
    6e95:	8b 45 f0             	mov    -0x10(%rbp),%eax
    6e98:	89 02                	mov    %eax,(%rdx)
    6e9a:	48 8b 05 00 00 00 00 	mov    0x0(%rip),%rax        # 6ea1 <load_place_regions+0x6d1>
    6ea1:	8b 55 fc             	mov    -0x4(%rbp),%edx
    6ea4:	48 63 d2             	movslq %edx,%rdx
    6ea7:	48 c1 e2 03          	shl    $0x3,%rdx
    6eab:	48 01 d0             	add    %rdx,%rax
    6eae:	48 8b 00             	mov    (%rax),%rax
    6eb1:	8b 55 f8             	mov    -0x8(%rbp),%edx
    6eb4:	48 63 d2             	movslq %edx,%rdx
    6eb7:	48 c1 e2 04          	shl    $0x4,%rdx
    6ebb:	48 01 d0             	add    %rdx,%rax
    6ebe:	f3 0f 10 05 00 00 00 	movss  0x0(%rip),%xmm0        # 6ec6 <load_place_regions+0x6f6>
    6ec5:	00 
    6ec6:	f3 0f 5e 45 f0       	divss  -0x10(%rbp),%xmm0
    6ecb:	f3 0f 11 40 04       	movss  %xmm0,0x4(%rax)
    6ed0:	48 8b 05 00 00 00 00 	mov    0x0(%rip),%rax        # 6ed7 <load_place_regions+0x707>
    6ed7:	8b 55 fc             	mov    -0x4(%rbp),%edx
    6eda:	48 63 d2             	movslq %edx,%rdx
    6edd:	48 c1 e2 03          	shl    $0x3,%rdx
    6ee1:	48 01 d0             	add    %rdx,%rax
    6ee4:	48 8b 00             	mov    (%rax),%rax
    6ee7:	8b 55 f8             	mov    -0x8(%rbp),%edx
    6eea:	48 63 d2             	movslq %edx,%rdx
    6eed:	48 c1 e2 04          	shl    $0x4,%rdx
    6ef1:	48 01 c2             	add    %rax,%rdx
    6ef4:	8b 05 00 00 00 00    	mov    0x0(%rip),%eax        # 6efa <load_place_regions+0x72a>
    6efa:	89 42 08             	mov    %eax,0x8(%rdx)
    6efd:	48 8b 05 00 00 00 00 	mov    0x0(%rip),%rax        # 6f04 <load_place_regions+0x734>
    6f04:	8b 55 fc             	mov    -0x4(%rbp),%edx
    6f07:	48 63 d2             	movslq %edx,%rdx
    6f0a:	48 c1 e2 03          	shl    $0x3,%rdx
    6f0e:	48 01 d0             	add    %rdx,%rax
    6f11:	48 8b 00             	mov    (%rax),%rax
    6f14:	8b 55 f8             	mov    -0x8(%rbp),%edx
    6f17:	48 63 d2             	movslq %edx,%rdx
    6f1a:	48 c1 e2 04          	shl    $0x4,%rdx
    6f1e:	48 01 c2             	add    %rax,%rdx
    6f21:	8b 05 00 00 00 00    	mov    0x0(%rip),%eax        # 6f27 <load_place_regions+0x757>
    6f27:	89 42 0c             	mov    %eax,0xc(%rdx)
    6f2a:	83 45 f8 01          	addl   $0x1,-0x8(%rbp)
    6f2e:	8b 45 f8             	mov    -0x8(%rbp),%eax
    6f31:	3b 45 cc             	cmp    -0x34(%rbp),%eax
    6f34:	0f 8c 37 ff ff ff    	jl     6e71 <load_place_regions+0x6a1>
    6f3a:	83 45 fc 01          	addl   $0x1,-0x4(%rbp)
    6f3e:	8b 45 fc             	mov    -0x4(%rbp),%eax
    6f41:	3b 45 cc             	cmp    -0x34(%rbp),%eax
    6f44:	0f 8c 57 fc ff ff    	jl     6ba1 <load_place_regions+0x3d1>
    6f4a:	8b 05 00 00 00 00    	mov    0x0(%rip),%eax        # 6f50 <load_place_regions+0x780>
    6f50:	f3 0f 2a c0          	cvtsi2ss %eax,%xmm0
    6f54:	f3 0f 2a 4d cc       	cvtsi2ssl -0x34(%rbp),%xmm1
    6f59:	f3 0f 5e c1          	divss  %xmm1,%xmm0
    6f5d:	f3 0f 11 45 d4       	movss  %xmm0,-0x2c(%rbp)
    6f62:	8b 05 00 00 00 00    	mov    0x0(%rip),%eax        # 6f68 <load_place_regions+0x798>
    6f68:	f3 0f 2a c0          	cvtsi2ss %eax,%xmm0
    6f6c:	f3 0f 2a 4d cc       	cvtsi2ssl -0x34(%rbp),%xmm1
    6f71:	f3 0f 5e c1          	divss  %xmm1,%xmm0
    6f75:	f3 0f 11 45 d0       	movss  %xmm0,-0x30(%rbp)
    6f7a:	48 8b 15 00 00 00 00 	mov    0x0(%rip),%rdx        # 6f81 <load_place_regions+0x7b1>
    6f81:	8b 05 00 00 00 00    	mov    0x0(%rip),%eax        # 6f87 <load_place_regions+0x7b7>
    6f87:	89 02                	mov    %eax,(%rdx)
    6f89:	48 8b 15 00 00 00 00 	mov    0x0(%rip),%rdx        # 6f90 <load_place_regions+0x7c0>
    6f90:	8b 05 00 00 00 00    	mov    0x0(%rip),%eax        # 6f96 <load_place_regions+0x7c6>
    6f96:	89 02                	mov    %eax,(%rdx)
    6f98:	c7 45 fc 01 00 00 00 	movl   $0x1,-0x4(%rbp)
    6f9f:	eb 76                	jmp    7017 <load_place_regions+0x847>
    6fa1:	48 8b 05 00 00 00 00 	mov    0x0(%rip),%rax        # 6fa8 <load_place_regions+0x7d8>
    6fa8:	8b 55 fc             	mov    -0x4(%rbp),%edx
    6fab:	48 63 d2             	movslq %edx,%rdx
    6fae:	48 c1 e2 02          	shl    $0x2,%rdx
    6fb2:	48 01 d0             	add    %rdx,%rax
    6fb5:	48 8b 15 00 00 00 00 	mov    0x0(%rip),%rdx        # 6fbc <load_place_regions+0x7ec>
    6fbc:	8b 4d fc             	mov    -0x4(%rbp),%ecx
    6fbf:	48 63 c9             	movslq %ecx,%rcx
    6fc2:	48 83 e9 01          	sub    $0x1,%rcx
    6fc6:	48 c1 e1 02          	shl    $0x2,%rcx
    6fca:	48 01 ca             	add    %rcx,%rdx
    6fcd:	f3 0f 10 02          	movss  (%rdx),%xmm0
    6fd1:	f3 0f 58 45 d4       	addss  -0x2c(%rbp),%xmm0
    6fd6:	f3 0f 11 00          	movss  %xmm0,(%rax)
    6fda:	48 8b 05 00 00 00 00 	mov    0x0(%rip),%rax        # 6fe1 <load_place_regions+0x811>
    6fe1:	8b 55 fc             	mov    -0x4(%rbp),%edx
    6fe4:	48 63 d2             	movslq %edx,%rdx
    6fe7:	48 c1 e2 02          	shl    $0x2,%rdx
    6feb:	48 01 d0             	add    %rdx,%rax
    6fee:	48 8b 15 00 00 00 00 	mov    0x0(%rip),%rdx        # 6ff5 <load_place_regions+0x825>
    6ff5:	8b 4d fc             	mov    -0x4(%rbp),%ecx
    6ff8:	48 63 c9             	movslq %ecx,%rcx
    6ffb:	48 83 e9 01          	sub    $0x1,%rcx
    6fff:	48 c1 e1 02          	shl    $0x2,%rcx
    7003:	48 01 ca             	add    %rcx,%rdx
    7006:	f3 0f 10 02          	movss  (%rdx),%xmm0
    700a:	f3 0f 58 45 d0       	addss  -0x30(%rbp),%xmm0
    700f:	f3 0f 11 00          	movss  %xmm0,(%rax)
    7013:	83 45 fc 01          	addl   $0x1,-0x4(%rbp)
    7017:	8b 45 fc             	mov    -0x4(%rbp),%eax
    701a:	3b 45 cc             	cmp    -0x34(%rbp),%eax
    701d:	7e 82                	jle    6fa1 <load_place_regions+0x7d1>
    701f:	c9                   	leaveq 
    7020:	c3                   	retq   

0000000000007021 <free_unique_pin_list>:
    7021:	55                   	push   %rbp
    7022:	48 89 e5             	mov    %rsp,%rbp
    7025:	48 83 ec 10          	sub    $0x10,%rsp
    7029:	e8 00 00 00 00       	callq  702e <free_unique_pin_list+0xd>
    702e:	c7 45 fc 00 00 00 00 	movl   $0x0,-0x4(%rbp)
    7035:	c7 45 f8 00 00 00 00 	movl   $0x0,-0x8(%rbp)
    703c:	eb 44                	jmp    7082 <free_unique_pin_list+0x61>
    703e:	48 8b 05 00 00 00 00 	mov    0x0(%rip),%rax        # 7045 <free_unique_pin_list+0x24>
    7045:	8b 55 f8             	mov    -0x8(%rbp),%edx
    7048:	48 63 d2             	movslq %edx,%rdx
    704b:	48 c1 e2 02          	shl    $0x2,%rdx
    704f:	48 01 d0             	add    %rdx,%rax
    7052:	8b 00                	mov    (%rax),%eax
    7054:	85 c0                	test   %eax,%eax
    7056:	74 26                	je     707e <free_unique_pin_list+0x5d>
    7058:	48 8b 05 00 00 00 00 	mov    0x0(%rip),%rax        # 705f <free_unique_pin_list+0x3e>
    705f:	8b 55 f8             	mov    -0x8(%rbp),%edx
    7062:	48 63 d2             	movslq %edx,%rdx
    7065:	48 c1 e2 03          	shl    $0x3,%rdx
    7069:	48 01 d0             	add    %rdx,%rax
    706c:	48 8b 00             	mov    (%rax),%rax
    706f:	48 89 c7             	mov    %rax,%rdi
    7072:	e8 00 00 00 00       	callq  7077 <free_unique_pin_list+0x56>
    7077:	c7 45 fc 01 00 00 00 	movl   $0x1,-0x4(%rbp)
    707e:	83 45 f8 01          	addl   $0x1,-0x8(%rbp)
    7082:	8b 05 00 00 00 00    	mov    0x0(%rip),%eax        # 7088 <free_unique_pin_list+0x67>
    7088:	39 45 f8             	cmp    %eax,-0x8(%rbp)
    708b:	7c b1                	jl     703e <free_unique_pin_list+0x1d>
    708d:	83 7d fc 00          	cmpl   $0x0,-0x4(%rbp)
    7091:	74 0f                	je     70a2 <free_unique_pin_list+0x81>
    7093:	48 8b 05 00 00 00 00 	mov    0x0(%rip),%rax        # 709a <free_unique_pin_list+0x79>
    709a:	48 89 c7             	mov    %rax,%rdi
    709d:	e8 00 00 00 00       	callq  70a2 <free_unique_pin_list+0x81>
    70a2:	48 8b 05 00 00 00 00 	mov    0x0(%rip),%rax        # 70a9 <free_unique_pin_list+0x88>
    70a9:	48 89 c7             	mov    %rax,%rdi
    70ac:	e8 00 00 00 00       	callq  70b1 <free_unique_pin_list+0x90>
    70b1:	c9                   	leaveq 
    70b2:	c3                   	retq   

00000000000070b3 <alloc_and_load_unique_pin_list>:
    70b3:	55                   	push   %rbp
    70b4:	48 89 e5             	mov    %rsp,%rbp
    70b7:	53                   	push   %rbx
    70b8:	48 83 ec 38          	sub    $0x38,%rsp
    70bc:	e8 00 00 00 00       	callq  70c1 <alloc_and_load_unique_pin_list+0xe>
    70c1:	8b 05 00 00 00 00    	mov    0x0(%rip),%eax        # 70c7 <alloc_and_load_unique_pin_list+0x14>
    70c7:	48 98                	cltq   
    70c9:	be 04 00 00 00       	mov    $0x4,%esi
    70ce:	48 89 c7             	mov    %rax,%rdi
    70d1:	e8 00 00 00 00       	callq  70d6 <alloc_and_load_unique_pin_list+0x23>
    70d6:	48 89 05 00 00 00 00 	mov    %rax,0x0(%rip)        # 70dd <alloc_and_load_unique_pin_list+0x2a>
    70dd:	8b 05 00 00 00 00    	mov    0x0(%rip),%eax        # 70e3 <alloc_and_load_unique_pin_list+0x30>
    70e3:	48 98                	cltq   
    70e5:	be 04 00 00 00       	mov    $0x4,%esi
    70ea:	48 89 c7             	mov    %rax,%rdi
    70ed:	e8 00 00 00 00       	callq  70f2 <alloc_and_load_unique_pin_list+0x3f>
    70f2:	48 89 45 d0          	mov    %rax,-0x30(%rbp)
    70f6:	c7 45 e0 00 00 00 00 	movl   $0x0,-0x20(%rbp)
    70fd:	c7 45 ec 00 00 00 00 	movl   $0x0,-0x14(%rbp)
    7104:	e9 a5 02 00 00       	jmpq   73ae <alloc_and_load_unique_pin_list+0x2fb>
    7109:	c7 45 e4 00 00 00 00 	movl   $0x0,-0x1c(%rbp)
    7110:	c7 45 e8 00 00 00 00 	movl   $0x0,-0x18(%rbp)
    7117:	eb 72                	jmp    718b <alloc_and_load_unique_pin_list+0xd8>
    7119:	48 8b 0d 00 00 00 00 	mov    0x0(%rip),%rcx        # 7120 <alloc_and_load_unique_pin_list+0x6d>
    7120:	8b 45 ec             	mov    -0x14(%rbp),%eax
    7123:	48 63 d0             	movslq %eax,%rdx
    7126:	48 89 d0             	mov    %rdx,%rax
    7129:	48 c1 e0 02          	shl    $0x2,%rax
    712d:	48 01 d0             	add    %rdx,%rax
    7130:	48 c1 e0 03          	shl    $0x3,%rax
    7134:	48 01 c8             	add    %rcx,%rax
    7137:	48 8b 40 10          	mov    0x10(%rax),%rax
    713b:	8b 55 e8             	mov    -0x18(%rbp),%edx
    713e:	48 63 d2             	movslq %edx,%rdx
    7141:	48 c1 e2 02          	shl    $0x2,%rdx
    7145:	48 01 d0             	add    %rdx,%rax
    7148:	8b 00                	mov    (%rax),%eax
    714a:	89 45 cc             	mov    %eax,-0x34(%rbp)
    714d:	8b 45 cc             	mov    -0x34(%rbp),%eax
    7150:	48 98                	cltq   
    7152:	48 8d 14 85 00 00 00 	lea    0x0(,%rax,4),%rdx
    7159:	00 
    715a:	48 8b 45 d0          	mov    -0x30(%rbp),%rax
    715e:	48 01 d0             	add    %rdx,%rax
    7161:	8b 10                	mov    (%rax),%edx
    7163:	83 c2 01             	add    $0x1,%edx
    7166:	89 10                	mov    %edx,(%rax)
    7168:	8b 45 cc             	mov    -0x34(%rbp),%eax
    716b:	48 98                	cltq   
    716d:	48 8d 14 85 00 00 00 	lea    0x0(,%rax,4),%rdx
    7174:	00 
    7175:	48 8b 45 d0          	mov    -0x30(%rbp),%rax
    7179:	48 01 d0             	add    %rdx,%rax
    717c:	8b 00                	mov    (%rax),%eax
    717e:	83 f8 01             	cmp    $0x1,%eax
    7181:	7e 04                	jle    7187 <alloc_and_load_unique_pin_list+0xd4>
    7183:	83 45 e4 01          	addl   $0x1,-0x1c(%rbp)
    7187:	83 45 e8 01          	addl   $0x1,-0x18(%rbp)
    718b:	48 8b 0d 00 00 00 00 	mov    0x0(%rip),%rcx        # 7192 <alloc_and_load_unique_pin_list+0xdf>
    7192:	8b 45 ec             	mov    -0x14(%rbp),%eax
    7195:	48 63 d0             	movslq %eax,%rdx
    7198:	48 89 d0             	mov    %rdx,%rax
    719b:	48 c1 e0 02          	shl    $0x2,%rax
    719f:	48 01 d0             	add    %rdx,%rax
    71a2:	48 c1 e0 03          	shl    $0x3,%rax
    71a6:	48 01 c8             	add    %rcx,%rax
    71a9:	8b 40 08             	mov    0x8(%rax),%eax
    71ac:	3b 45 e8             	cmp    -0x18(%rbp),%eax
    71af:	0f 8d 64 ff ff ff    	jge    7119 <alloc_and_load_unique_pin_list+0x66>
    71b5:	83 7d e4 00          	cmpl   $0x0,-0x1c(%rbp)
    71b9:	0f 8e 6a 01 00 00    	jle    7329 <alloc_and_load_unique_pin_list+0x276>
    71bf:	48 8b 05 00 00 00 00 	mov    0x0(%rip),%rax        # 71c6 <alloc_and_load_unique_pin_list+0x113>
    71c6:	8b 55 ec             	mov    -0x14(%rbp),%edx
    71c9:	48 63 d2             	movslq %edx,%rdx
    71cc:	48 c1 e2 02          	shl    $0x2,%rdx
    71d0:	48 01 c2             	add    %rax,%rdx
    71d3:	8b 45 e4             	mov    -0x1c(%rbp),%eax
    71d6:	89 02                	mov    %eax,(%rdx)
    71d8:	83 7d e0 00          	cmpl   $0x0,-0x20(%rbp)
    71dc:	75 23                	jne    7201 <alloc_and_load_unique_pin_list+0x14e>
    71de:	8b 05 00 00 00 00    	mov    0x0(%rip),%eax        # 71e4 <alloc_and_load_unique_pin_list+0x131>
    71e4:	48 98                	cltq   
    71e6:	be 08 00 00 00       	mov    $0x8,%esi
    71eb:	48 89 c7             	mov    %rax,%rdi
    71ee:	e8 00 00 00 00       	callq  71f3 <alloc_and_load_unique_pin_list+0x140>
    71f3:	48 89 05 00 00 00 00 	mov    %rax,0x0(%rip)        # 71fa <alloc_and_load_unique_pin_list+0x147>
    71fa:	c7 45 e0 01 00 00 00 	movl   $0x1,-0x20(%rbp)
    7201:	48 8b 05 00 00 00 00 	mov    0x0(%rip),%rax        # 7208 <alloc_and_load_unique_pin_list+0x155>
    7208:	8b 55 ec             	mov    -0x14(%rbp),%edx
    720b:	48 63 d2             	movslq %edx,%rdx
    720e:	48 c1 e2 03          	shl    $0x3,%rdx
    7212:	48 8d 1c 10          	lea    (%rax,%rdx,1),%rbx
    7216:	48 8b 0d 00 00 00 00 	mov    0x0(%rip),%rcx        # 721d <alloc_and_load_unique_pin_list+0x16a>
    721d:	8b 45 ec             	mov    -0x14(%rbp),%eax
    7220:	48 63 d0             	movslq %eax,%rdx
    7223:	48 89 d0             	mov    %rdx,%rax
    7226:	48 c1 e0 02          	shl    $0x2,%rax
    722a:	48 01 d0             	add    %rdx,%rax
    722d:	48 c1 e0 03          	shl    $0x3,%rax
    7231:	48 01 c8             	add    %rcx,%rax
    7234:	8b 40 08             	mov    0x8(%rax),%eax
    7237:	83 c0 01             	add    $0x1,%eax
    723a:	2b 45 e4             	sub    -0x1c(%rbp),%eax
    723d:	48 98                	cltq   
    723f:	48 c1 e0 02          	shl    $0x2,%rax
    7243:	48 89 c7             	mov    %rax,%rdi
    7246:	e8 00 00 00 00       	callq  724b <alloc_and_load_unique_pin_list+0x198>
    724b:	48 89 03             	mov    %rax,(%rbx)
    724e:	c7 45 dc 00 00 00 00 	movl   $0x0,-0x24(%rbp)
    7255:	c7 45 e8 00 00 00 00 	movl   $0x0,-0x18(%rbp)
    725c:	e9 99 00 00 00       	jmpq   72fa <alloc_and_load_unique_pin_list+0x247>
    7261:	48 8b 0d 00 00 00 00 	mov    0x0(%rip),%rcx        # 7268 <alloc_and_load_unique_pin_list+0x1b5>
    7268:	8b 45 ec             	mov    -0x14(%rbp),%eax
    726b:	48 63 d0             	movslq %eax,%rdx
    726e:	48 89 d0             	mov    %rdx,%rax
    7271:	48 c1 e0 02          	shl    $0x2,%rax
    7275:	48 01 d0             	add    %rdx,%rax
    7278:	48 c1 e0 03          	shl    $0x3,%rax
    727c:	48 01 c8             	add    %rcx,%rax
    727f:	48 8b 40 10          	mov    0x10(%rax),%rax
    7283:	8b 55 e8             	mov    -0x18(%rbp),%edx
    7286:	48 63 d2             	movslq %edx,%rdx
    7289:	48 c1 e2 02          	shl    $0x2,%rdx
    728d:	48 01 d0             	add    %rdx,%rax
    7290:	8b 00                	mov    (%rax),%eax
    7292:	89 45 cc             	mov    %eax,-0x34(%rbp)
    7295:	8b 45 cc             	mov    -0x34(%rbp),%eax
    7298:	48 98                	cltq   
    729a:	48 8d 14 85 00 00 00 	lea    0x0(,%rax,4),%rdx
    72a1:	00 
    72a2:	48 8b 45 d0          	mov    -0x30(%rbp),%rax
    72a6:	48 01 d0             	add    %rdx,%rax
    72a9:	8b 00                	mov    (%rax),%eax
    72ab:	85 c0                	test   %eax,%eax
    72ad:	74 47                	je     72f6 <alloc_and_load_unique_pin_list+0x243>
    72af:	8b 45 cc             	mov    -0x34(%rbp),%eax
    72b2:	48 98                	cltq   
    72b4:	48 8d 14 85 00 00 00 	lea    0x0(,%rax,4),%rdx
    72bb:	00 
    72bc:	48 8b 45 d0          	mov    -0x30(%rbp),%rax
    72c0:	48 01 d0             	add    %rdx,%rax
    72c3:	c7 00 00 00 00 00    	movl   $0x0,(%rax)
    72c9:	48 8b 05 00 00 00 00 	mov    0x0(%rip),%rax        # 72d0 <alloc_and_load_unique_pin_list+0x21d>
    72d0:	8b 55 ec             	mov    -0x14(%rbp),%edx
    72d3:	48 63 d2             	movslq %edx,%rdx
    72d6:	48 c1 e2 03          	shl    $0x3,%rdx
    72da:	48 01 d0             	add    %rdx,%rax
    72dd:	48 8b 00             	mov    (%rax),%rax
    72e0:	8b 55 dc             	mov    -0x24(%rbp),%edx
    72e3:	48 63 d2             	movslq %edx,%rdx
    72e6:	48 c1 e2 02          	shl    $0x2,%rdx
    72ea:	48 01 c2             	add    %rax,%rdx
    72ed:	8b 45 cc             	mov    -0x34(%rbp),%eax
    72f0:	89 02                	mov    %eax,(%rdx)
    72f2:	83 45 dc 01          	addl   $0x1,-0x24(%rbp)
    72f6:	83 45 e8 01          	addl   $0x1,-0x18(%rbp)
    72fa:	48 8b 0d 00 00 00 00 	mov    0x0(%rip),%rcx        # 7301 <alloc_and_load_unique_pin_list+0x24e>
    7301:	8b 45 ec             	mov    -0x14(%rbp),%eax
    7304:	48 63 d0             	movslq %eax,%rdx
    7307:	48 89 d0             	mov    %rdx,%rax
    730a:	48 c1 e0 02          	shl    $0x2,%rax
    730e:	48 01 d0             	add    %rdx,%rax
    7311:	48 c1 e0 03          	shl    $0x3,%rax
    7315:	48 01 c8             	add    %rcx,%rax
    7318:	8b 40 08             	mov    0x8(%rax),%eax
    731b:	3b 45 e8             	cmp    -0x18(%rbp),%eax
    731e:	0f 8d 3d ff ff ff    	jge    7261 <alloc_and_load_unique_pin_list+0x1ae>
    7324:	e9 81 00 00 00       	jmpq   73aa <alloc_and_load_unique_pin_list+0x2f7>
    7329:	c7 45 e8 00 00 00 00 	movl   $0x0,-0x18(%rbp)
    7330:	eb 52                	jmp    7384 <alloc_and_load_unique_pin_list+0x2d1>
    7332:	48 8b 0d 00 00 00 00 	mov    0x0(%rip),%rcx        # 7339 <alloc_and_load_unique_pin_list+0x286>
    7339:	8b 45 ec             	mov    -0x14(%rbp),%eax
    733c:	48 63 d0             	movslq %eax,%rdx
    733f:	48 89 d0             	mov    %rdx,%rax
    7342:	48 c1 e0 02          	shl    $0x2,%rax
    7346:	48 01 d0             	add    %rdx,%rax
    7349:	48 c1 e0 03          	shl    $0x3,%rax
    734d:	48 01 c8             	add    %rcx,%rax
    7350:	48 8b 40 10          	mov    0x10(%rax),%rax
    7354:	8b 55 e8             	mov    -0x18(%rbp),%edx
    7357:	48 63 d2             	movslq %edx,%rdx
    735a:	48 c1 e2 02          	shl    $0x2,%rdx
    735e:	48 01 d0             	add    %rdx,%rax
    7361:	8b 00                	mov    (%rax),%eax
    7363:	89 45 cc             	mov    %eax,-0x34(%rbp)
    7366:	8b 45 cc             	mov    -0x34(%rbp),%eax
    7369:	48 98                	cltq   
    736b:	48 8d 14 85 00 00 00 	lea    0x0(,%rax,4),%rdx
    7372:	00 
    7373:	48 8b 45 d0          	mov    -0x30(%rbp),%rax
    7377:	48 01 d0             	add    %rdx,%rax
    737a:	c7 00 00 00 00 00    	movl   $0x0,(%rax)
    7380:	83 45 e8 01          	addl   $0x1,-0x18(%rbp)
    7384:	48 8b 0d 00 00 00 00 	mov    0x0(%rip),%rcx        # 738b <alloc_and_load_unique_pin_list+0x2d8>
    738b:	8b 45 ec             	mov    -0x14(%rbp),%eax
    738e:	48 63 d0             	movslq %eax,%rdx
    7391:	48 89 d0             	mov    %rdx,%rax
    7394:	48 c1 e0 02          	shl    $0x2,%rax
    7398:	48 01 d0             	add    %rdx,%rax
    739b:	48 c1 e0 03          	shl    $0x3,%rax
    739f:	48 01 c8             	add    %rcx,%rax
    73a2:	8b 40 08             	mov    0x8(%rax),%eax
    73a5:	3b 45 e8             	cmp    -0x18(%rbp),%eax
    73a8:	7d 88                	jge    7332 <alloc_and_load_unique_pin_list+0x27f>
    73aa:	83 45 ec 01          	addl   $0x1,-0x14(%rbp)
    73ae:	8b 05 00 00 00 00    	mov    0x0(%rip),%eax        # 73b4 <alloc_and_load_unique_pin_list+0x301>
    73b4:	39 45 ec             	cmp    %eax,-0x14(%rbp)
    73b7:	0f 8c 4c fd ff ff    	jl     7109 <alloc_and_load_unique_pin_list+0x56>
    73bd:	48 8b 45 d0          	mov    -0x30(%rbp),%rax
    73c1:	48 89 c7             	mov    %rax,%rdi
    73c4:	e8 00 00 00 00       	callq  73c9 <alloc_and_load_unique_pin_list+0x316>
    73c9:	48 83 c4 38          	add    $0x38,%rsp
    73cd:	5b                   	pop    %rbx
    73ce:	5d                   	pop    %rbp
    73cf:	c3                   	retq   

00000000000073d0 <get_bb_from_scratch>:
    73d0:	55                   	push   %rbp
    73d1:	48 89 e5             	mov    %rsp,%rbp
    73d4:	48 83 ec 58          	sub    $0x58,%rsp
    73d8:	e8 00 00 00 00       	callq  73dd <get_bb_from_scratch+0xd>
    73dd:	89 7d bc             	mov    %edi,-0x44(%rbp)
    73e0:	48 89 75 b0          	mov    %rsi,-0x50(%rbp)
    73e4:	48 89 55 a8          	mov    %rdx,-0x58(%rbp)
    73e8:	48 8b 05 00 00 00 00 	mov    0x0(%rip),%rax        # 73ef <get_bb_from_scratch+0x1f>
    73ef:	8b 55 bc             	mov    -0x44(%rbp),%edx
    73f2:	48 63 d2             	movslq %edx,%rdx
    73f5:	48 c1 e2 02          	shl    $0x2,%rdx
    73f9:	48 01 d0             	add    %rdx,%rax
    73fc:	8b 00                	mov    (%rax),%eax
    73fe:	85 c0                	test   %eax,%eax
    7400:	75 4f                	jne    7451 <get_bb_from_scratch+0x81>
    7402:	48 8b 0d 00 00 00 00 	mov    0x0(%rip),%rcx        # 7409 <get_bb_from_scratch+0x39>
    7409:	8b 45 bc             	mov    -0x44(%rbp),%eax
    740c:	48 63 d0             	movslq %eax,%rdx
    740f:	48 89 d0             	mov    %rdx,%rax
    7412:	48 c1 e0 02          	shl    $0x2,%rax
    7416:	48 01 d0             	add    %rdx,%rax
    7419:	48 c1 e0 03          	shl    $0x3,%rax
    741d:	48 01 c8             	add    %rcx,%rax
    7420:	48 8b 40 10          	mov    0x10(%rax),%rax
    7424:	48 89 45 d0          	mov    %rax,-0x30(%rbp)
    7428:	48 8b 0d 00 00 00 00 	mov    0x0(%rip),%rcx        # 742f <get_bb_from_scratch+0x5f>
    742f:	8b 45 bc             	mov    -0x44(%rbp),%eax
    7432:	48 63 d0             	movslq %eax,%rdx
    7435:	48 89 d0             	mov    %rdx,%rax
    7438:	48 c1 e0 02          	shl    $0x2,%rax
    743c:	48 01 d0             	add    %rdx,%rax
    743f:	48 c1 e0 03          	shl    $0x3,%rax
    7443:	48 01 c8             	add    %rcx,%rax
    7446:	8b 40 08             	mov    0x8(%rax),%eax
    7449:	83 c0 01             	add    $0x1,%eax
    744c:	89 45 d8             	mov    %eax,-0x28(%rbp)
    744f:	eb 5e                	jmp    74af <get_bb_from_scratch+0xdf>
    7451:	48 8b 05 00 00 00 00 	mov    0x0(%rip),%rax        # 7458 <get_bb_from_scratch+0x88>
    7458:	8b 55 bc             	mov    -0x44(%rbp),%edx
    745b:	48 63 d2             	movslq %edx,%rdx
    745e:	48 c1 e2 03          	shl    $0x3,%rdx
    7462:	48 01 d0             	add    %rdx,%rax
    7465:	48 8b 00             	mov    (%rax),%rax
    7468:	48 89 45 d0          	mov    %rax,-0x30(%rbp)
    746c:	48 8b 0d 00 00 00 00 	mov    0x0(%rip),%rcx        # 7473 <get_bb_from_scratch+0xa3>
    7473:	8b 45 bc             	mov    -0x44(%rbp),%eax
    7476:	48 63 d0             	movslq %eax,%rdx
    7479:	48 89 d0             	mov    %rdx,%rax
    747c:	48 c1 e0 02          	shl    $0x2,%rax
    7480:	48 01 d0             	add    %rdx,%rax
    7483:	48 c1 e0 03          	shl    $0x3,%rax
    7487:	48 01 c8             	add    %rcx,%rax
    748a:	8b 40 08             	mov    0x8(%rax),%eax
    748d:	8d 48 01             	lea    0x1(%rax),%ecx
    7490:	48 8b 05 00 00 00 00 	mov    0x0(%rip),%rax        # 7497 <get_bb_from_scratch+0xc7>
    7497:	8b 55 bc             	mov    -0x44(%rbp),%edx
    749a:	48 63 d2             	movslq %edx,%rdx
    749d:	48 c1 e2 02          	shl    $0x2,%rdx
    74a1:	48 01 d0             	add    %rdx,%rax
    74a4:	8b 00                	mov    (%rax),%eax
    74a6:	89 ca                	mov    %ecx,%edx
    74a8:	29 c2                	sub    %eax,%edx
    74aa:	89 d0                	mov    %edx,%eax
    74ac:	89 45 d8             	mov    %eax,-0x28(%rbp)
    74af:	48 8b 0d 00 00 00 00 	mov    0x0(%rip),%rcx        # 74b6 <get_bb_from_scratch+0xe6>
    74b6:	48 8b 45 d0          	mov    -0x30(%rbp),%rax
    74ba:	8b 00                	mov    (%rax),%eax
    74bc:	48 63 d0             	movslq %eax,%rdx
    74bf:	48 89 d0             	mov    %rdx,%rax
    74c2:	48 c1 e0 02          	shl    $0x2,%rax
    74c6:	48 01 d0             	add    %rdx,%rax
    74c9:	48 c1 e0 03          	shl    $0x3,%rax
    74cd:	48 01 c8             	add    %rcx,%rax
    74d0:	8b 40 18             	mov    0x18(%rax),%eax
    74d3:	89 45 cc             	mov    %eax,-0x34(%rbp)
    74d6:	48 8b 0d 00 00 00 00 	mov    0x0(%rip),%rcx        # 74dd <get_bb_from_scratch+0x10d>
    74dd:	48 8b 45 d0          	mov    -0x30(%rbp),%rax
    74e1:	8b 00                	mov    (%rax),%eax
    74e3:	48 63 d0             	movslq %eax,%rdx
    74e6:	48 89 d0             	mov    %rdx,%rax
    74e9:	48 c1 e0 02          	shl    $0x2,%rax
    74ed:	48 01 d0             	add    %rdx,%rax
    74f0:	48 c1 e0 03          	shl    $0x3,%rax
    74f4:	48 01 c8             	add    %rcx,%rax
    74f7:	8b 40 1c             	mov    0x1c(%rax),%eax
    74fa:	89 45 c8             	mov    %eax,-0x38(%rbp)
    74fd:	8b 05 00 00 00 00    	mov    0x0(%rip),%eax        # 7503 <get_bb_from_scratch+0x133>
    7503:	39 45 cc             	cmp    %eax,-0x34(%rbp)
    7506:	0f 4e 45 cc          	cmovle -0x34(%rbp),%eax
    750a:	ba 01 00 00 00       	mov    $0x1,%edx
    750f:	85 c0                	test   %eax,%eax
    7511:	0f 4e c2             	cmovle %edx,%eax
    7514:	89 45 cc             	mov    %eax,-0x34(%rbp)
    7517:	8b 05 00 00 00 00    	mov    0x0(%rip),%eax        # 751d <get_bb_from_scratch+0x14d>
    751d:	39 45 c8             	cmp    %eax,-0x38(%rbp)
    7520:	0f 4e 45 c8          	cmovle -0x38(%rbp),%eax
    7524:	ba 01 00 00 00       	mov    $0x1,%edx
    7529:	85 c0                	test   %eax,%eax
    752b:	0f 4e c2             	cmovle %edx,%eax
    752e:	89 45 c8             	mov    %eax,-0x38(%rbp)
    7531:	8b 45 cc             	mov    -0x34(%rbp),%eax
    7534:	89 45 f8             	mov    %eax,-0x8(%rbp)
    7537:	8b 45 c8             	mov    -0x38(%rbp),%eax
    753a:	89 45 f0             	mov    %eax,-0x10(%rbp)
    753d:	8b 45 cc             	mov    -0x34(%rbp),%eax
    7540:	89 45 f4             	mov    %eax,-0xc(%rbp)
    7543:	8b 45 c8             	mov    -0x38(%rbp),%eax
    7546:	89 45 ec             	mov    %eax,-0x14(%rbp)
    7549:	c7 45 e8 01 00 00 00 	movl   $0x1,-0x18(%rbp)
    7550:	c7 45 e0 01 00 00 00 	movl   $0x1,-0x20(%rbp)
    7557:	c7 45 e4 01 00 00 00 	movl   $0x1,-0x1c(%rbp)
    755e:	c7 45 dc 01 00 00 00 	movl   $0x1,-0x24(%rbp)
    7565:	c7 45 fc 01 00 00 00 	movl   $0x1,-0x4(%rbp)
    756c:	e9 25 01 00 00       	jmpq   7696 <get_bb_from_scratch+0x2c6>
    7571:	8b 45 fc             	mov    -0x4(%rbp),%eax
    7574:	48 98                	cltq   
    7576:	48 8d 14 85 00 00 00 	lea    0x0(,%rax,4),%rdx
    757d:	00 
    757e:	48 8b 45 d0          	mov    -0x30(%rbp),%rax
    7582:	48 01 d0             	add    %rdx,%rax
    7585:	8b 00                	mov    (%rax),%eax
    7587:	89 45 c4             	mov    %eax,-0x3c(%rbp)
    758a:	48 8b 0d 00 00 00 00 	mov    0x0(%rip),%rcx        # 7591 <get_bb_from_scratch+0x1c1>
    7591:	8b 45 c4             	mov    -0x3c(%rbp),%eax
    7594:	48 63 d0             	movslq %eax,%rdx
    7597:	48 89 d0             	mov    %rdx,%rax
    759a:	48 c1 e0 02          	shl    $0x2,%rax
    759e:	48 01 d0             	add    %rdx,%rax
    75a1:	48 c1 e0 03          	shl    $0x3,%rax
    75a5:	48 01 c8             	add    %rcx,%rax
    75a8:	8b 40 18             	mov    0x18(%rax),%eax
    75ab:	89 45 cc             	mov    %eax,-0x34(%rbp)
    75ae:	48 8b 0d 00 00 00 00 	mov    0x0(%rip),%rcx        # 75b5 <get_bb_from_scratch+0x1e5>
    75b5:	8b 45 c4             	mov    -0x3c(%rbp),%eax
    75b8:	48 63 d0             	movslq %eax,%rdx
    75bb:	48 89 d0             	mov    %rdx,%rax
    75be:	48 c1 e0 02          	shl    $0x2,%rax
    75c2:	48 01 d0             	add    %rdx,%rax
    75c5:	48 c1 e0 03          	shl    $0x3,%rax
    75c9:	48 01 c8             	add    %rcx,%rax
    75cc:	8b 40 1c             	mov    0x1c(%rax),%eax
    75cf:	89 45 c8             	mov    %eax,-0x38(%rbp)
    75d2:	8b 05 00 00 00 00    	mov    0x0(%rip),%eax        # 75d8 <get_bb_from_scratch+0x208>
    75d8:	39 45 cc             	cmp    %eax,-0x34(%rbp)
    75db:	0f 4e 45 cc          	cmovle -0x34(%rbp),%eax
    75df:	ba 01 00 00 00       	mov    $0x1,%edx
    75e4:	85 c0                	test   %eax,%eax
    75e6:	0f 4e c2             	cmovle %edx,%eax
    75e9:	89 45 cc             	mov    %eax,-0x34(%rbp)
    75ec:	8b 05 00 00 00 00    	mov    0x0(%rip),%eax        # 75f2 <get_bb_from_scratch+0x222>
    75f2:	39 45 c8             	cmp    %eax,-0x38(%rbp)
    75f5:	0f 4e 45 c8          	cmovle -0x38(%rbp),%eax
    75f9:	ba 01 00 00 00       	mov    $0x1,%edx
    75fe:	85 c0                	test   %eax,%eax
    7600:	0f 4e c2             	cmovle %edx,%eax
    7603:	89 45 c8             	mov    %eax,-0x38(%rbp)
    7606:	8b 45 cc             	mov    -0x34(%rbp),%eax
    7609:	3b 45 f8             	cmp    -0x8(%rbp),%eax
    760c:	75 04                	jne    7612 <get_bb_from_scratch+0x242>
    760e:	83 45 e8 01          	addl   $0x1,-0x18(%rbp)
    7612:	8b 45 cc             	mov    -0x34(%rbp),%eax
    7615:	3b 45 f4             	cmp    -0xc(%rbp),%eax
    7618:	75 06                	jne    7620 <get_bb_from_scratch+0x250>
    761a:	83 45 e4 01          	addl   $0x1,-0x1c(%rbp)
    761e:	eb 2c                	jmp    764c <get_bb_from_scratch+0x27c>
    7620:	8b 45 cc             	mov    -0x34(%rbp),%eax
    7623:	3b 45 f8             	cmp    -0x8(%rbp),%eax
    7626:	7d 0f                	jge    7637 <get_bb_from_scratch+0x267>
    7628:	8b 45 cc             	mov    -0x34(%rbp),%eax
    762b:	89 45 f8             	mov    %eax,-0x8(%rbp)
    762e:	c7 45 e8 01 00 00 00 	movl   $0x1,-0x18(%rbp)
    7635:	eb 15                	jmp    764c <get_bb_from_scratch+0x27c>
    7637:	8b 45 cc             	mov    -0x34(%rbp),%eax
    763a:	3b 45 f4             	cmp    -0xc(%rbp),%eax
    763d:	7e 0d                	jle    764c <get_bb_from_scratch+0x27c>
    763f:	8b 45 cc             	mov    -0x34(%rbp),%eax
    7642:	89 45 f4             	mov    %eax,-0xc(%rbp)
    7645:	c7 45 e4 01 00 00 00 	movl   $0x1,-0x1c(%rbp)
    764c:	8b 45 c8             	mov    -0x38(%rbp),%eax
    764f:	3b 45 f0             	cmp    -0x10(%rbp),%eax
    7652:	75 04                	jne    7658 <get_bb_from_scratch+0x288>
    7654:	83 45 e0 01          	addl   $0x1,-0x20(%rbp)
    7658:	8b 45 c8             	mov    -0x38(%rbp),%eax
    765b:	3b 45 ec             	cmp    -0x14(%rbp),%eax
    765e:	75 06                	jne    7666 <get_bb_from_scratch+0x296>
    7660:	83 45 dc 01          	addl   $0x1,-0x24(%rbp)
    7664:	eb 2c                	jmp    7692 <get_bb_from_scratch+0x2c2>
    7666:	8b 45 c8             	mov    -0x38(%rbp),%eax
    7669:	3b 45 f0             	cmp    -0x10(%rbp),%eax
    766c:	7d 0f                	jge    767d <get_bb_from_scratch+0x2ad>
    766e:	8b 45 c8             	mov    -0x38(%rbp),%eax
    7671:	89 45 f0             	mov    %eax,-0x10(%rbp)
    7674:	c7 45 e0 01 00 00 00 	movl   $0x1,-0x20(%rbp)
    767b:	eb 15                	jmp    7692 <get_bb_from_scratch+0x2c2>
    767d:	8b 45 c8             	mov    -0x38(%rbp),%eax
    7680:	3b 45 ec             	cmp    -0x14(%rbp),%eax
    7683:	7e 0d                	jle    7692 <get_bb_from_scratch+0x2c2>
    7685:	8b 45 c8             	mov    -0x38(%rbp),%eax
    7688:	89 45 ec             	mov    %eax,-0x14(%rbp)
    768b:	c7 45 dc 01 00 00 00 	movl   $0x1,-0x24(%rbp)
    7692:	83 45 fc 01          	addl   $0x1,-0x4(%rbp)
    7696:	8b 45 fc             	mov    -0x4(%rbp),%eax
    7699:	3b 45 d8             	cmp    -0x28(%rbp),%eax
    769c:	0f 8c cf fe ff ff    	jl     7571 <get_bb_from_scratch+0x1a1>
    76a2:	48 8b 45 b0          	mov    -0x50(%rbp),%rax
    76a6:	8b 55 f8             	mov    -0x8(%rbp),%edx
    76a9:	89 10                	mov    %edx,(%rax)
    76ab:	48 8b 45 b0          	mov    -0x50(%rbp),%rax
    76af:	8b 55 f4             	mov    -0xc(%rbp),%edx
    76b2:	89 50 04             	mov    %edx,0x4(%rax)
    76b5:	48 8b 45 b0          	mov    -0x50(%rbp),%rax
    76b9:	8b 55 f0             	mov    -0x10(%rbp),%edx
    76bc:	89 50 08             	mov    %edx,0x8(%rax)
    76bf:	48 8b 45 b0          	mov    -0x50(%rbp),%rax
    76c3:	8b 55 ec             	mov    -0x14(%rbp),%edx
    76c6:	89 50 0c             	mov    %edx,0xc(%rax)
    76c9:	48 8b 45 a8          	mov    -0x58(%rbp),%rax
    76cd:	8b 55 e8             	mov    -0x18(%rbp),%edx
    76d0:	89 10                	mov    %edx,(%rax)
    76d2:	48 8b 45 a8          	mov    -0x58(%rbp),%rax
    76d6:	8b 55 e4             	mov    -0x1c(%rbp),%edx
    76d9:	89 50 04             	mov    %edx,0x4(%rax)
    76dc:	48 8b 45 a8          	mov    -0x58(%rbp),%rax
    76e0:	8b 55 e0             	mov    -0x20(%rbp),%edx
    76e3:	89 50 08             	mov    %edx,0x8(%rax)
    76e6:	48 8b 45 a8          	mov    -0x58(%rbp),%rax
    76ea:	8b 55 dc             	mov    -0x24(%rbp),%edx
    76ed:	89 50 0c             	mov    %edx,0xc(%rax)
    76f0:	c9                   	leaveq 
    76f1:	c3                   	retq   

00000000000076f2 <get_net_wirelength_estimate>:
    76f2:	55                   	push   %rbp
    76f3:	48 89 e5             	mov    %rsp,%rbp
    76f6:	48 83 ec 28          	sub    $0x28,%rsp
    76fa:	e8 00 00 00 00       	callq  76ff <get_net_wirelength_estimate+0xd>
    76ff:	89 7d ec             	mov    %edi,-0x14(%rbp)
    7702:	48 89 75 e0          	mov    %rsi,-0x20(%rbp)
    7706:	48 8b 0d 00 00 00 00 	mov    0x0(%rip),%rcx        # 770d <get_net_wirelength_estimate+0x1b>
    770d:	8b 45 ec             	mov    -0x14(%rbp),%eax
    7710:	48 63 d0             	movslq %eax,%rdx
    7713:	48 89 d0             	mov    %rdx,%rax
    7716:	48 c1 e0 02          	shl    $0x2,%rax
    771a:	48 01 d0             	add    %rdx,%rax
    771d:	48 c1 e0 03          	shl    $0x3,%rax
    7721:	48 01 c8             	add    %rcx,%rax
    7724:	8b 40 08             	mov    0x8(%rax),%eax
    7727:	83 c0 01             	add    $0x1,%eax
    772a:	83 f8 32             	cmp    $0x32,%eax
    772d:	7e 73                	jle    77a2 <get_net_wirelength_estimate+0xb0>
    772f:	48 8b 0d 00 00 00 00 	mov    0x0(%rip),%rcx        # 7736 <get_net_wirelength_estimate+0x44>
    7736:	8b 45 ec             	mov    -0x14(%rbp),%eax
    7739:	48 63 d0             	movslq %eax,%rdx
    773c:	48 89 d0             	mov    %rdx,%rax
    773f:	48 c1 e0 02          	shl    $0x2,%rax
    7743:	48 01 d0             	add    %rdx,%rax
    7746:	48 c1 e0 03          	shl    $0x3,%rax
    774a:	48 01 c8             	add    %rcx,%rax
    774d:	8b 40 08             	mov    0x8(%rax),%eax
    7750:	83 c0 01             	add    $0x1,%eax
    7753:	83 f8 54             	cmp    $0x54,%eax
    7756:	7f 4a                	jg     77a2 <get_net_wirelength_estimate+0xb0>
    7758:	48 8b 0d 00 00 00 00 	mov    0x0(%rip),%rcx        # 775f <get_net_wirelength_estimate+0x6d>
    775f:	8b 45 ec             	mov    -0x14(%rbp),%eax
    7762:	48 63 d0             	movslq %eax,%rdx
    7765:	48 89 d0             	mov    %rdx,%rax
    7768:	48 c1 e0 02          	shl    $0x2,%rax
    776c:	48 01 d0             	add    %rdx,%rax
    776f:	48 c1 e0 03          	shl    $0x3,%rax
    7773:	48 01 c8             	add    %rcx,%rax
    7776:	8b 40 08             	mov    0x8(%rax),%eax
    7779:	83 e8 31             	sub    $0x31,%eax
    777c:	f2 0f 2a c0          	cvtsi2sd %eax,%xmm0
    7780:	f2 0f 10 0d 00 00 00 	movsd  0x0(%rip),%xmm1        # 7788 <get_net_wirelength_estimate+0x96>
    7787:	00 
    7788:	f2 0f 59 c1          	mulsd  %xmm1,%xmm0
    778c:	f2 0f 10 0d 00 00 00 	movsd  0x0(%rip),%xmm1        # 7794 <get_net_wirelength_estimate+0xa2>
    7793:	00 
    7794:	f2 0f 58 c1          	addsd  %xmm1,%xmm0
    7798:	f2 0f 11 45 f8       	movsd  %xmm0,-0x8(%rbp)
    779d:	e9 0f 01 00 00       	jmpq   78b1 <get_net_wirelength_estimate+0x1bf>
    77a2:	48 8b 0d 00 00 00 00 	mov    0x0(%rip),%rcx        # 77a9 <get_net_wirelength_estimate+0xb7>
    77a9:	8b 45 ec             	mov    -0x14(%rbp),%eax
    77ac:	48 63 d0             	movslq %eax,%rdx
    77af:	48 89 d0             	mov    %rdx,%rax
    77b2:	48 c1 e0 02          	shl    $0x2,%rax
    77b6:	48 01 d0             	add    %rdx,%rax
    77b9:	48 c1 e0 03          	shl    $0x3,%rax
    77bd:	48 01 c8             	add    %rcx,%rax
    77c0:	8b 40 08             	mov    0x8(%rax),%eax
    77c3:	83 c0 01             	add    $0x1,%eax
    77c6:	83 f8 54             	cmp    $0x54,%eax
    77c9:	0f 8e ab 00 00 00    	jle    787a <get_net_wirelength_estimate+0x188>
    77cf:	48 8b 0d 00 00 00 00 	mov    0x0(%rip),%rcx        # 77d6 <get_net_wirelength_estimate+0xe4>
    77d6:	8b 45 ec             	mov    -0x14(%rbp),%eax
    77d9:	48 63 d0             	movslq %eax,%rdx
    77dc:	48 89 d0             	mov    %rdx,%rax
    77df:	48 c1 e0 02          	shl    $0x2,%rax
    77e3:	48 01 d0             	add    %rdx,%rax
    77e6:	48 c1 e0 03          	shl    $0x3,%rax
    77ea:	48 01 c8             	add    %rcx,%rax
    77ed:	8b 40 08             	mov    0x8(%rax),%eax
    77f0:	83 c0 01             	add    $0x1,%eax
    77f3:	f2 0f 2a c0          	cvtsi2sd %eax,%xmm0
    77f7:	f2 0f 10 0d 00 00 00 	movsd  0x0(%rip),%xmm1        # 77ff <get_net_wirelength_estimate+0x10d>
    77fe:	00 
    77ff:	f2 0f 59 c1          	mulsd  %xmm1,%xmm0
    7803:	f2 0f 10 0d 00 00 00 	movsd  0x0(%rip),%xmm1        # 780b <get_net_wirelength_estimate+0x119>
    780a:	00 
    780b:	f2 0f 58 c1          	addsd  %xmm1,%xmm0
    780f:	48 8b 0d 00 00 00 00 	mov    0x0(%rip),%rcx        # 7816 <get_net_wirelength_estimate+0x124>
    7816:	8b 45 ec             	mov    -0x14(%rbp),%eax
    7819:	48 63 d0             	movslq %eax,%rdx
    781c:	48 89 d0             	mov    %rdx,%rax
    781f:	48 c1 e0 02          	shl    $0x2,%rax
    7823:	48 01 d0             	add    %rdx,%rax
    7826:	48 c1 e0 03          	shl    $0x3,%rax
    782a:	48 01 c8             	add    %rcx,%rax
    782d:	8b 40 08             	mov    0x8(%rax),%eax
    7830:	83 c0 01             	add    $0x1,%eax
    7833:	f2 0f 2a c8          	cvtsi2sd %eax,%xmm1
    7837:	f2 0f 10 15 00 00 00 	movsd  0x0(%rip),%xmm2        # 783f <get_net_wirelength_estimate+0x14d>
    783e:	00 
    783f:	f2 0f 59 d1          	mulsd  %xmm1,%xmm2
    7843:	48 8b 0d 00 00 00 00 	mov    0x0(%rip),%rcx        # 784a <get_net_wirelength_estimate+0x158>
    784a:	8b 45 ec             	mov    -0x14(%rbp),%eax
    784d:	48 63 d0             	movslq %eax,%rdx
    7850:	48 89 d0             	mov    %rdx,%rax
    7853:	48 c1 e0 02          	shl    $0x2,%rax
    7857:	48 01 d0             	add    %rdx,%rax
    785a:	48 c1 e0 03          	shl    $0x3,%rax
    785e:	48 01 c8             	add    %rcx,%rax
    7861:	8b 40 08             	mov    0x8(%rax),%eax
    7864:	83 c0 01             	add    $0x1,%eax
    7867:	f2 0f 2a c8          	cvtsi2sd %eax,%xmm1
    786b:	f2 0f 59 ca          	mulsd  %xmm2,%xmm1
    786f:	f2 0f 5c c1          	subsd  %xmm1,%xmm0
    7873:	f2 0f 11 45 f8       	movsd  %xmm0,-0x8(%rbp)
    7878:	eb 37                	jmp    78b1 <get_net_wirelength_estimate+0x1bf>
    787a:	48 8b 0d 00 00 00 00 	mov    0x0(%rip),%rcx        # 7881 <get_net_wirelength_estimate+0x18f>
    7881:	8b 45 ec             	mov    -0x14(%rbp),%eax
    7884:	48 63 d0             	movslq %eax,%rdx
    7887:	48 89 d0             	mov    %rdx,%rax
    788a:	48 c1 e0 02          	shl    $0x2,%rax
    788e:	48 01 d0             	add    %rdx,%rax
    7891:	48 c1 e0 03          	shl    $0x3,%rax
    7895:	48 01 c8             	add    %rcx,%rax
    7898:	8b 40 08             	mov    0x8(%rax),%eax
    789b:	48 98                	cltq   
    789d:	f3 0f 10 04 85 00 00 	movss  0x0(,%rax,4),%xmm0
    78a4:	00 00 
    78a6:	0f 14 c0             	unpcklps %xmm0,%xmm0
    78a9:	0f 5a c0             	cvtps2pd %xmm0,%xmm0
    78ac:	f2 0f 11 45 f8       	movsd  %xmm0,-0x8(%rbp)
    78b1:	48 8b 45 e0          	mov    -0x20(%rbp),%rax
    78b5:	8b 50 04             	mov    0x4(%rax),%edx
    78b8:	48 8b 45 e0          	mov    -0x20(%rbp),%rax
    78bc:	8b 00                	mov    (%rax),%eax
    78be:	89 d1                	mov    %edx,%ecx
    78c0:	29 c1                	sub    %eax,%ecx
    78c2:	89 c8                	mov    %ecx,%eax
    78c4:	83 c0 01             	add    $0x1,%eax
    78c7:	f2 0f 2a c0          	cvtsi2sd %eax,%xmm0
    78cb:	f2 0f 59 45 f8       	mulsd  -0x8(%rbp),%xmm0
    78d0:	f2 0f 11 45 f0       	movsd  %xmm0,-0x10(%rbp)
    78d5:	48 8b 45 e0          	mov    -0x20(%rbp),%rax
    78d9:	8b 50 0c             	mov    0xc(%rax),%edx
    78dc:	48 8b 45 e0          	mov    -0x20(%rbp),%rax
    78e0:	8b 40 08             	mov    0x8(%rax),%eax
    78e3:	89 d1                	mov    %edx,%ecx
    78e5:	29 c1                	sub    %eax,%ecx
    78e7:	89 c8                	mov    %ecx,%eax
    78e9:	83 c0 01             	add    $0x1,%eax
    78ec:	f2 0f 2a c0          	cvtsi2sd %eax,%xmm0
    78f0:	f2 0f 59 45 f8       	mulsd  -0x8(%rbp),%xmm0
    78f5:	f2 0f 10 4d f0       	movsd  -0x10(%rbp),%xmm1
    78fa:	f2 0f 58 c1          	addsd  %xmm1,%xmm0
    78fe:	f2 0f 11 45 f0       	movsd  %xmm0,-0x10(%rbp)
    7903:	48 8b 45 f0          	mov    -0x10(%rbp),%rax
    7907:	48 89 45 d8          	mov    %rax,-0x28(%rbp)
    790b:	f2 0f 10 45 d8       	movsd  -0x28(%rbp),%xmm0
    7910:	c9                   	leaveq 
    7911:	c3                   	retq   

0000000000007912 <get_net_cost>:
    7912:	55                   	push   %rbp
    7913:	48 89 e5             	mov    %rsp,%rbp
    7916:	48 83 ec 20          	sub    $0x20,%rsp
    791a:	e8 00 00 00 00       	callq  791f <get_net_cost+0xd>
    791f:	89 7d ec             	mov    %edi,-0x14(%rbp)
    7922:	48 89 75 e0          	mov    %rsi,-0x20(%rbp)
    7926:	48 8b 0d 00 00 00 00 	mov    0x0(%rip),%rcx        # 792d <get_net_cost+0x1b>
    792d:	8b 45 ec             	mov    -0x14(%rbp),%eax
    7930:	48 63 d0             	movslq %eax,%rdx
    7933:	48 89 d0             	mov    %rdx,%rax
    7936:	48 c1 e0 02          	shl    $0x2,%rax
    793a:	48 01 d0             	add    %rdx,%rax
    793d:	48 c1 e0 03          	shl    $0x3,%rax
    7941:	48 01 c8             	add    %rcx,%rax
    7944:	8b 40 08             	mov    0x8(%rax),%eax
    7947:	83 c0 01             	add    $0x1,%eax
    794a:	83 f8 32             	cmp    $0x32,%eax
    794d:	7e 4f                	jle    799e <get_net_cost+0x8c>
    794f:	48 8b 0d 00 00 00 00 	mov    0x0(%rip),%rcx        # 7956 <get_net_cost+0x44>
    7956:	8b 45 ec             	mov    -0x14(%rbp),%eax
    7959:	48 63 d0             	movslq %eax,%rdx
    795c:	48 89 d0             	mov    %rdx,%rax
    795f:	48 c1 e0 02          	shl    $0x2,%rax
    7963:	48 01 d0             	add    %rdx,%rax
    7966:	48 c1 e0 03          	shl    $0x3,%rax
    796a:	48 01 c8             	add    %rcx,%rax
    796d:	8b 40 08             	mov    0x8(%rax),%eax
    7970:	83 e8 31             	sub    $0x31,%eax
    7973:	f2 0f 2a c0          	cvtsi2sd %eax,%xmm0
    7977:	f2 0f 10 0d 00 00 00 	movsd  0x0(%rip),%xmm1        # 797f <get_net_cost+0x6d>
    797e:	00 
    797f:	f2 0f 59 c1          	mulsd  %xmm1,%xmm0
    7983:	f2 0f 10 0d 00 00 00 	movsd  0x0(%rip),%xmm1        # 798b <get_net_cost+0x79>
    798a:	00 
    798b:	f2 0f 58 c1          	addsd  %xmm1,%xmm0
    798f:	66 0f 14 c0          	unpcklpd %xmm0,%xmm0
    7993:	66 0f 5a c0          	cvtpd2ps %xmm0,%xmm0
    7997:	f3 0f 11 45 fc       	movss  %xmm0,-0x4(%rbp)
    799c:	eb 2d                	jmp    79cb <get_net_cost+0xb9>
    799e:	48 8b 0d 00 00 00 00 	mov    0x0(%rip),%rcx        # 79a5 <get_net_cost+0x93>
    79a5:	8b 45 ec             	mov    -0x14(%rbp),%eax
    79a8:	48 63 d0             	movslq %eax,%rdx
    79ab:	48 89 d0             	mov    %rdx,%rax
    79ae:	48 c1 e0 02          	shl    $0x2,%rax
    79b2:	48 01 d0             	add    %rdx,%rax
    79b5:	48 c1 e0 03          	shl    $0x3,%rax
    79b9:	48 01 c8             	add    %rcx,%rax
    79bc:	8b 40 08             	mov    0x8(%rax),%eax
    79bf:	48 98                	cltq   
    79c1:	8b 04 85 00 00 00 00 	mov    0x0(,%rax,4),%eax
    79c8:	89 45 fc             	mov    %eax,-0x4(%rbp)
    79cb:	48 8b 45 e0          	mov    -0x20(%rbp),%rax
    79cf:	8b 50 04             	mov    0x4(%rax),%edx
    79d2:	48 8b 45 e0          	mov    -0x20(%rbp),%rax
    79d6:	8b 00                	mov    (%rax),%eax
    79d8:	89 d1                	mov    %edx,%ecx
    79da:	29 c1                	sub    %eax,%ecx
    79dc:	89 c8                	mov    %ecx,%eax
    79de:	83 c0 01             	add    $0x1,%eax
    79e1:	f3 0f 2a c0          	cvtsi2ss %eax,%xmm0
    79e5:	f3 0f 59 45 fc       	mulss  -0x4(%rbp),%xmm0
    79ea:	48 8b 15 00 00 00 00 	mov    0x0(%rip),%rdx        # 79f1 <get_net_cost+0xdf>
    79f1:	48 8b 45 e0          	mov    -0x20(%rbp),%rax
    79f5:	8b 40 0c             	mov    0xc(%rax),%eax
    79f8:	48 98                	cltq   
    79fa:	48 c1 e0 03          	shl    $0x3,%rax
    79fe:	48 01 d0             	add    %rdx,%rax
    7a01:	48 8b 10             	mov    (%rax),%rdx
    7a04:	48 8b 45 e0          	mov    -0x20(%rbp),%rax
    7a08:	8b 40 08             	mov    0x8(%rax),%eax
    7a0b:	48 98                	cltq   
    7a0d:	48 83 e8 01          	sub    $0x1,%rax
    7a11:	48 c1 e0 02          	shl    $0x2,%rax
    7a15:	48 01 d0             	add    %rdx,%rax
    7a18:	f3 0f 10 08          	movss  (%rax),%xmm1
    7a1c:	f3 0f 59 c1          	mulss  %xmm1,%xmm0
    7a20:	f3 0f 11 45 f8       	movss  %xmm0,-0x8(%rbp)
    7a25:	48 8b 45 e0          	mov    -0x20(%rbp),%rax
    7a29:	8b 50 0c             	mov    0xc(%rax),%edx
    7a2c:	48 8b 45 e0          	mov    -0x20(%rbp),%rax
    7a30:	8b 40 08             	mov    0x8(%rax),%eax
    7a33:	89 d1                	mov    %edx,%ecx
    7a35:	29 c1                	sub    %eax,%ecx
    7a37:	89 c8                	mov    %ecx,%eax
    7a39:	83 c0 01             	add    $0x1,%eax
    7a3c:	f3 0f 2a c0          	cvtsi2ss %eax,%xmm0
    7a40:	f3 0f 59 45 fc       	mulss  -0x4(%rbp),%xmm0
    7a45:	48 8b 15 00 00 00 00 	mov    0x0(%rip),%rdx        # 7a4c <get_net_cost+0x13a>
    7a4c:	48 8b 45 e0          	mov    -0x20(%rbp),%rax
    7a50:	8b 40 04             	mov    0x4(%rax),%eax
    7a53:	48 98                	cltq   
    7a55:	48 c1 e0 03          	shl    $0x3,%rax
    7a59:	48 01 d0             	add    %rdx,%rax
    7a5c:	48 8b 10             	mov    (%rax),%rdx
    7a5f:	48 8b 45 e0          	mov    -0x20(%rbp),%rax
    7a63:	8b 00                	mov    (%rax),%eax
    7a65:	48 98                	cltq   
    7a67:	48 83 e8 01          	sub    $0x1,%rax
    7a6b:	48 c1 e0 02          	shl    $0x2,%rax
    7a6f:	48 01 d0             	add    %rdx,%rax
    7a72:	f3 0f 10 08          	movss  (%rax),%xmm1
    7a76:	f3 0f 59 c1          	mulss  %xmm1,%xmm0
    7a7a:	f3 0f 10 4d f8       	movss  -0x8(%rbp),%xmm1
    7a7f:	f3 0f 58 c1          	addss  %xmm1,%xmm0
    7a83:	f3 0f 11 45 f8       	movss  %xmm0,-0x8(%rbp)
    7a88:	8b 45 f8             	mov    -0x8(%rbp),%eax
    7a8b:	89 45 e8             	mov    %eax,-0x18(%rbp)
    7a8e:	f3 0f 10 45 e8       	movss  -0x18(%rbp),%xmm0
    7a93:	c9                   	leaveq 
    7a94:	c3                   	retq   

0000000000007a95 <get_non_updateable_bb>:
    7a95:	55                   	push   %rbp
    7a96:	48 89 e5             	mov    %rsp,%rbp
    7a99:	48 83 ec 30          	sub    $0x30,%rsp
    7a9d:	e8 00 00 00 00       	callq  7aa2 <get_non_updateable_bb+0xd>
    7aa2:	89 7d dc             	mov    %edi,-0x24(%rbp)
    7aa5:	48 89 75 d0          	mov    %rsi,-0x30(%rbp)
    7aa9:	48 8b 0d 00 00 00 00 	mov    0x0(%rip),%rcx        # 7ab0 <get_non_updateable_bb+0x1b>
    7ab0:	48 8b 35 00 00 00 00 	mov    0x0(%rip),%rsi        # 7ab7 <get_non_updateable_bb+0x22>
    7ab7:	8b 45 dc             	mov    -0x24(%rbp),%eax
    7aba:	48 63 d0             	movslq %eax,%rdx
    7abd:	48 89 d0             	mov    %rdx,%rax
    7ac0:	48 c1 e0 02          	shl    $0x2,%rax
    7ac4:	48 01 d0             	add    %rdx,%rax
    7ac7:	48 c1 e0 03          	shl    $0x3,%rax
    7acb:	48 01 f0             	add    %rsi,%rax
    7ace:	48 8b 40 10          	mov    0x10(%rax),%rax
    7ad2:	8b 00                	mov    (%rax),%eax
    7ad4:	48 63 d0             	movslq %eax,%rdx
    7ad7:	48 89 d0             	mov    %rdx,%rax
    7ada:	48 c1 e0 02          	shl    $0x2,%rax
    7ade:	48 01 d0             	add    %rdx,%rax
    7ae1:	48 c1 e0 03          	shl    $0x3,%rax
    7ae5:	48 01 c8             	add    %rcx,%rax
    7ae8:	8b 40 18             	mov    0x18(%rax),%eax
    7aeb:	89 45 e8             	mov    %eax,-0x18(%rbp)
    7aee:	48 8b 0d 00 00 00 00 	mov    0x0(%rip),%rcx        # 7af5 <get_non_updateable_bb+0x60>
    7af5:	48 8b 35 00 00 00 00 	mov    0x0(%rip),%rsi        # 7afc <get_non_updateable_bb+0x67>
    7afc:	8b 45 dc             	mov    -0x24(%rbp),%eax
    7aff:	48 63 d0             	movslq %eax,%rdx
    7b02:	48 89 d0             	mov    %rdx,%rax
    7b05:	48 c1 e0 02          	shl    $0x2,%rax
    7b09:	48 01 d0             	add    %rdx,%rax
    7b0c:	48 c1 e0 03          	shl    $0x3,%rax
    7b10:	48 01 f0             	add    %rsi,%rax
    7b13:	48 8b 40 10          	mov    0x10(%rax),%rax
    7b17:	8b 00                	mov    (%rax),%eax
    7b19:	48 63 d0             	movslq %eax,%rdx
    7b1c:	48 89 d0             	mov    %rdx,%rax
    7b1f:	48 c1 e0 02          	shl    $0x2,%rax
    7b23:	48 01 d0             	add    %rdx,%rax
    7b26:	48 c1 e0 03          	shl    $0x3,%rax
    7b2a:	48 01 c8             	add    %rcx,%rax
    7b2d:	8b 40 1c             	mov    0x1c(%rax),%eax
    7b30:	89 45 e4             	mov    %eax,-0x1c(%rbp)
    7b33:	8b 45 e8             	mov    -0x18(%rbp),%eax
    7b36:	89 45 f0             	mov    %eax,-0x10(%rbp)
    7b39:	8b 45 e4             	mov    -0x1c(%rbp),%eax
    7b3c:	89 45 ec             	mov    %eax,-0x14(%rbp)
    7b3f:	8b 45 e8             	mov    -0x18(%rbp),%eax
    7b42:	89 45 f8             	mov    %eax,-0x8(%rbp)
    7b45:	8b 45 e4             	mov    -0x1c(%rbp),%eax
    7b48:	89 45 f4             	mov    %eax,-0xc(%rbp)
    7b4b:	c7 45 fc 01 00 00 00 	movl   $0x1,-0x4(%rbp)
    7b52:	e9 e4 00 00 00       	jmpq   7c3b <get_non_updateable_bb+0x1a6>
    7b57:	48 8b 0d 00 00 00 00 	mov    0x0(%rip),%rcx        # 7b5e <get_non_updateable_bb+0xc9>
    7b5e:	48 8b 35 00 00 00 00 	mov    0x0(%rip),%rsi        # 7b65 <get_non_updateable_bb+0xd0>
    7b65:	8b 45 dc             	mov    -0x24(%rbp),%eax
    7b68:	48 63 d0             	movslq %eax,%rdx
    7b6b:	48 89 d0             	mov    %rdx,%rax
    7b6e:	48 c1 e0 02          	shl    $0x2,%rax
    7b72:	48 01 d0             	add    %rdx,%rax
    7b75:	48 c1 e0 03          	shl    $0x3,%rax
    7b79:	48 01 f0             	add    %rsi,%rax
    7b7c:	48 8b 40 10          	mov    0x10(%rax),%rax
    7b80:	8b 55 fc             	mov    -0x4(%rbp),%edx
    7b83:	48 63 d2             	movslq %edx,%rdx
    7b86:	48 c1 e2 02          	shl    $0x2,%rdx
    7b8a:	48 01 d0             	add    %rdx,%rax
    7b8d:	8b 00                	mov    (%rax),%eax
    7b8f:	48 63 d0             	movslq %eax,%rdx
    7b92:	48 89 d0             	mov    %rdx,%rax
    7b95:	48 c1 e0 02          	shl    $0x2,%rax
    7b99:	48 01 d0             	add    %rdx,%rax
    7b9c:	48 c1 e0 03          	shl    $0x3,%rax
    7ba0:	48 01 c8             	add    %rcx,%rax
    7ba3:	8b 40 18             	mov    0x18(%rax),%eax
    7ba6:	89 45 e8             	mov    %eax,-0x18(%rbp)
    7ba9:	48 8b 0d 00 00 00 00 	mov    0x0(%rip),%rcx        # 7bb0 <get_non_updateable_bb+0x11b>
    7bb0:	48 8b 35 00 00 00 00 	mov    0x0(%rip),%rsi        # 7bb7 <get_non_updateable_bb+0x122>
    7bb7:	8b 45 dc             	mov    -0x24(%rbp),%eax
    7bba:	48 63 d0             	movslq %eax,%rdx
    7bbd:	48 89 d0             	mov    %rdx,%rax
    7bc0:	48 c1 e0 02          	shl    $0x2,%rax
    7bc4:	48 01 d0             	add    %rdx,%rax
    7bc7:	48 c1 e0 03          	shl    $0x3,%rax
    7bcb:	48 01 f0             	add    %rsi,%rax
    7bce:	48 8b 40 10          	mov    0x10(%rax),%rax
    7bd2:	8b 55 fc             	mov    -0x4(%rbp),%edx
    7bd5:	48 63 d2             	movslq %edx,%rdx
    7bd8:	48 c1 e2 02          	shl    $0x2,%rdx
    7bdc:	48 01 d0             	add    %rdx,%rax
    7bdf:	8b 00                	mov    (%rax),%eax
    7be1:	48 63 d0             	movslq %eax,%rdx
    7be4:	48 89 d0             	mov    %rdx,%rax
    7be7:	48 c1 e0 02          	shl    $0x2,%rax
    7beb:	48 01 d0             	add    %rdx,%rax
    7bee:	48 c1 e0 03          	shl    $0x3,%rax
    7bf2:	48 01 c8             	add    %rcx,%rax
    7bf5:	8b 40 1c             	mov    0x1c(%rax),%eax
    7bf8:	89 45 e4             	mov    %eax,-0x1c(%rbp)
    7bfb:	8b 45 e8             	mov    -0x18(%rbp),%eax
    7bfe:	3b 45 f0             	cmp    -0x10(%rbp),%eax
    7c01:	7d 08                	jge    7c0b <get_non_updateable_bb+0x176>
    7c03:	8b 45 e8             	mov    -0x18(%rbp),%eax
    7c06:	89 45 f0             	mov    %eax,-0x10(%rbp)
    7c09:	eb 0e                	jmp    7c19 <get_non_updateable_bb+0x184>
    7c0b:	8b 45 e8             	mov    -0x18(%rbp),%eax
    7c0e:	3b 45 f8             	cmp    -0x8(%rbp),%eax
    7c11:	7e 06                	jle    7c19 <get_non_updateable_bb+0x184>
    7c13:	8b 45 e8             	mov    -0x18(%rbp),%eax
    7c16:	89 45 f8             	mov    %eax,-0x8(%rbp)
    7c19:	8b 45 e4             	mov    -0x1c(%rbp),%eax
    7c1c:	3b 45 ec             	cmp    -0x14(%rbp),%eax
    7c1f:	7d 08                	jge    7c29 <get_non_updateable_bb+0x194>
    7c21:	8b 45 e4             	mov    -0x1c(%rbp),%eax
    7c24:	89 45 ec             	mov    %eax,-0x14(%rbp)
    7c27:	eb 0e                	jmp    7c37 <get_non_updateable_bb+0x1a2>
    7c29:	8b 45 e4             	mov    -0x1c(%rbp),%eax
    7c2c:	3b 45 f4             	cmp    -0xc(%rbp),%eax
    7c2f:	7e 06                	jle    7c37 <get_non_updateable_bb+0x1a2>
    7c31:	8b 45 e4             	mov    -0x1c(%rbp),%eax
    7c34:	89 45 f4             	mov    %eax,-0xc(%rbp)
    7c37:	83 45 fc 01          	addl   $0x1,-0x4(%rbp)
    7c3b:	48 8b 0d 00 00 00 00 	mov    0x0(%rip),%rcx        # 7c42 <get_non_updateable_bb+0x1ad>
    7c42:	8b 45 dc             	mov    -0x24(%rbp),%eax
    7c45:	48 63 d0             	movslq %eax,%rdx
    7c48:	48 89 d0             	mov    %rdx,%rax
    7c4b:	48 c1 e0 02          	shl    $0x2,%rax
    7c4f:	48 01 d0             	add    %rdx,%rax
    7c52:	48 c1 e0 03          	shl    $0x3,%rax
    7c56:	48 01 c8             	add    %rcx,%rax
    7c59:	8b 40 08             	mov    0x8(%rax),%eax
    7c5c:	83 c0 01             	add    $0x1,%eax
    7c5f:	3b 45 fc             	cmp    -0x4(%rbp),%eax
    7c62:	0f 8f ef fe ff ff    	jg     7b57 <get_non_updateable_bb+0xc2>
    7c68:	8b 05 00 00 00 00    	mov    0x0(%rip),%eax        # 7c6e <get_non_updateable_bb+0x1d9>
    7c6e:	39 45 f0             	cmp    %eax,-0x10(%rbp)
    7c71:	0f 4e 45 f0          	cmovle -0x10(%rbp),%eax
    7c75:	ba 01 00 00 00       	mov    $0x1,%edx
    7c7a:	85 c0                	test   %eax,%eax
    7c7c:	0f 4f d0             	cmovg  %eax,%edx
    7c7f:	48 8b 45 d0          	mov    -0x30(%rbp),%rax
    7c83:	89 10                	mov    %edx,(%rax)
    7c85:	8b 05 00 00 00 00    	mov    0x0(%rip),%eax        # 7c8b <get_non_updateable_bb+0x1f6>
    7c8b:	39 45 ec             	cmp    %eax,-0x14(%rbp)
    7c8e:	0f 4e 45 ec          	cmovle -0x14(%rbp),%eax
    7c92:	ba 01 00 00 00       	mov    $0x1,%edx
    7c97:	85 c0                	test   %eax,%eax
    7c99:	0f 4f d0             	cmovg  %eax,%edx
    7c9c:	48 8b 45 d0          	mov    -0x30(%rbp),%rax
    7ca0:	89 50 08             	mov    %edx,0x8(%rax)
    7ca3:	8b 05 00 00 00 00    	mov    0x0(%rip),%eax        # 7ca9 <get_non_updateable_bb+0x214>
    7ca9:	39 45 f8             	cmp    %eax,-0x8(%rbp)
    7cac:	0f 4e 45 f8          	cmovle -0x8(%rbp),%eax
    7cb0:	ba 01 00 00 00       	mov    $0x1,%edx
    7cb5:	85 c0                	test   %eax,%eax
    7cb7:	0f 4f d0             	cmovg  %eax,%edx
    7cba:	48 8b 45 d0          	mov    -0x30(%rbp),%rax
    7cbe:	89 50 04             	mov    %edx,0x4(%rax)
    7cc1:	8b 05 00 00 00 00    	mov    0x0(%rip),%eax        # 7cc7 <get_non_updateable_bb+0x232>
    7cc7:	39 45 f4             	cmp    %eax,-0xc(%rbp)
    7cca:	0f 4e 45 f4          	cmovle -0xc(%rbp),%eax
    7cce:	ba 01 00 00 00       	mov    $0x1,%edx
    7cd3:	85 c0                	test   %eax,%eax
    7cd5:	0f 4f d0             	cmovg  %eax,%edx
    7cd8:	48 8b 45 d0          	mov    -0x30(%rbp),%rax
    7cdc:	89 50 0c             	mov    %edx,0xc(%rax)
    7cdf:	c9                   	leaveq 
    7ce0:	c3                   	retq   

0000000000007ce1 <update_bb>:
    7ce1:	55                   	push   %rbp
    7ce2:	48 89 e5             	mov    %rsp,%rbp
    7ce5:	48 83 ec 20          	sub    $0x20,%rsp
    7ce9:	e8 00 00 00 00       	callq  7cee <update_bb+0xd>
    7cee:	89 7d fc             	mov    %edi,-0x4(%rbp)
    7cf1:	48 89 75 f0          	mov    %rsi,-0x10(%rbp)
    7cf5:	48 89 55 e8          	mov    %rdx,-0x18(%rbp)
    7cf9:	89 4d f8             	mov    %ecx,-0x8(%rbp)
    7cfc:	44 89 45 e4          	mov    %r8d,-0x1c(%rbp)
    7d00:	44 89 4d e0          	mov    %r9d,-0x20(%rbp)
    7d04:	8b 05 00 00 00 00    	mov    0x0(%rip),%eax        # 7d0a <update_bb+0x29>
    7d0a:	39 45 e0             	cmp    %eax,-0x20(%rbp)
    7d0d:	0f 4e 45 e0          	cmovle -0x20(%rbp),%eax
    7d11:	ba 01 00 00 00       	mov    $0x1,%edx
    7d16:	85 c0                	test   %eax,%eax
    7d18:	0f 4e c2             	cmovle %edx,%eax
    7d1b:	89 45 e0             	mov    %eax,-0x20(%rbp)
    7d1e:	8b 05 00 00 00 00    	mov    0x0(%rip),%eax        # 7d24 <update_bb+0x43>
    7d24:	39 45 10             	cmp    %eax,0x10(%rbp)
    7d27:	0f 4e 45 10          	cmovle 0x10(%rbp),%eax
    7d2b:	ba 01 00 00 00       	mov    $0x1,%edx
    7d30:	85 c0                	test   %eax,%eax
    7d32:	0f 4e c2             	cmovle %edx,%eax
    7d35:	89 45 10             	mov    %eax,0x10(%rbp)
    7d38:	8b 05 00 00 00 00    	mov    0x0(%rip),%eax        # 7d3e <update_bb+0x5d>
    7d3e:	39 45 f8             	cmp    %eax,-0x8(%rbp)
    7d41:	0f 4e 45 f8          	cmovle -0x8(%rbp),%eax
    7d45:	ba 01 00 00 00       	mov    $0x1,%edx
    7d4a:	85 c0                	test   %eax,%eax
    7d4c:	0f 4e c2             	cmovle %edx,%eax
    7d4f:	89 45 f8             	mov    %eax,-0x8(%rbp)
    7d52:	8b 05 00 00 00 00    	mov    0x0(%rip),%eax        # 7d58 <update_bb+0x77>
    7d58:	39 45 e4             	cmp    %eax,-0x1c(%rbp)
    7d5b:	0f 4e 45 e4          	cmovle -0x1c(%rbp),%eax
    7d5f:	ba 01 00 00 00       	mov    $0x1,%edx
    7d64:	85 c0                	test   %eax,%eax
    7d66:	0f 4e c2             	cmovle %edx,%eax
    7d69:	89 45 e4             	mov    %eax,-0x1c(%rbp)
    7d6c:	8b 45 e0             	mov    -0x20(%rbp),%eax
    7d6f:	3b 45 f8             	cmp    -0x8(%rbp),%eax
    7d72:	0f 8d 87 01 00 00    	jge    7eff <update_bb+0x21e>
    7d78:	48 8b 05 00 00 00 00 	mov    0x0(%rip),%rax        # 7d7f <update_bb+0x9e>
    7d7f:	8b 55 fc             	mov    -0x4(%rbp),%edx
    7d82:	48 63 d2             	movslq %edx,%rdx
    7d85:	48 c1 e2 04          	shl    $0x4,%rdx
    7d89:	48 01 d0             	add    %rdx,%rax
    7d8c:	8b 40 04             	mov    0x4(%rax),%eax
    7d8f:	3b 45 f8             	cmp    -0x8(%rbp),%eax
    7d92:	75 77                	jne    7e0b <update_bb+0x12a>
    7d94:	48 8b 05 00 00 00 00 	mov    0x0(%rip),%rax        # 7d9b <update_bb+0xba>
    7d9b:	8b 55 fc             	mov    -0x4(%rbp),%edx
    7d9e:	48 63 d2             	movslq %edx,%rdx
    7da1:	48 c1 e2 04          	shl    $0x4,%rdx
    7da5:	48 01 d0             	add    %rdx,%rax
    7da8:	8b 40 04             	mov    0x4(%rax),%eax
    7dab:	83 f8 01             	cmp    $0x1,%eax
    7dae:	75 1a                	jne    7dca <update_bb+0xe9>
    7db0:	48 8b 55 e8          	mov    -0x18(%rbp),%rdx
    7db4:	48 8b 4d f0          	mov    -0x10(%rbp),%rcx
    7db8:	8b 45 fc             	mov    -0x4(%rbp),%eax
    7dbb:	48 89 ce             	mov    %rcx,%rsi
    7dbe:	89 c7                	mov    %eax,%edi
    7dc0:	e8 0b f6 ff ff       	callq  73d0 <get_bb_from_scratch>
    7dc5:	e9 eb 06 00 00       	jmpq   84b5 <update_bb+0x7d4>
    7dca:	48 8b 05 00 00 00 00 	mov    0x0(%rip),%rax        # 7dd1 <update_bb+0xf0>
    7dd1:	8b 55 fc             	mov    -0x4(%rbp),%edx
    7dd4:	48 63 d2             	movslq %edx,%rdx
    7dd7:	48 c1 e2 04          	shl    $0x4,%rdx
    7ddb:	48 01 d0             	add    %rdx,%rax
    7dde:	8b 40 04             	mov    0x4(%rax),%eax
    7de1:	8d 50 ff             	lea    -0x1(%rax),%edx
    7de4:	48 8b 45 e8          	mov    -0x18(%rbp),%rax
    7de8:	89 50 04             	mov    %edx,0x4(%rax)
    7deb:	48 8b 05 00 00 00 00 	mov    0x0(%rip),%rax        # 7df2 <update_bb+0x111>
    7df2:	8b 55 fc             	mov    -0x4(%rbp),%edx
    7df5:	48 63 d2             	movslq %edx,%rdx
    7df8:	48 c1 e2 04          	shl    $0x4,%rdx
    7dfc:	48 01 d0             	add    %rdx,%rax
    7dff:	8b 50 04             	mov    0x4(%rax),%edx
    7e02:	48 8b 45 f0          	mov    -0x10(%rbp),%rax
    7e06:	89 50 04             	mov    %edx,0x4(%rax)
    7e09:	eb 3c                	jmp    7e47 <update_bb+0x166>
    7e0b:	48 8b 05 00 00 00 00 	mov    0x0(%rip),%rax        # 7e12 <update_bb+0x131>
    7e12:	8b 55 fc             	mov    -0x4(%rbp),%edx
    7e15:	48 63 d2             	movslq %edx,%rdx
    7e18:	48 c1 e2 04          	shl    $0x4,%rdx
    7e1c:	48 01 d0             	add    %rdx,%rax
    7e1f:	8b 50 04             	mov    0x4(%rax),%edx
    7e22:	48 8b 45 f0          	mov    -0x10(%rbp),%rax
    7e26:	89 50 04             	mov    %edx,0x4(%rax)
    7e29:	48 8b 05 00 00 00 00 	mov    0x0(%rip),%rax        # 7e30 <update_bb+0x14f>
    7e30:	8b 55 fc             	mov    -0x4(%rbp),%edx
    7e33:	48 63 d2             	movslq %edx,%rdx
    7e36:	48 c1 e2 04          	shl    $0x4,%rdx
    7e3a:	48 01 d0             	add    %rdx,%rax
    7e3d:	8b 50 04             	mov    0x4(%rax),%edx
    7e40:	48 8b 45 e8          	mov    -0x18(%rbp),%rax
    7e44:	89 50 04             	mov    %edx,0x4(%rax)
    7e47:	48 8b 05 00 00 00 00 	mov    0x0(%rip),%rax        # 7e4e <update_bb+0x16d>
    7e4e:	8b 55 fc             	mov    -0x4(%rbp),%edx
    7e51:	48 63 d2             	movslq %edx,%rdx
    7e54:	48 c1 e2 04          	shl    $0x4,%rdx
    7e58:	48 01 d0             	add    %rdx,%rax
    7e5b:	8b 00                	mov    (%rax),%eax
    7e5d:	3b 45 e0             	cmp    -0x20(%rbp),%eax
    7e60:	7e 18                	jle    7e7a <update_bb+0x199>
    7e62:	48 8b 45 f0          	mov    -0x10(%rbp),%rax
    7e66:	8b 55 e0             	mov    -0x20(%rbp),%edx
    7e69:	89 10                	mov    %edx,(%rax)
    7e6b:	48 8b 45 e8          	mov    -0x18(%rbp),%rax
    7e6f:	c7 00 01 00 00 00    	movl   $0x1,(%rax)
    7e75:	e9 8a 02 00 00       	jmpq   8104 <update_bb+0x423>
    7e7a:	48 8b 05 00 00 00 00 	mov    0x0(%rip),%rax        # 7e81 <update_bb+0x1a0>
    7e81:	8b 55 fc             	mov    -0x4(%rbp),%edx
    7e84:	48 63 d2             	movslq %edx,%rdx
    7e87:	48 c1 e2 04          	shl    $0x4,%rdx
    7e8b:	48 01 d0             	add    %rdx,%rax
    7e8e:	8b 00                	mov    (%rax),%eax
    7e90:	3b 45 e0             	cmp    -0x20(%rbp),%eax
    7e93:	75 2d                	jne    7ec2 <update_bb+0x1e1>
    7e95:	48 8b 45 f0          	mov    -0x10(%rbp),%rax
    7e99:	8b 55 e0             	mov    -0x20(%rbp),%edx
    7e9c:	89 10                	mov    %edx,(%rax)
    7e9e:	48 8b 05 00 00 00 00 	mov    0x0(%rip),%rax        # 7ea5 <update_bb+0x1c4>
    7ea5:	8b 55 fc             	mov    -0x4(%rbp),%edx
    7ea8:	48 63 d2             	movslq %edx,%rdx
    7eab:	48 c1 e2 04          	shl    $0x4,%rdx
    7eaf:	48 01 d0             	add    %rdx,%rax
    7eb2:	8b 00                	mov    (%rax),%eax
    7eb4:	8d 50 01             	lea    0x1(%rax),%edx
    7eb7:	48 8b 45 e8          	mov    -0x18(%rbp),%rax
    7ebb:	89 10                	mov    %edx,(%rax)
    7ebd:	e9 42 02 00 00       	jmpq   8104 <update_bb+0x423>
    7ec2:	48 8b 05 00 00 00 00 	mov    0x0(%rip),%rax        # 7ec9 <update_bb+0x1e8>
    7ec9:	8b 55 fc             	mov    -0x4(%rbp),%edx
    7ecc:	48 63 d2             	movslq %edx,%rdx
    7ecf:	48 c1 e2 04          	shl    $0x4,%rdx
    7ed3:	48 01 d0             	add    %rdx,%rax
    7ed6:	8b 10                	mov    (%rax),%edx
    7ed8:	48 8b 45 f0          	mov    -0x10(%rbp),%rax
    7edc:	89 10                	mov    %edx,(%rax)
    7ede:	48 8b 05 00 00 00 00 	mov    0x0(%rip),%rax        # 7ee5 <update_bb+0x204>
    7ee5:	8b 55 fc             	mov    -0x4(%rbp),%edx
    7ee8:	48 63 d2             	movslq %edx,%rdx
    7eeb:	48 c1 e2 04          	shl    $0x4,%rdx
    7eef:	48 01 d0             	add    %rdx,%rax
    7ef2:	8b 10                	mov    (%rax),%edx
    7ef4:	48 8b 45 e8          	mov    -0x18(%rbp),%rax
    7ef8:	89 10                	mov    %edx,(%rax)
    7efa:	e9 05 02 00 00       	jmpq   8104 <update_bb+0x423>
    7eff:	8b 45 e0             	mov    -0x20(%rbp),%eax
    7f02:	3b 45 f8             	cmp    -0x8(%rbp),%eax
    7f05:	0f 8e 85 01 00 00    	jle    8090 <update_bb+0x3af>
    7f0b:	48 8b 05 00 00 00 00 	mov    0x0(%rip),%rax        # 7f12 <update_bb+0x231>
    7f12:	8b 55 fc             	mov    -0x4(%rbp),%edx
    7f15:	48 63 d2             	movslq %edx,%rdx
    7f18:	48 c1 e2 04          	shl    $0x4,%rdx
    7f1c:	48 01 d0             	add    %rdx,%rax
    7f1f:	8b 00                	mov    (%rax),%eax
    7f21:	3b 45 f8             	cmp    -0x8(%rbp),%eax
    7f24:	75 72                	jne    7f98 <update_bb+0x2b7>
    7f26:	48 8b 05 00 00 00 00 	mov    0x0(%rip),%rax        # 7f2d <update_bb+0x24c>
    7f2d:	8b 55 fc             	mov    -0x4(%rbp),%edx
    7f30:	48 63 d2             	movslq %edx,%rdx
    7f33:	48 c1 e2 04          	shl    $0x4,%rdx
    7f37:	48 01 d0             	add    %rdx,%rax
    7f3a:	8b 00                	mov    (%rax),%eax
    7f3c:	83 f8 01             	cmp    $0x1,%eax
    7f3f:	75 1a                	jne    7f5b <update_bb+0x27a>
    7f41:	48 8b 55 e8          	mov    -0x18(%rbp),%rdx
    7f45:	48 8b 4d f0          	mov    -0x10(%rbp),%rcx
    7f49:	8b 45 fc             	mov    -0x4(%rbp),%eax
    7f4c:	48 89 ce             	mov    %rcx,%rsi
    7f4f:	89 c7                	mov    %eax,%edi
    7f51:	e8 7a f4 ff ff       	callq  73d0 <get_bb_from_scratch>
    7f56:	e9 5a 05 00 00       	jmpq   84b5 <update_bb+0x7d4>
    7f5b:	48 8b 05 00 00 00 00 	mov    0x0(%rip),%rax        # 7f62 <update_bb+0x281>
    7f62:	8b 55 fc             	mov    -0x4(%rbp),%edx
    7f65:	48 63 d2             	movslq %edx,%rdx
    7f68:	48 c1 e2 04          	shl    $0x4,%rdx
    7f6c:	48 01 d0             	add    %rdx,%rax
    7f6f:	8b 00                	mov    (%rax),%eax
    7f71:	8d 50 ff             	lea    -0x1(%rax),%edx
    7f74:	48 8b 45 e8          	mov    -0x18(%rbp),%rax
    7f78:	89 10                	mov    %edx,(%rax)
    7f7a:	48 8b 05 00 00 00 00 	mov    0x0(%rip),%rax        # 7f81 <update_bb+0x2a0>
    7f81:	8b 55 fc             	mov    -0x4(%rbp),%edx
    7f84:	48 63 d2             	movslq %edx,%rdx
    7f87:	48 c1 e2 04          	shl    $0x4,%rdx
    7f8b:	48 01 d0             	add    %rdx,%rax
    7f8e:	8b 10                	mov    (%rax),%edx
    7f90:	48 8b 45 f0          	mov    -0x10(%rbp),%rax
    7f94:	89 10                	mov    %edx,(%rax)
    7f96:	eb 38                	jmp    7fd0 <update_bb+0x2ef>
    7f98:	48 8b 05 00 00 00 00 	mov    0x0(%rip),%rax        # 7f9f <update_bb+0x2be>
    7f9f:	8b 55 fc             	mov    -0x4(%rbp),%edx
    7fa2:	48 63 d2             	movslq %edx,%rdx
    7fa5:	48 c1 e2 04          	shl    $0x4,%rdx
    7fa9:	48 01 d0             	add    %rdx,%rax
    7fac:	8b 10                	mov    (%rax),%edx
    7fae:	48 8b 45 f0          	mov    -0x10(%rbp),%rax
    7fb2:	89 10                	mov    %edx,(%rax)
    7fb4:	48 8b 05 00 00 00 00 	mov    0x0(%rip),%rax        # 7fbb <update_bb+0x2da>
    7fbb:	8b 55 fc             	mov    -0x4(%rbp),%edx
    7fbe:	48 63 d2             	movslq %edx,%rdx
    7fc1:	48 c1 e2 04          	shl    $0x4,%rdx
    7fc5:	48 01 d0             	add    %rdx,%rax
    7fc8:	8b 10                	mov    (%rax),%edx
    7fca:	48 8b 45 e8          	mov    -0x18(%rbp),%rax
    7fce:	89 10                	mov    %edx,(%rax)
    7fd0:	48 8b 05 00 00 00 00 	mov    0x0(%rip),%rax        # 7fd7 <update_bb+0x2f6>
    7fd7:	8b 55 fc             	mov    -0x4(%rbp),%edx
    7fda:	48 63 d2             	movslq %edx,%rdx
    7fdd:	48 c1 e2 04          	shl    $0x4,%rdx
    7fe1:	48 01 d0             	add    %rdx,%rax
    7fe4:	8b 40 04             	mov    0x4(%rax),%eax
    7fe7:	3b 45 e0             	cmp    -0x20(%rbp),%eax
    7fea:	7d 1a                	jge    8006 <update_bb+0x325>
    7fec:	48 8b 45 f0          	mov    -0x10(%rbp),%rax
    7ff0:	8b 55 e0             	mov    -0x20(%rbp),%edx
    7ff3:	89 50 04             	mov    %edx,0x4(%rax)
    7ff6:	48 8b 45 e8          	mov    -0x18(%rbp),%rax
    7ffa:	c7 40 04 01 00 00 00 	movl   $0x1,0x4(%rax)
    8001:	e9 fe 00 00 00       	jmpq   8104 <update_bb+0x423>
    8006:	48 8b 05 00 00 00 00 	mov    0x0(%rip),%rax        # 800d <update_bb+0x32c>
    800d:	8b 55 fc             	mov    -0x4(%rbp),%edx
    8010:	48 63 d2             	movslq %edx,%rdx
    8013:	48 c1 e2 04          	shl    $0x4,%rdx
    8017:	48 01 d0             	add    %rdx,%rax
    801a:	8b 40 04             	mov    0x4(%rax),%eax
    801d:	3b 45 e0             	cmp    -0x20(%rbp),%eax
    8020:	75 30                	jne    8052 <update_bb+0x371>
    8022:	48 8b 45 f0          	mov    -0x10(%rbp),%rax
    8026:	8b 55 e0             	mov    -0x20(%rbp),%edx
    8029:	89 50 04             	mov    %edx,0x4(%rax)
    802c:	48 8b 05 00 00 00 00 	mov    0x0(%rip),%rax        # 8033 <update_bb+0x352>
    8033:	8b 55 fc             	mov    -0x4(%rbp),%edx
    8036:	48 63 d2             	movslq %edx,%rdx
    8039:	48 c1 e2 04          	shl    $0x4,%rdx
    803d:	48 01 d0             	add    %rdx,%rax
    8040:	8b 40 04             	mov    0x4(%rax),%eax
    8043:	8d 50 01             	lea    0x1(%rax),%edx
    8046:	48 8b 45 e8          	mov    -0x18(%rbp),%rax
    804a:	89 50 04             	mov    %edx,0x4(%rax)
    804d:	e9 b2 00 00 00       	jmpq   8104 <update_bb+0x423>
    8052:	48 8b 05 00 00 00 00 	mov    0x0(%rip),%rax        # 8059 <update_bb+0x378>
    8059:	8b 55 fc             	mov    -0x4(%rbp),%edx
    805c:	48 63 d2             	movslq %edx,%rdx
    805f:	48 c1 e2 04          	shl    $0x4,%rdx
    8063:	48 01 d0             	add    %rdx,%rax
    8066:	8b 50 04             	mov    0x4(%rax),%edx
    8069:	48 8b 45 f0          	mov    -0x10(%rbp),%rax
    806d:	89 50 04             	mov    %edx,0x4(%rax)
    8070:	48 8b 05 00 00 00 00 	mov    0x0(%rip),%rax        # 8077 <update_bb+0x396>
    8077:	8b 55 fc             	mov    -0x4(%rbp),%edx
    807a:	48 63 d2             	movslq %edx,%rdx
    807d:	48 c1 e2 04          	shl    $0x4,%rdx
    8081:	48 01 d0             	add    %rdx,%rax
    8084:	8b 50 04             	mov    0x4(%rax),%edx
    8087:	48 8b 45 e8          	mov    -0x18(%rbp),%rax
    808b:	89 50 04             	mov    %edx,0x4(%rax)
    808e:	eb 74                	jmp    8104 <update_bb+0x423>
    8090:	48 8b 05 00 00 00 00 	mov    0x0(%rip),%rax        # 8097 <update_bb+0x3b6>
    8097:	8b 55 fc             	mov    -0x4(%rbp),%edx
    809a:	48 63 d2             	movslq %edx,%rdx
    809d:	48 c1 e2 04          	shl    $0x4,%rdx
    80a1:	48 01 d0             	add    %rdx,%rax
    80a4:	8b 10                	mov    (%rax),%edx
    80a6:	48 8b 45 f0          	mov    -0x10(%rbp),%rax
    80aa:	89 10                	mov    %edx,(%rax)
    80ac:	48 8b 05 00 00 00 00 	mov    0x0(%rip),%rax        # 80b3 <update_bb+0x3d2>
    80b3:	8b 55 fc             	mov    -0x4(%rbp),%edx
    80b6:	48 63 d2             	movslq %edx,%rdx
    80b9:	48 c1 e2 04          	shl    $0x4,%rdx
    80bd:	48 01 d0             	add    %rdx,%rax
    80c0:	8b 50 04             	mov    0x4(%rax),%edx
    80c3:	48 8b 45 f0          	mov    -0x10(%rbp),%rax
    80c7:	89 50 04             	mov    %edx,0x4(%rax)
    80ca:	48 8b 05 00 00 00 00 	mov    0x0(%rip),%rax        # 80d1 <update_bb+0x3f0>
    80d1:	8b 55 fc             	mov    -0x4(%rbp),%edx
    80d4:	48 63 d2             	movslq %edx,%rdx
    80d7:	48 c1 e2 04          	shl    $0x4,%rdx
    80db:	48 01 d0             	add    %rdx,%rax
    80de:	8b 10                	mov    (%rax),%edx
    80e0:	48 8b 45 e8          	mov    -0x18(%rbp),%rax
    80e4:	89 10                	mov    %edx,(%rax)
    80e6:	48 8b 05 00 00 00 00 	mov    0x0(%rip),%rax        # 80ed <update_bb+0x40c>
    80ed:	8b 55 fc             	mov    -0x4(%rbp),%edx
    80f0:	48 63 d2             	movslq %edx,%rdx
    80f3:	48 c1 e2 04          	shl    $0x4,%rdx
    80f7:	48 01 d0             	add    %rdx,%rax
    80fa:	8b 50 04             	mov    0x4(%rax),%edx
    80fd:	48 8b 45 e8          	mov    -0x18(%rbp),%rax
    8101:	89 50 04             	mov    %edx,0x4(%rax)
    8104:	8b 45 10             	mov    0x10(%rbp),%eax
    8107:	3b 45 e4             	cmp    -0x1c(%rbp),%eax
    810a:	0f 8d 92 01 00 00    	jge    82a2 <update_bb+0x5c1>
    8110:	48 8b 05 00 00 00 00 	mov    0x0(%rip),%rax        # 8117 <update_bb+0x436>
    8117:	8b 55 fc             	mov    -0x4(%rbp),%edx
    811a:	48 63 d2             	movslq %edx,%rdx
    811d:	48 c1 e2 04          	shl    $0x4,%rdx
    8121:	48 01 d0             	add    %rdx,%rax
    8124:	8b 40 0c             	mov    0xc(%rax),%eax
    8127:	3b 45 e4             	cmp    -0x1c(%rbp),%eax
    812a:	75 77                	jne    81a3 <update_bb+0x4c2>
    812c:	48 8b 05 00 00 00 00 	mov    0x0(%rip),%rax        # 8133 <update_bb+0x452>
    8133:	8b 55 fc             	mov    -0x4(%rbp),%edx
    8136:	48 63 d2             	movslq %edx,%rdx
    8139:	48 c1 e2 04          	shl    $0x4,%rdx
    813d:	48 01 d0             	add    %rdx,%rax
    8140:	8b 40 0c             	mov    0xc(%rax),%eax
    8143:	83 f8 01             	cmp    $0x1,%eax
    8146:	75 1a                	jne    8162 <update_bb+0x481>
    8148:	48 8b 55 e8          	mov    -0x18(%rbp),%rdx
    814c:	48 8b 4d f0          	mov    -0x10(%rbp),%rcx
    8150:	8b 45 fc             	mov    -0x4(%rbp),%eax
    8153:	48 89 ce             	mov    %rcx,%rsi
    8156:	89 c7                	mov    %eax,%edi
    8158:	e8 73 f2 ff ff       	callq  73d0 <get_bb_from_scratch>
    815d:	e9 53 03 00 00       	jmpq   84b5 <update_bb+0x7d4>
    8162:	48 8b 05 00 00 00 00 	mov    0x0(%rip),%rax        # 8169 <update_bb+0x488>
    8169:	8b 55 fc             	mov    -0x4(%rbp),%edx
    816c:	48 63 d2             	movslq %edx,%rdx
    816f:	48 c1 e2 04          	shl    $0x4,%rdx
    8173:	48 01 d0             	add    %rdx,%rax
    8176:	8b 40 0c             	mov    0xc(%rax),%eax
    8179:	8d 50 ff             	lea    -0x1(%rax),%edx
    817c:	48 8b 45 e8          	mov    -0x18(%rbp),%rax
    8180:	89 50 0c             	mov    %edx,0xc(%rax)
    8183:	48 8b 05 00 00 00 00 	mov    0x0(%rip),%rax        # 818a <update_bb+0x4a9>
    818a:	8b 55 fc             	mov    -0x4(%rbp),%edx
    818d:	48 63 d2             	movslq %edx,%rdx
    8190:	48 c1 e2 04          	shl    $0x4,%rdx
    8194:	48 01 d0             	add    %rdx,%rax
    8197:	8b 50 0c             	mov    0xc(%rax),%edx
    819a:	48 8b 45 f0          	mov    -0x10(%rbp),%rax
    819e:	89 50 0c             	mov    %edx,0xc(%rax)
    81a1:	eb 3c                	jmp    81df <update_bb+0x4fe>
    81a3:	48 8b 05 00 00 00 00 	mov    0x0(%rip),%rax        # 81aa <update_bb+0x4c9>
    81aa:	8b 55 fc             	mov    -0x4(%rbp),%edx
    81ad:	48 63 d2             	movslq %edx,%rdx
    81b0:	48 c1 e2 04          	shl    $0x4,%rdx
    81b4:	48 01 d0             	add    %rdx,%rax
    81b7:	8b 50 0c             	mov    0xc(%rax),%edx
    81ba:	48 8b 45 f0          	mov    -0x10(%rbp),%rax
    81be:	89 50 0c             	mov    %edx,0xc(%rax)
    81c1:	48 8b 05 00 00 00 00 	mov    0x0(%rip),%rax        # 81c8 <update_bb+0x4e7>
    81c8:	8b 55 fc             	mov    -0x4(%rbp),%edx
    81cb:	48 63 d2             	movslq %edx,%rdx
    81ce:	48 c1 e2 04          	shl    $0x4,%rdx
    81d2:	48 01 d0             	add    %rdx,%rax
    81d5:	8b 50 0c             	mov    0xc(%rax),%edx
    81d8:	48 8b 45 e8          	mov    -0x18(%rbp),%rax
    81dc:	89 50 0c             	mov    %edx,0xc(%rax)
    81df:	48 8b 05 00 00 00 00 	mov    0x0(%rip),%rax        # 81e6 <update_bb+0x505>
    81e6:	8b 55 fc             	mov    -0x4(%rbp),%edx
    81e9:	48 63 d2             	movslq %edx,%rdx
    81ec:	48 c1 e2 04          	shl    $0x4,%rdx
    81f0:	48 01 d0             	add    %rdx,%rax
    81f3:	8b 40 08             	mov    0x8(%rax),%eax
    81f6:	3b 45 10             	cmp    0x10(%rbp),%eax
    81f9:	7e 1a                	jle    8215 <update_bb+0x534>
    81fb:	48 8b 45 f0          	mov    -0x10(%rbp),%rax
    81ff:	8b 55 10             	mov    0x10(%rbp),%edx
    8202:	89 50 08             	mov    %edx,0x8(%rax)
    8205:	48 8b 45 e8          	mov    -0x18(%rbp),%rax
    8209:	c7 40 08 01 00 00 00 	movl   $0x1,0x8(%rax)
    8210:	e9 a0 02 00 00       	jmpq   84b5 <update_bb+0x7d4>
    8215:	48 8b 05 00 00 00 00 	mov    0x0(%rip),%rax        # 821c <update_bb+0x53b>
    821c:	8b 55 fc             	mov    -0x4(%rbp),%edx
    821f:	48 63 d2             	movslq %edx,%rdx
    8222:	48 c1 e2 04          	shl    $0x4,%rdx
    8226:	48 01 d0             	add    %rdx,%rax
    8229:	8b 40 08             	mov    0x8(%rax),%eax
    822c:	3b 45 10             	cmp    0x10(%rbp),%eax
    822f:	75 30                	jne    8261 <update_bb+0x580>
    8231:	48 8b 45 f0          	mov    -0x10(%rbp),%rax
    8235:	8b 55 10             	mov    0x10(%rbp),%edx
    8238:	89 50 08             	mov    %edx,0x8(%rax)
    823b:	48 8b 05 00 00 00 00 	mov    0x0(%rip),%rax        # 8242 <update_bb+0x561>
    8242:	8b 55 fc             	mov    -0x4(%rbp),%edx
    8245:	48 63 d2             	movslq %edx,%rdx
    8248:	48 c1 e2 04          	shl    $0x4,%rdx
    824c:	48 01 d0             	add    %rdx,%rax
    824f:	8b 40 08             	mov    0x8(%rax),%eax
    8252:	8d 50 01             	lea    0x1(%rax),%edx
    8255:	48 8b 45 e8          	mov    -0x18(%rbp),%rax
    8259:	89 50 08             	mov    %edx,0x8(%rax)
    825c:	e9 54 02 00 00       	jmpq   84b5 <update_bb+0x7d4>
    8261:	48 8b 05 00 00 00 00 	mov    0x0(%rip),%rax        # 8268 <update_bb+0x587>
    8268:	8b 55 fc             	mov    -0x4(%rbp),%edx
    826b:	48 63 d2             	movslq %edx,%rdx
    826e:	48 c1 e2 04          	shl    $0x4,%rdx
    8272:	48 01 d0             	add    %rdx,%rax
    8275:	8b 50 08             	mov    0x8(%rax),%edx
    8278:	48 8b 45 f0          	mov    -0x10(%rbp),%rax
    827c:	89 50 08             	mov    %edx,0x8(%rax)
    827f:	48 8b 05 00 00 00 00 	mov    0x0(%rip),%rax        # 8286 <update_bb+0x5a5>
    8286:	8b 55 fc             	mov    -0x4(%rbp),%edx
    8289:	48 63 d2             	movslq %edx,%rdx
    828c:	48 c1 e2 04          	shl    $0x4,%rdx
    8290:	48 01 d0             	add    %rdx,%rax
    8293:	8b 50 08             	mov    0x8(%rax),%edx
    8296:	48 8b 45 e8          	mov    -0x18(%rbp),%rax
    829a:	89 50 08             	mov    %edx,0x8(%rax)
    829d:	e9 13 02 00 00       	jmpq   84b5 <update_bb+0x7d4>
    82a2:	8b 45 10             	mov    0x10(%rbp),%eax
    82a5:	3b 45 e4             	cmp    -0x1c(%rbp),%eax
    82a8:	0f 8e 8f 01 00 00    	jle    843d <update_bb+0x75c>
    82ae:	48 8b 05 00 00 00 00 	mov    0x0(%rip),%rax        # 82b5 <update_bb+0x5d4>
    82b5:	8b 55 fc             	mov    -0x4(%rbp),%edx
    82b8:	48 63 d2             	movslq %edx,%rdx
    82bb:	48 c1 e2 04          	shl    $0x4,%rdx
    82bf:	48 01 d0             	add    %rdx,%rax
    82c2:	8b 40 08             	mov    0x8(%rax),%eax
    82c5:	3b 45 e4             	cmp    -0x1c(%rbp),%eax
    82c8:	75 77                	jne    8341 <update_bb+0x660>
    82ca:	48 8b 05 00 00 00 00 	mov    0x0(%rip),%rax        # 82d1 <update_bb+0x5f0>
    82d1:	8b 55 fc             	mov    -0x4(%rbp),%edx
    82d4:	48 63 d2             	movslq %edx,%rdx
    82d7:	48 c1 e2 04          	shl    $0x4,%rdx
    82db:	48 01 d0             	add    %rdx,%rax
    82de:	8b 40 08             	mov    0x8(%rax),%eax
    82e1:	83 f8 01             	cmp    $0x1,%eax
    82e4:	75 1a                	jne    8300 <update_bb+0x61f>
    82e6:	48 8b 55 e8          	mov    -0x18(%rbp),%rdx
    82ea:	48 8b 4d f0          	mov    -0x10(%rbp),%rcx
    82ee:	8b 45 fc             	mov    -0x4(%rbp),%eax
    82f1:	48 89 ce             	mov    %rcx,%rsi
    82f4:	89 c7                	mov    %eax,%edi
    82f6:	e8 d5 f0 ff ff       	callq  73d0 <get_bb_from_scratch>
    82fb:	e9 b5 01 00 00       	jmpq   84b5 <update_bb+0x7d4>
    8300:	48 8b 05 00 00 00 00 	mov    0x0(%rip),%rax        # 8307 <update_bb+0x626>
    8307:	8b 55 fc             	mov    -0x4(%rbp),%edx
    830a:	48 63 d2             	movslq %edx,%rdx
    830d:	48 c1 e2 04          	shl    $0x4,%rdx
    8311:	48 01 d0             	add    %rdx,%rax
    8314:	8b 40 08             	mov    0x8(%rax),%eax
    8317:	8d 50 ff             	lea    -0x1(%rax),%edx
    831a:	48 8b 45 e8          	mov    -0x18(%rbp),%rax
    831e:	89 50 08             	mov    %edx,0x8(%rax)
    8321:	48 8b 05 00 00 00 00 	mov    0x0(%rip),%rax        # 8328 <update_bb+0x647>
    8328:	8b 55 fc             	mov    -0x4(%rbp),%edx
    832b:	48 63 d2             	movslq %edx,%rdx
    832e:	48 c1 e2 04          	shl    $0x4,%rdx
    8332:	48 01 d0             	add    %rdx,%rax
    8335:	8b 50 08             	mov    0x8(%rax),%edx
    8338:	48 8b 45 f0          	mov    -0x10(%rbp),%rax
    833c:	89 50 08             	mov    %edx,0x8(%rax)
    833f:	eb 3c                	jmp    837d <update_bb+0x69c>
    8341:	48 8b 05 00 00 00 00 	mov    0x0(%rip),%rax        # 8348 <update_bb+0x667>
    8348:	8b 55 fc             	mov    -0x4(%rbp),%edx
    834b:	48 63 d2             	movslq %edx,%rdx
    834e:	48 c1 e2 04          	shl    $0x4,%rdx
    8352:	48 01 d0             	add    %rdx,%rax
    8355:	8b 50 08             	mov    0x8(%rax),%edx
    8358:	48 8b 45 f0          	mov    -0x10(%rbp),%rax
    835c:	89 50 08             	mov    %edx,0x8(%rax)
    835f:	48 8b 05 00 00 00 00 	mov    0x0(%rip),%rax        # 8366 <update_bb+0x685>
    8366:	8b 55 fc             	mov    -0x4(%rbp),%edx
    8369:	48 63 d2             	movslq %edx,%rdx
    836c:	48 c1 e2 04          	shl    $0x4,%rdx
    8370:	48 01 d0             	add    %rdx,%rax
    8373:	8b 50 08             	mov    0x8(%rax),%edx
    8376:	48 8b 45 e8          	mov    -0x18(%rbp),%rax
    837a:	89 50 08             	mov    %edx,0x8(%rax)
    837d:	48 8b 05 00 00 00 00 	mov    0x0(%rip),%rax        # 8384 <update_bb+0x6a3>
    8384:	8b 55 fc             	mov    -0x4(%rbp),%edx
    8387:	48 63 d2             	movslq %edx,%rdx
    838a:	48 c1 e2 04          	shl    $0x4,%rdx
    838e:	48 01 d0             	add    %rdx,%rax
    8391:	8b 40 0c             	mov    0xc(%rax),%eax
    8394:	3b 45 10             	cmp    0x10(%rbp),%eax
    8397:	7d 1a                	jge    83b3 <update_bb+0x6d2>
    8399:	48 8b 45 f0          	mov    -0x10(%rbp),%rax
    839d:	8b 55 10             	mov    0x10(%rbp),%edx
    83a0:	89 50 0c             	mov    %edx,0xc(%rax)
    83a3:	48 8b 45 e8          	mov    -0x18(%rbp),%rax
    83a7:	c7 40 0c 01 00 00 00 	movl   $0x1,0xc(%rax)
    83ae:	e9 02 01 00 00       	jmpq   84b5 <update_bb+0x7d4>
    83b3:	48 8b 05 00 00 00 00 	mov    0x0(%rip),%rax        # 83ba <update_bb+0x6d9>
    83ba:	8b 55 fc             	mov    -0x4(%rbp),%edx
    83bd:	48 63 d2             	movslq %edx,%rdx
    83c0:	48 c1 e2 04          	shl    $0x4,%rdx
    83c4:	48 01 d0             	add    %rdx,%rax
    83c7:	8b 40 0c             	mov    0xc(%rax),%eax
    83ca:	3b 45 10             	cmp    0x10(%rbp),%eax
    83cd:	75 30                	jne    83ff <update_bb+0x71e>
    83cf:	48 8b 45 f0          	mov    -0x10(%rbp),%rax
    83d3:	8b 55 10             	mov    0x10(%rbp),%edx
    83d6:	89 50 0c             	mov    %edx,0xc(%rax)
    83d9:	48 8b 05 00 00 00 00 	mov    0x0(%rip),%rax        # 83e0 <update_bb+0x6ff>
    83e0:	8b 55 fc             	mov    -0x4(%rbp),%edx
    83e3:	48 63 d2             	movslq %edx,%rdx
    83e6:	48 c1 e2 04          	shl    $0x4,%rdx
    83ea:	48 01 d0             	add    %rdx,%rax
    83ed:	8b 40 0c             	mov    0xc(%rax),%eax
    83f0:	8d 50 01             	lea    0x1(%rax),%edx
    83f3:	48 8b 45 e8          	mov    -0x18(%rbp),%rax
    83f7:	89 50 0c             	mov    %edx,0xc(%rax)
    83fa:	e9 b6 00 00 00       	jmpq   84b5 <update_bb+0x7d4>
    83ff:	48 8b 05 00 00 00 00 	mov    0x0(%rip),%rax        # 8406 <update_bb+0x725>
    8406:	8b 55 fc             	mov    -0x4(%rbp),%edx
    8409:	48 63 d2             	movslq %edx,%rdx
    840c:	48 c1 e2 04          	shl    $0x4,%rdx
    8410:	48 01 d0             	add    %rdx,%rax
    8413:	8b 50 0c             	mov    0xc(%rax),%edx
    8416:	48 8b 45 f0          	mov    -0x10(%rbp),%rax
    841a:	89 50 0c             	mov    %edx,0xc(%rax)
    841d:	48 8b 05 00 00 00 00 	mov    0x0(%rip),%rax        # 8424 <update_bb+0x743>
    8424:	8b 55 fc             	mov    -0x4(%rbp),%edx
    8427:	48 63 d2             	movslq %edx,%rdx
    842a:	48 c1 e2 04          	shl    $0x4,%rdx
    842e:	48 01 d0             	add    %rdx,%rax
    8431:	8b 50 0c             	mov    0xc(%rax),%edx
    8434:	48 8b 45 e8          	mov    -0x18(%rbp),%rax
    8438:	89 50 0c             	mov    %edx,0xc(%rax)
    843b:	eb 78                	jmp    84b5 <update_bb+0x7d4>
    843d:	48 8b 05 00 00 00 00 	mov    0x0(%rip),%rax        # 8444 <update_bb+0x763>
    8444:	8b 55 fc             	mov    -0x4(%rbp),%edx
    8447:	48 63 d2             	movslq %edx,%rdx
    844a:	48 c1 e2 04          	shl    $0x4,%rdx
    844e:	48 01 d0             	add    %rdx,%rax
    8451:	8b 50 08             	mov    0x8(%rax),%edx
    8454:	48 8b 45 f0          	mov    -0x10(%rbp),%rax
    8458:	89 50 08             	mov    %edx,0x8(%rax)
    845b:	48 8b 05 00 00 00 00 	mov    0x0(%rip),%rax        # 8462 <update_bb+0x781>
    8462:	8b 55 fc             	mov    -0x4(%rbp),%edx
    8465:	48 63 d2             	movslq %edx,%rdx
    8468:	48 c1 e2 04          	shl    $0x4,%rdx
    846c:	48 01 d0             	add    %rdx,%rax
    846f:	8b 50 0c             	mov    0xc(%rax),%edx
    8472:	48 8b 45 f0          	mov    -0x10(%rbp),%rax
    8476:	89 50 0c             	mov    %edx,0xc(%rax)
    8479:	48 8b 05 00 00 00 00 	mov    0x0(%rip),%rax        # 8480 <update_bb+0x79f>
    8480:	8b 55 fc             	mov    -0x4(%rbp),%edx
    8483:	48 63 d2             	movslq %edx,%rdx
    8486:	48 c1 e2 04          	shl    $0x4,%rdx
    848a:	48 01 d0             	add    %rdx,%rax
    848d:	8b 50 08             	mov    0x8(%rax),%edx
    8490:	48 8b 45 e8          	mov    -0x18(%rbp),%rax
    8494:	89 50 08             	mov    %edx,0x8(%rax)
    8497:	48 8b 05 00 00 00 00 	mov    0x0(%rip),%rax        # 849e <update_bb+0x7bd>
    849e:	8b 55 fc             	mov    -0x4(%rbp),%edx
    84a1:	48 63 d2             	movslq %edx,%rdx
    84a4:	48 c1 e2 04          	shl    $0x4,%rdx
    84a8:	48 01 d0             	add    %rdx,%rax
    84ab:	8b 50 0c             	mov    0xc(%rax),%edx
    84ae:	48 8b 45 e8          	mov    -0x18(%rbp),%rax
    84b2:	89 50 0c             	mov    %edx,0xc(%rax)
    84b5:	c9                   	leaveq 
    84b6:	c3                   	retq   

00000000000084b7 <initial_placement>:
    84b7:	55                   	push   %rbp
    84b8:	48 89 e5             	mov    %rsp,%rbp
    84bb:	53                   	push   %rbx
    84bc:	48 83 ec 58          	sub    $0x58,%rsp
    84c0:	e8 00 00 00 00       	callq  84c5 <initial_placement+0xe>
    84c5:	89 7d ac             	mov    %edi,-0x54(%rbp)
    84c8:	48 89 75 a0          	mov    %rsi,-0x60(%rbp)
    84cc:	8b 05 00 00 00 00    	mov    0x0(%rip),%eax        # 84d2 <initial_placement+0x1b>
    84d2:	48 98                	cltq   
    84d4:	48 c1 e0 03          	shl    $0x3,%rax
    84d8:	48 89 c7             	mov    %rax,%rdi
    84db:	e8 00 00 00 00       	callq  84e0 <initial_placement+0x29>
    84e0:	48 89 45 d8          	mov    %rax,-0x28(%rbp)
    84e4:	8b 05 00 00 00 00    	mov    0x0(%rip),%eax        # 84ea <initial_placement+0x33>
    84ea:	48 98                	cltq   
    84ec:	be 04 00 00 00       	mov    $0x4,%esi
    84f1:	48 89 c7             	mov    %rax,%rdi
    84f4:	e8 00 00 00 00       	callq  84f9 <initial_placement+0x42>
    84f9:	48 89 45 d0          	mov    %rax,-0x30(%rbp)
    84fd:	8b 05 00 00 00 00    	mov    0x0(%rip),%eax        # 8503 <initial_placement+0x4c>
    8503:	48 98                	cltq   
    8505:	be 04 00 00 00       	mov    $0x4,%esi
    850a:	48 89 c7             	mov    %rax,%rdi
    850d:	e8 00 00 00 00       	callq  8512 <initial_placement+0x5b>
    8512:	48 89 45 c8          	mov    %rax,-0x38(%rbp)
    8516:	c7 45 ec 00 00 00 00 	movl   $0x0,-0x14(%rbp)
    851d:	e9 6c 01 00 00       	jmpq   868e <initial_placement+0x1d7>
    8522:	c7 45 e8 00 00 00 00 	movl   $0x0,-0x18(%rbp)
    8529:	e9 4a 01 00 00       	jmpq   8678 <initial_placement+0x1c1>
    852e:	48 8b 05 00 00 00 00 	mov    0x0(%rip),%rax        # 8535 <initial_placement+0x7e>
    8535:	8b 55 ec             	mov    -0x14(%rbp),%edx
    8538:	48 63 d2             	movslq %edx,%rdx
    853b:	48 c1 e2 03          	shl    $0x3,%rdx
    853f:	48 01 d0             	add    %rdx,%rax
    8542:	48 8b 08             	mov    (%rax),%rcx
    8545:	8b 45 e8             	mov    -0x18(%rbp),%eax
    8548:	48 63 d0             	movslq %eax,%rdx
    854b:	48 89 d0             	mov    %rdx,%rax
    854e:	48 01 c0             	add    %rax,%rax
    8551:	48 01 d0             	add    %rdx,%rax
    8554:	48 c1 e0 03          	shl    $0x3,%rax
    8558:	48 01 c8             	add    %rcx,%rax
    855b:	c7 40 0c 00 00 00 00 	movl   $0x0,0xc(%rax)
    8562:	c7 45 e4 00 00 00 00 	movl   $0x0,-0x1c(%rbp)
    8569:	e9 ca 00 00 00       	jmpq   8638 <initial_placement+0x181>
    856e:	48 8b 05 00 00 00 00 	mov    0x0(%rip),%rax        # 8575 <initial_placement+0xbe>
    8575:	8b 55 ec             	mov    -0x14(%rbp),%edx
    8578:	48 63 d2             	movslq %edx,%rdx
    857b:	48 c1 e2 03          	shl    $0x3,%rdx
    857f:	48 01 d0             	add    %rdx,%rax
    8582:	48 8b 08             	mov    (%rax),%rcx
    8585:	8b 45 e8             	mov    -0x18(%rbp),%eax
    8588:	48 63 d0             	movslq %eax,%rdx
    858b:	48 89 d0             	mov    %rdx,%rax
    858e:	48 01 c0             	add    %rax,%rax
    8591:	48 01 d0             	add    %rdx,%rax
    8594:	48 c1 e0 03          	shl    $0x3,%rax
    8598:	48 01 c8             	add    %rcx,%rax
    859b:	48 8b 40 10          	mov    0x10(%rax),%rax
    859f:	8b 55 e4             	mov    -0x1c(%rbp),%edx
    85a2:	48 63 d2             	movslq %edx,%rdx
    85a5:	48 c1 e2 02          	shl    $0x2,%rdx
    85a9:	48 01 d0             	add    %rdx,%rax
    85ac:	c7 00 ff ff ff ff    	movl   $0xffffffff,(%rax)
    85b2:	48 8b 05 00 00 00 00 	mov    0x0(%rip),%rax        # 85b9 <initial_placement+0x102>
    85b9:	8b 55 ec             	mov    -0x14(%rbp),%edx
    85bc:	48 63 d2             	movslq %edx,%rdx
    85bf:	48 c1 e2 03          	shl    $0x3,%rdx
    85c3:	48 01 d0             	add    %rdx,%rax
    85c6:	48 8b 08             	mov    (%rax),%rcx
    85c9:	8b 45 e8             	mov    -0x18(%rbp),%eax
    85cc:	48 63 d0             	movslq %eax,%rdx
    85cf:	48 89 d0             	mov    %rdx,%rax
    85d2:	48 01 c0             	add    %rax,%rax
    85d5:	48 01 d0             	add    %rdx,%rax
    85d8:	48 c1 e0 03          	shl    $0x3,%rax
    85dc:	48 01 c8             	add    %rcx,%rax
    85df:	8b 40 08             	mov    0x8(%rax),%eax
    85e2:	85 c0                	test   %eax,%eax
    85e4:	75 4e                	jne    8634 <initial_placement+0x17d>
    85e6:	48 8b 05 00 00 00 00 	mov    0x0(%rip),%rax        # 85ed <initial_placement+0x136>
    85ed:	8b 55 ec             	mov    -0x14(%rbp),%edx
    85f0:	48 63 d2             	movslq %edx,%rdx
    85f3:	48 c1 e2 03          	shl    $0x3,%rdx
    85f7:	48 01 d0             	add    %rdx,%rax
    85fa:	48 8b 08             	mov    (%rax),%rcx
    85fd:	8b 45 e8             	mov    -0x18(%rbp),%eax
    8600:	48 63 d0             	movslq %eax,%rdx
    8603:	48 89 d0             	mov    %rdx,%rax
    8606:	48 01 c0             	add    %rax,%rax
    8609:	48 01 d0             	add    %rdx,%rax
    860c:	48 c1 e0 03          	shl    $0x3,%rax
    8610:	48 01 c8             	add    %rcx,%rax
    8613:	48 8b 00             	mov    (%rax),%rax
    8616:	8b 80 90 00 00 00    	mov    0x90(%rax),%eax
    861c:	48 98                	cltq   
    861e:	48 8d 14 85 00 00 00 	lea    0x0(,%rax,4),%rdx
    8625:	00 
    8626:	48 8b 45 d0          	mov    -0x30(%rbp),%rax
    862a:	48 01 d0             	add    %rdx,%rax
    862d:	8b 10                	mov    (%rax),%edx
    862f:	83 c2 01             	add    $0x1,%edx
    8632:	89 10                	mov    %edx,(%rax)
    8634:	83 45 e4 01          	addl   $0x1,-0x1c(%rbp)
    8638:	48 8b 05 00 00 00 00 	mov    0x0(%rip),%rax        # 863f <initial_placement+0x188>
    863f:	8b 55 ec             	mov    -0x14(%rbp),%edx
    8642:	48 63 d2             	movslq %edx,%rdx
    8645:	48 c1 e2 03          	shl    $0x3,%rdx
    8649:	48 01 d0             	add    %rdx,%rax
    864c:	48 8b 08             	mov    (%rax),%rcx
    864f:	8b 45 e8             	mov    -0x18(%rbp),%eax
    8652:	48 63 d0             	movslq %eax,%rdx
    8655:	48 89 d0             	mov    %rdx,%rax
    8658:	48 01 c0             	add    %rax,%rax
    865b:	48 01 d0             	add    %rdx,%rax
    865e:	48 c1 e0 03          	shl    $0x3,%rax
    8662:	48 01 c8             	add    %rcx,%rax
    8665:	48 8b 00             	mov    (%rax),%rax
    8668:	8b 40 0c             	mov    0xc(%rax),%eax
    866b:	3b 45 e4             	cmp    -0x1c(%rbp),%eax
    866e:	0f 8f fa fe ff ff    	jg     856e <initial_placement+0xb7>
    8674:	83 45 e8 01          	addl   $0x1,-0x18(%rbp)
    8678:	8b 05 00 00 00 00    	mov    0x0(%rip),%eax        # 867e <initial_placement+0x1c7>
    867e:	83 c0 01             	add    $0x1,%eax
    8681:	3b 45 e8             	cmp    -0x18(%rbp),%eax
    8684:	0f 8d a4 fe ff ff    	jge    852e <initial_placement+0x77>
    868a:	83 45 ec 01          	addl   $0x1,-0x14(%rbp)
    868e:	8b 05 00 00 00 00    	mov    0x0(%rip),%eax        # 8694 <initial_placement+0x1dd>
    8694:	83 c0 01             	add    $0x1,%eax
    8697:	3b 45 ec             	cmp    -0x14(%rbp),%eax
    869a:	0f 8d 82 fe ff ff    	jge    8522 <initial_placement+0x6b>
    86a0:	c7 45 ec 00 00 00 00 	movl   $0x0,-0x14(%rbp)
    86a7:	eb 4a                	jmp    86f3 <initial_placement+0x23c>
    86a9:	8b 45 ec             	mov    -0x14(%rbp),%eax
    86ac:	48 98                	cltq   
    86ae:	48 8d 14 c5 00 00 00 	lea    0x0(,%rax,8),%rdx
    86b5:	00 
    86b6:	48 8b 45 d8          	mov    -0x28(%rbp),%rax
    86ba:	48 8d 1c 02          	lea    (%rdx,%rax,1),%rbx
    86be:	8b 45 ec             	mov    -0x14(%rbp),%eax
    86c1:	48 98                	cltq   
    86c3:	48 8d 14 85 00 00 00 	lea    0x0(,%rax,4),%rdx
    86ca:	00 
    86cb:	48 8b 45 d0          	mov    -0x30(%rbp),%rax
    86cf:	48 01 d0             	add    %rdx,%rax
    86d2:	8b 00                	mov    (%rax),%eax
    86d4:	48 63 d0             	movslq %eax,%rdx
    86d7:	48 89 d0             	mov    %rdx,%rax
    86da:	48 01 c0             	add    %rax,%rax
    86dd:	48 01 d0             	add    %rdx,%rax
    86e0:	48 c1 e0 02          	shl    $0x2,%rax
    86e4:	48 89 c7             	mov    %rax,%rdi
    86e7:	e8 00 00 00 00       	callq  86ec <initial_placement+0x235>
    86ec:	48 89 03             	mov    %rax,(%rbx)
    86ef:	83 45 ec 01          	addl   $0x1,-0x14(%rbp)
    86f3:	8b 05 00 00 00 00    	mov    0x0(%rip),%eax        # 86f9 <initial_placement+0x242>
    86f9:	39 45 ec             	cmp    %eax,-0x14(%rbp)
    86fc:	7c ab                	jl     86a9 <initial_placement+0x1f2>
    86fe:	c7 45 ec 00 00 00 00 	movl   $0x0,-0x14(%rbp)
    8705:	e9 d2 01 00 00       	jmpq   88dc <initial_placement+0x425>
    870a:	c7 45 e8 00 00 00 00 	movl   $0x0,-0x18(%rbp)
    8711:	e9 b0 01 00 00       	jmpq   88c6 <initial_placement+0x40f>
    8716:	c7 45 e4 00 00 00 00 	movl   $0x0,-0x1c(%rbp)
    871d:	e9 64 01 00 00       	jmpq   8886 <initial_placement+0x3cf>
    8722:	48 8b 05 00 00 00 00 	mov    0x0(%rip),%rax        # 8729 <initial_placement+0x272>
    8729:	8b 55 ec             	mov    -0x14(%rbp),%edx
    872c:	48 63 d2             	movslq %edx,%rdx
    872f:	48 c1 e2 03          	shl    $0x3,%rdx
    8733:	48 01 d0             	add    %rdx,%rax
    8736:	48 8b 08             	mov    (%rax),%rcx
    8739:	8b 45 e8             	mov    -0x18(%rbp),%eax
    873c:	48 63 d0             	movslq %eax,%rdx
    873f:	48 89 d0             	mov    %rdx,%rax
    8742:	48 01 c0             	add    %rax,%rax
    8745:	48 01 d0             	add    %rdx,%rax
    8748:	48 c1 e0 03          	shl    $0x3,%rax
    874c:	48 01 c8             	add    %rcx,%rax
    874f:	8b 40 08             	mov    0x8(%rax),%eax
    8752:	85 c0                	test   %eax,%eax
    8754:	0f 85 28 01 00 00    	jne    8882 <initial_placement+0x3cb>
    875a:	48 8b 05 00 00 00 00 	mov    0x0(%rip),%rax        # 8761 <initial_placement+0x2aa>
    8761:	8b 55 ec             	mov    -0x14(%rbp),%edx
    8764:	48 63 d2             	movslq %edx,%rdx
    8767:	48 c1 e2 03          	shl    $0x3,%rdx
    876b:	48 01 d0             	add    %rdx,%rax
    876e:	48 8b 08             	mov    (%rax),%rcx
    8771:	8b 45 e8             	mov    -0x18(%rbp),%eax
    8774:	48 63 d0             	movslq %eax,%rdx
    8777:	48 89 d0             	mov    %rdx,%rax
    877a:	48 01 c0             	add    %rax,%rax
    877d:	48 01 d0             	add    %rdx,%rax
    8780:	48 c1 e0 03          	shl    $0x3,%rax
    8784:	48 01 c8             	add    %rcx,%rax
    8787:	48 8b 00             	mov    (%rax),%rax
    878a:	8b 80 90 00 00 00    	mov    0x90(%rax),%eax
    8790:	89 45 c4             	mov    %eax,-0x3c(%rbp)
    8793:	8b 45 c4             	mov    -0x3c(%rbp),%eax
    8796:	48 98                	cltq   
    8798:	48 8d 14 c5 00 00 00 	lea    0x0(,%rax,8),%rdx
    879f:	00 
    87a0:	48 8b 45 d8          	mov    -0x28(%rbp),%rax
    87a4:	48 01 d0             	add    %rdx,%rax
    87a7:	48 8b 08             	mov    (%rax),%rcx
    87aa:	8b 45 c4             	mov    -0x3c(%rbp),%eax
    87ad:	48 98                	cltq   
    87af:	48 8d 14 85 00 00 00 	lea    0x0(,%rax,4),%rdx
    87b6:	00 
    87b7:	48 8b 45 c8          	mov    -0x38(%rbp),%rax
    87bb:	48 01 d0             	add    %rdx,%rax
    87be:	8b 00                	mov    (%rax),%eax
    87c0:	48 63 d0             	movslq %eax,%rdx
    87c3:	48 89 d0             	mov    %rdx,%rax
    87c6:	48 01 c0             	add    %rax,%rax
    87c9:	48 01 d0             	add    %rdx,%rax
    87cc:	48 c1 e0 02          	shl    $0x2,%rax
    87d0:	48 8d 14 01          	lea    (%rcx,%rax,1),%rdx
    87d4:	8b 45 ec             	mov    -0x14(%rbp),%eax
    87d7:	89 02                	mov    %eax,(%rdx)
    87d9:	8b 45 c4             	mov    -0x3c(%rbp),%eax
    87dc:	48 98                	cltq   
    87de:	48 8d 14 c5 00 00 00 	lea    0x0(,%rax,8),%rdx
    87e5:	00 
    87e6:	48 8b 45 d8          	mov    -0x28(%rbp),%rax
    87ea:	48 01 d0             	add    %rdx,%rax
    87ed:	48 8b 08             	mov    (%rax),%rcx
    87f0:	8b 45 c4             	mov    -0x3c(%rbp),%eax
    87f3:	48 98                	cltq   
    87f5:	48 8d 14 85 00 00 00 	lea    0x0(,%rax,4),%rdx
    87fc:	00 
    87fd:	48 8b 45 c8          	mov    -0x38(%rbp),%rax
    8801:	48 01 d0             	add    %rdx,%rax
    8804:	8b 00                	mov    (%rax),%eax
    8806:	48 63 d0             	movslq %eax,%rdx
    8809:	48 89 d0             	mov    %rdx,%rax
    880c:	48 01 c0             	add    %rax,%rax
    880f:	48 01 d0             	add    %rdx,%rax
    8812:	48 c1 e0 02          	shl    $0x2,%rax
    8816:	48 8d 14 01          	lea    (%rcx,%rax,1),%rdx
    881a:	8b 45 e8             	mov    -0x18(%rbp),%eax
    881d:	89 42 04             	mov    %eax,0x4(%rdx)
    8820:	8b 45 c4             	mov    -0x3c(%rbp),%eax
    8823:	48 98                	cltq   
    8825:	48 8d 14 c5 00 00 00 	lea    0x0(,%rax,8),%rdx
    882c:	00 
    882d:	48 8b 45 d8          	mov    -0x28(%rbp),%rax
    8831:	48 01 d0             	add    %rdx,%rax
    8834:	48 8b 08             	mov    (%rax),%rcx
    8837:	8b 45 c4             	mov    -0x3c(%rbp),%eax
    883a:	48 98                	cltq   
    883c:	48 8d 14 85 00 00 00 	lea    0x0(,%rax,4),%rdx
    8843:	00 
    8844:	48 8b 45 c8          	mov    -0x38(%rbp),%rax
    8848:	48 01 d0             	add    %rdx,%rax
    884b:	8b 00                	mov    (%rax),%eax
    884d:	48 63 d0             	movslq %eax,%rdx
    8850:	48 89 d0             	mov    %rdx,%rax
    8853:	48 01 c0             	add    %rax,%rax
    8856:	48 01 d0             	add    %rdx,%rax
    8859:	48 c1 e0 02          	shl    $0x2,%rax
    885d:	48 8d 14 01          	lea    (%rcx,%rax,1),%rdx
    8861:	8b 45 e4             	mov    -0x1c(%rbp),%eax
    8864:	89 42 08             	mov    %eax,0x8(%rdx)
    8867:	8b 45 c4             	mov    -0x3c(%rbp),%eax
    886a:	48 98                	cltq   
    886c:	48 8d 14 85 00 00 00 	lea    0x0(,%rax,4),%rdx
    8873:	00 
    8874:	48 8b 45 c8          	mov    -0x38(%rbp),%rax
    8878:	48 01 d0             	add    %rdx,%rax
    887b:	8b 10                	mov    (%rax),%edx
    887d:	83 c2 01             	add    $0x1,%edx
    8880:	89 10                	mov    %edx,(%rax)
    8882:	83 45 e4 01          	addl   $0x1,-0x1c(%rbp)
    8886:	48 8b 05 00 00 00 00 	mov    0x0(%rip),%rax        # 888d <initial_placement+0x3d6>
    888d:	8b 55 ec             	mov    -0x14(%rbp),%edx
    8890:	48 63 d2             	movslq %edx,%rdx
    8893:	48 c1 e2 03          	shl    $0x3,%rdx
    8897:	48 01 d0             	add    %rdx,%rax
    889a:	48 8b 08             	mov    (%rax),%rcx
    889d:	8b 45 e8             	mov    -0x18(%rbp),%eax
    88a0:	48 63 d0             	movslq %eax,%rdx
    88a3:	48 89 d0             	mov    %rdx,%rax
    88a6:	48 01 c0             	add    %rax,%rax
    88a9:	48 01 d0             	add    %rdx,%rax
    88ac:	48 c1 e0 03          	shl    $0x3,%rax
    88b0:	48 01 c8             	add    %rcx,%rax
    88b3:	48 8b 00             	mov    (%rax),%rax
    88b6:	8b 40 0c             	mov    0xc(%rax),%eax
    88b9:	3b 45 e4             	cmp    -0x1c(%rbp),%eax
    88bc:	0f 8f 60 fe ff ff    	jg     8722 <initial_placement+0x26b>
    88c2:	83 45 e8 01          	addl   $0x1,-0x18(%rbp)
    88c6:	8b 05 00 00 00 00    	mov    0x0(%rip),%eax        # 88cc <initial_placement+0x415>
    88cc:	83 c0 01             	add    $0x1,%eax
    88cf:	3b 45 e8             	cmp    -0x18(%rbp),%eax
    88d2:	0f 8d 3e fe ff ff    	jge    8716 <initial_placement+0x25f>
    88d8:	83 45 ec 01          	addl   $0x1,-0x14(%rbp)
    88dc:	8b 05 00 00 00 00    	mov    0x0(%rip),%eax        # 88e2 <initial_placement+0x42b>
    88e2:	83 c0 01             	add    $0x1,%eax
    88e5:	3b 45 ec             	cmp    -0x14(%rbp),%eax
    88e8:	0f 8d 1c fe ff ff    	jge    870a <initial_placement+0x253>
    88ee:	c7 45 e0 00 00 00 00 	movl   $0x0,-0x20(%rbp)
    88f5:	e9 66 02 00 00       	jmpq   8b60 <initial_placement+0x6a9>
    88fa:	48 8b 0d 00 00 00 00 	mov    0x0(%rip),%rcx        # 8901 <initial_placement+0x44a>
    8901:	8b 45 e0             	mov    -0x20(%rbp),%eax
    8904:	48 63 d0             	movslq %eax,%rdx
    8907:	48 89 d0             	mov    %rdx,%rax
    890a:	48 c1 e0 02          	shl    $0x2,%rax
    890e:	48 01 d0             	add    %rdx,%rax
    8911:	48 c1 e0 03          	shl    $0x3,%rax
    8915:	48 01 c8             	add    %rcx,%rax
    8918:	48 8b 50 08          	mov    0x8(%rax),%rdx
    891c:	48 8b 05 00 00 00 00 	mov    0x0(%rip),%rax        # 8923 <initial_placement+0x46c>
    8923:	48 39 c2             	cmp    %rax,%rdx
    8926:	75 0a                	jne    8932 <initial_placement+0x47b>
    8928:	83 7d ac 02          	cmpl   $0x2,-0x54(%rbp)
    892c:	0f 84 2a 02 00 00    	je     8b5c <initial_placement+0x6a5>
    8932:	48 8b 0d 00 00 00 00 	mov    0x0(%rip),%rcx        # 8939 <initial_placement+0x482>
    8939:	8b 45 e0             	mov    -0x20(%rbp),%eax
    893c:	48 63 d0             	movslq %eax,%rdx
    893f:	48 89 d0             	mov    %rdx,%rax
    8942:	48 c1 e0 02          	shl    $0x2,%rax
    8946:	48 01 d0             	add    %rdx,%rax
    8949:	48 c1 e0 03          	shl    $0x3,%rax
    894d:	48 01 c8             	add    %rcx,%rax
    8950:	48 8b 40 08          	mov    0x8(%rax),%rax
    8954:	8b 80 90 00 00 00    	mov    0x90(%rax),%eax
    895a:	89 45 c4             	mov    %eax,-0x3c(%rbp)
    895d:	8b 45 c4             	mov    -0x3c(%rbp),%eax
    8960:	48 98                	cltq   
    8962:	48 8d 14 85 00 00 00 	lea    0x0(,%rax,4),%rdx
    8969:	00 
    896a:	48 8b 45 d0          	mov    -0x30(%rbp),%rax
    896e:	48 01 d0             	add    %rdx,%rax
    8971:	8b 00                	mov    (%rax),%eax
    8973:	85 c0                	test   %eax,%eax
    8975:	7f 19                	jg     8990 <initial_placement+0x4d9>
    8977:	b9 00 00 00 00       	mov    $0x0,%ecx
    897c:	ba 41 0e 00 00       	mov    $0xe41,%edx
    8981:	be 00 00 00 00       	mov    $0x0,%esi
    8986:	bf 00 00 00 00       	mov    $0x0,%edi
    898b:	e8 00 00 00 00       	callq  8990 <initial_placement+0x4d9>
    8990:	8b 45 c4             	mov    -0x3c(%rbp),%eax
    8993:	48 98                	cltq   
    8995:	48 8d 14 85 00 00 00 	lea    0x0(,%rax,4),%rdx
    899c:	00 
    899d:	48 8b 45 d0          	mov    -0x30(%rbp),%rax
    89a1:	48 01 d0             	add    %rdx,%rax
    89a4:	8b 00                	mov    (%rax),%eax
    89a6:	83 e8 01             	sub    $0x1,%eax
    89a9:	89 c7                	mov    %eax,%edi
    89ab:	e8 00 00 00 00       	callq  89b0 <initial_placement+0x4f9>
    89b0:	89 45 c0             	mov    %eax,-0x40(%rbp)
    89b3:	8b 45 c4             	mov    -0x3c(%rbp),%eax
    89b6:	48 98                	cltq   
    89b8:	48 8d 14 c5 00 00 00 	lea    0x0(,%rax,8),%rdx
    89bf:	00 
    89c0:	48 8b 45 d8          	mov    -0x28(%rbp),%rax
    89c4:	48 01 d0             	add    %rdx,%rax
    89c7:	48 8b 08             	mov    (%rax),%rcx
    89ca:	8b 45 c0             	mov    -0x40(%rbp),%eax
    89cd:	48 63 d0             	movslq %eax,%rdx
    89d0:	48 89 d0             	mov    %rdx,%rax
    89d3:	48 01 c0             	add    %rax,%rax
    89d6:	48 01 d0             	add    %rdx,%rax
    89d9:	48 c1 e0 02          	shl    $0x2,%rax
    89dd:	48 01 c8             	add    %rcx,%rax
    89e0:	8b 00                	mov    (%rax),%eax
    89e2:	89 45 bc             	mov    %eax,-0x44(%rbp)
    89e5:	8b 45 c4             	mov    -0x3c(%rbp),%eax
    89e8:	48 98                	cltq   
    89ea:	48 8d 14 c5 00 00 00 	lea    0x0(,%rax,8),%rdx
    89f1:	00 
    89f2:	48 8b 45 d8          	mov    -0x28(%rbp),%rax
    89f6:	48 01 d0             	add    %rdx,%rax
    89f9:	48 8b 08             	mov    (%rax),%rcx
    89fc:	8b 45 c0             	mov    -0x40(%rbp),%eax
    89ff:	48 63 d0             	movslq %eax,%rdx
    8a02:	48 89 d0             	mov    %rdx,%rax
    8a05:	48 01 c0             	add    %rax,%rax
    8a08:	48 01 d0             	add    %rdx,%rax
    8a0b:	48 c1 e0 02          	shl    $0x2,%rax
    8a0f:	48 01 c8             	add    %rcx,%rax
    8a12:	8b 40 04             	mov    0x4(%rax),%eax
    8a15:	89 45 b8             	mov    %eax,-0x48(%rbp)
    8a18:	8b 45 c4             	mov    -0x3c(%rbp),%eax
    8a1b:	48 98                	cltq   
    8a1d:	48 8d 14 c5 00 00 00 	lea    0x0(,%rax,8),%rdx
    8a24:	00 
    8a25:	48 8b 45 d8          	mov    -0x28(%rbp),%rax
    8a29:	48 01 d0             	add    %rdx,%rax
    8a2c:	48 8b 08             	mov    (%rax),%rcx
    8a2f:	8b 45 c0             	mov    -0x40(%rbp),%eax
    8a32:	48 63 d0             	movslq %eax,%rdx
    8a35:	48 89 d0             	mov    %rdx,%rax
    8a38:	48 01 c0             	add    %rax,%rax
    8a3b:	48 01 d0             	add    %rdx,%rax
    8a3e:	48 c1 e0 02          	shl    $0x2,%rax
    8a42:	48 01 c8             	add    %rcx,%rax
    8a45:	8b 40 08             	mov    0x8(%rax),%eax
    8a48:	89 45 b4             	mov    %eax,-0x4c(%rbp)
    8a4b:	48 8b 05 00 00 00 00 	mov    0x0(%rip),%rax        # 8a52 <initial_placement+0x59b>
    8a52:	8b 55 bc             	mov    -0x44(%rbp),%edx
    8a55:	48 63 d2             	movslq %edx,%rdx
    8a58:	48 c1 e2 03          	shl    $0x3,%rdx
    8a5c:	48 01 d0             	add    %rdx,%rax
    8a5f:	48 8b 08             	mov    (%rax),%rcx
    8a62:	8b 45 b8             	mov    -0x48(%rbp),%eax
    8a65:	48 63 d0             	movslq %eax,%rdx
    8a68:	48 89 d0             	mov    %rdx,%rax
    8a6b:	48 01 c0             	add    %rax,%rax
    8a6e:	48 01 d0             	add    %rdx,%rax
    8a71:	48 c1 e0 03          	shl    $0x3,%rax
    8a75:	48 01 c8             	add    %rcx,%rax
    8a78:	48 8b 40 10          	mov    0x10(%rax),%rax
    8a7c:	8b 55 b4             	mov    -0x4c(%rbp),%edx
    8a7f:	48 63 d2             	movslq %edx,%rdx
    8a82:	48 c1 e2 02          	shl    $0x2,%rdx
    8a86:	48 01 c2             	add    %rax,%rdx
    8a89:	8b 45 e0             	mov    -0x20(%rbp),%eax
    8a8c:	89 02                	mov    %eax,(%rdx)
    8a8e:	48 8b 05 00 00 00 00 	mov    0x0(%rip),%rax        # 8a95 <initial_placement+0x5de>
    8a95:	8b 55 bc             	mov    -0x44(%rbp),%edx
    8a98:	48 63 d2             	movslq %edx,%rdx
    8a9b:	48 c1 e2 03          	shl    $0x3,%rdx
    8a9f:	48 01 d0             	add    %rdx,%rax
    8aa2:	48 8b 08             	mov    (%rax),%rcx
    8aa5:	8b 45 b8             	mov    -0x48(%rbp),%eax
    8aa8:	48 63 d0             	movslq %eax,%rdx
    8aab:	48 89 d0             	mov    %rdx,%rax
    8aae:	48 01 c0             	add    %rax,%rax
    8ab1:	48 01 d0             	add    %rdx,%rax
    8ab4:	48 c1 e0 03          	shl    $0x3,%rax
    8ab8:	48 01 c8             	add    %rcx,%rax
    8abb:	8b 50 0c             	mov    0xc(%rax),%edx
    8abe:	83 c2 01             	add    $0x1,%edx
    8ac1:	89 50 0c             	mov    %edx,0xc(%rax)
    8ac4:	8b 45 c4             	mov    -0x3c(%rbp),%eax
    8ac7:	48 98                	cltq   
    8ac9:	48 8d 14 c5 00 00 00 	lea    0x0(,%rax,8),%rdx
    8ad0:	00 
    8ad1:	48 8b 45 d8          	mov    -0x28(%rbp),%rax
    8ad5:	48 01 d0             	add    %rdx,%rax
    8ad8:	48 8b 08             	mov    (%rax),%rcx
    8adb:	8b 45 c0             	mov    -0x40(%rbp),%eax
    8ade:	48 63 d0             	movslq %eax,%rdx
    8ae1:	48 89 d0             	mov    %rdx,%rax
    8ae4:	48 01 c0             	add    %rax,%rax
    8ae7:	48 01 d0             	add    %rdx,%rax
    8aea:	48 c1 e0 02          	shl    $0x2,%rax
    8aee:	48 8d 14 01          	lea    (%rcx,%rax,1),%rdx
    8af2:	8b 45 c4             	mov    -0x3c(%rbp),%eax
    8af5:	48 98                	cltq   
    8af7:	48 8d 0c c5 00 00 00 	lea    0x0(,%rax,8),%rcx
    8afe:	00 
    8aff:	48 8b 45 d8          	mov    -0x28(%rbp),%rax
    8b03:	48 01 c8             	add    %rcx,%rax
    8b06:	48 8b 30             	mov    (%rax),%rsi
    8b09:	8b 45 c4             	mov    -0x3c(%rbp),%eax
    8b0c:	48 98                	cltq   
    8b0e:	48 8d 0c 85 00 00 00 	lea    0x0(,%rax,4),%rcx
    8b15:	00 
    8b16:	48 8b 45 d0          	mov    -0x30(%rbp),%rax
    8b1a:	48 01 c8             	add    %rcx,%rax
    8b1d:	8b 00                	mov    (%rax),%eax
    8b1f:	48 98                	cltq   
    8b21:	48 8d 48 ff          	lea    -0x1(%rax),%rcx
    8b25:	48 89 c8             	mov    %rcx,%rax
    8b28:	48 01 c0             	add    %rax,%rax
    8b2b:	48 01 c8             	add    %rcx,%rax
    8b2e:	48 c1 e0 02          	shl    $0x2,%rax
    8b32:	48 01 f0             	add    %rsi,%rax
    8b35:	48 8b 08             	mov    (%rax),%rcx
    8b38:	48 89 0a             	mov    %rcx,(%rdx)
    8b3b:	8b 40 08             	mov    0x8(%rax),%eax
    8b3e:	89 42 08             	mov    %eax,0x8(%rdx)
    8b41:	8b 45 c4             	mov    -0x3c(%rbp),%eax
    8b44:	48 98                	cltq   
    8b46:	48 8d 14 85 00 00 00 	lea    0x0(,%rax,4),%rdx
    8b4d:	00 
    8b4e:	48 8b 45 d0          	mov    -0x30(%rbp),%rax
    8b52:	48 01 d0             	add    %rdx,%rax
    8b55:	8b 10                	mov    (%rax),%edx
    8b57:	83 ea 01             	sub    $0x1,%edx
    8b5a:	89 10                	mov    %edx,(%rax)
    8b5c:	83 45 e0 01          	addl   $0x1,-0x20(%rbp)
    8b60:	8b 05 00 00 00 00    	mov    0x0(%rip),%eax        # 8b66 <initial_placement+0x6af>
    8b66:	39 45 e0             	cmp    %eax,-0x20(%rbp)
    8b69:	0f 8c 8b fd ff ff    	jl     88fa <initial_placement+0x443>
    8b6f:	83 7d ac 02          	cmpl   $0x2,-0x54(%rbp)
    8b73:	75 0c                	jne    8b81 <initial_placement+0x6ca>
    8b75:	48 8b 45 a0          	mov    -0x60(%rbp),%rax
    8b79:	48 89 c7             	mov    %rax,%rdi
    8b7c:	e8 00 00 00 00       	callq  8b81 <initial_placement+0x6ca>
    8b81:	c7 45 ec 00 00 00 00 	movl   $0x0,-0x14(%rbp)
    8b88:	e9 79 01 00 00       	jmpq   8d06 <initial_placement+0x84f>
    8b8d:	c7 45 e8 00 00 00 00 	movl   $0x0,-0x18(%rbp)
    8b94:	e9 57 01 00 00       	jmpq   8cf0 <initial_placement+0x839>
    8b99:	c7 45 e4 00 00 00 00 	movl   $0x0,-0x1c(%rbp)
    8ba0:	e9 0b 01 00 00       	jmpq   8cb0 <initial_placement+0x7f9>
    8ba5:	48 8b 05 00 00 00 00 	mov    0x0(%rip),%rax        # 8bac <initial_placement+0x6f5>
    8bac:	8b 55 ec             	mov    -0x14(%rbp),%edx
    8baf:	48 63 d2             	movslq %edx,%rdx
    8bb2:	48 c1 e2 03          	shl    $0x3,%rdx
    8bb6:	48 01 d0             	add    %rdx,%rax
    8bb9:	48 8b 08             	mov    (%rax),%rcx
    8bbc:	8b 45 e8             	mov    -0x18(%rbp),%eax
    8bbf:	48 63 d0             	movslq %eax,%rdx
    8bc2:	48 89 d0             	mov    %rdx,%rax
    8bc5:	48 01 c0             	add    %rax,%rax
    8bc8:	48 01 d0             	add    %rdx,%rax
    8bcb:	48 c1 e0 03          	shl    $0x3,%rax
    8bcf:	48 01 c8             	add    %rcx,%rax
    8bd2:	48 8b 40 10          	mov    0x10(%rax),%rax
    8bd6:	48 85 c0             	test   %rax,%rax
    8bd9:	75 19                	jne    8bf4 <initial_placement+0x73d>
    8bdb:	b9 00 00 00 00       	mov    $0x0,%ecx
    8be0:	ba 5d 0e 00 00       	mov    $0xe5d,%edx
    8be5:	be 00 00 00 00       	mov    $0x0,%esi
    8bea:	bf 00 00 00 00       	mov    $0x0,%edi
    8bef:	e8 00 00 00 00       	callq  8bf4 <initial_placement+0x73d>
    8bf4:	48 8b 05 00 00 00 00 	mov    0x0(%rip),%rax        # 8bfb <initial_placement+0x744>
    8bfb:	8b 55 ec             	mov    -0x14(%rbp),%edx
    8bfe:	48 63 d2             	movslq %edx,%rdx
    8c01:	48 c1 e2 03          	shl    $0x3,%rdx
    8c05:	48 01 d0             	add    %rdx,%rax
    8c08:	48 8b 08             	mov    (%rax),%rcx
    8c0b:	8b 45 e8             	mov    -0x18(%rbp),%eax
    8c0e:	48 63 d0             	movslq %eax,%rdx
    8c11:	48 89 d0             	mov    %rdx,%rax
    8c14:	48 01 c0             	add    %rax,%rax
    8c17:	48 01 d0             	add    %rdx,%rax
    8c1a:	48 c1 e0 03          	shl    $0x3,%rax
    8c1e:	48 01 c8             	add    %rcx,%rax
    8c21:	48 8b 40 10          	mov    0x10(%rax),%rax
    8c25:	8b 55 e4             	mov    -0x1c(%rbp),%edx
    8c28:	48 63 d2             	movslq %edx,%rdx
    8c2b:	48 c1 e2 02          	shl    $0x2,%rdx
    8c2f:	48 01 d0             	add    %rdx,%rax
    8c32:	8b 00                	mov    (%rax),%eax
    8c34:	89 45 e0             	mov    %eax,-0x20(%rbp)
    8c37:	83 7d e0 ff          	cmpl   $0xffffffff,-0x20(%rbp)
    8c3b:	74 6f                	je     8cac <initial_placement+0x7f5>
    8c3d:	48 8b 0d 00 00 00 00 	mov    0x0(%rip),%rcx        # 8c44 <initial_placement+0x78d>
    8c44:	8b 45 e0             	mov    -0x20(%rbp),%eax
    8c47:	48 63 d0             	movslq %eax,%rdx
    8c4a:	48 89 d0             	mov    %rdx,%rax
    8c4d:	48 c1 e0 02          	shl    $0x2,%rax
    8c51:	48 01 d0             	add    %rdx,%rax
    8c54:	48 c1 e0 03          	shl    $0x3,%rax
    8c58:	48 8d 14 01          	lea    (%rcx,%rax,1),%rdx
    8c5c:	8b 45 ec             	mov    -0x14(%rbp),%eax
    8c5f:	89 42 18             	mov    %eax,0x18(%rdx)
    8c62:	48 8b 0d 00 00 00 00 	mov    0x0(%rip),%rcx        # 8c69 <initial_placement+0x7b2>
    8c69:	8b 45 e0             	mov    -0x20(%rbp),%eax
    8c6c:	48 63 d0             	movslq %eax,%rdx
    8c6f:	48 89 d0             	mov    %rdx,%rax
    8c72:	48 c1 e0 02          	shl    $0x2,%rax
    8c76:	48 01 d0             	add    %rdx,%rax
    8c79:	48 c1 e0 03          	shl    $0x3,%rax
    8c7d:	48 8d 14 01          	lea    (%rcx,%rax,1),%rdx
    8c81:	8b 45 e8             	mov    -0x18(%rbp),%eax
    8c84:	89 42 1c             	mov    %eax,0x1c(%rdx)
    8c87:	48 8b 0d 00 00 00 00 	mov    0x0(%rip),%rcx        # 8c8e <initial_placement+0x7d7>
    8c8e:	8b 45 e0             	mov    -0x20(%rbp),%eax
    8c91:	48 63 d0             	movslq %eax,%rdx
    8c94:	48 89 d0             	mov    %rdx,%rax
    8c97:	48 c1 e0 02          	shl    $0x2,%rax
    8c9b:	48 01 d0             	add    %rdx,%rax
    8c9e:	48 c1 e0 03          	shl    $0x3,%rax
    8ca2:	48 8d 14 01          	lea    (%rcx,%rax,1),%rdx
    8ca6:	8b 45 e4             	mov    -0x1c(%rbp),%eax
    8ca9:	89 42 20             	mov    %eax,0x20(%rdx)
    8cac:	83 45 e4 01          	addl   $0x1,-0x1c(%rbp)
    8cb0:	48 8b 05 00 00 00 00 	mov    0x0(%rip),%rax        # 8cb7 <initial_placement+0x800>
    8cb7:	8b 55 ec             	mov    -0x14(%rbp),%edx
    8cba:	48 63 d2             	movslq %edx,%rdx
    8cbd:	48 c1 e2 03          	shl    $0x3,%rdx
    8cc1:	48 01 d0             	add    %rdx,%rax
    8cc4:	48 8b 08             	mov    (%rax),%rcx
    8cc7:	8b 45 e8             	mov    -0x18(%rbp),%eax
    8cca:	48 63 d0             	movslq %eax,%rdx
    8ccd:	48 89 d0             	mov    %rdx,%rax
    8cd0:	48 01 c0             	add    %rax,%rax
    8cd3:	48 01 d0             	add    %rdx,%rax
    8cd6:	48 c1 e0 03          	shl    $0x3,%rax
    8cda:	48 01 c8             	add    %rcx,%rax
    8cdd:	48 8b 00             	mov    (%rax),%rax
    8ce0:	8b 40 0c             	mov    0xc(%rax),%eax
    8ce3:	3b 45 e4             	cmp    -0x1c(%rbp),%eax
    8ce6:	0f 8f b9 fe ff ff    	jg     8ba5 <initial_placement+0x6ee>
    8cec:	83 45 e8 01          	addl   $0x1,-0x18(%rbp)
    8cf0:	8b 05 00 00 00 00    	mov    0x0(%rip),%eax        # 8cf6 <initial_placement+0x83f>
    8cf6:	83 c0 01             	add    $0x1,%eax
    8cf9:	3b 45 e8             	cmp    -0x18(%rbp),%eax
    8cfc:	0f 8d 97 fe ff ff    	jge    8b99 <initial_placement+0x6e2>
    8d02:	83 45 ec 01          	addl   $0x1,-0x14(%rbp)
    8d06:	8b 05 00 00 00 00    	mov    0x0(%rip),%eax        # 8d0c <initial_placement+0x855>
    8d0c:	83 c0 01             	add    $0x1,%eax
    8d0f:	3b 45 ec             	cmp    -0x14(%rbp),%eax
    8d12:	0f 8d 75 fe ff ff    	jge    8b8d <initial_placement+0x6d6>
    8d18:	c7 45 ec 00 00 00 00 	movl   $0x0,-0x14(%rbp)
    8d1f:	eb 23                	jmp    8d44 <initial_placement+0x88d>
    8d21:	8b 45 ec             	mov    -0x14(%rbp),%eax
    8d24:	48 98                	cltq   
    8d26:	48 8d 14 c5 00 00 00 	lea    0x0(,%rax,8),%rdx
    8d2d:	00 
    8d2e:	48 8b 45 d8          	mov    -0x28(%rbp),%rax
    8d32:	48 01 d0             	add    %rdx,%rax
    8d35:	48 8b 00             	mov    (%rax),%rax
    8d38:	48 89 c7             	mov    %rax,%rdi
    8d3b:	e8 00 00 00 00       	callq  8d40 <initial_placement+0x889>
    8d40:	83 45 ec 01          	addl   $0x1,-0x14(%rbp)
    8d44:	8b 05 00 00 00 00    	mov    0x0(%rip),%eax        # 8d4a <initial_placement+0x893>
    8d4a:	39 45 ec             	cmp    %eax,-0x14(%rbp)
    8d4d:	7c d2                	jl     8d21 <initial_placement+0x86a>
    8d4f:	48 8b 45 d8          	mov    -0x28(%rbp),%rax
    8d53:	48 89 c7             	mov    %rax,%rdi
    8d56:	e8 00 00 00 00       	callq  8d5b <initial_placement+0x8a4>
    8d5b:	48 8b 45 c8          	mov    -0x38(%rbp),%rax
    8d5f:	48 89 c7             	mov    %rax,%rdi
    8d62:	e8 00 00 00 00       	callq  8d67 <initial_placement+0x8b0>
    8d67:	48 8b 45 d0          	mov    -0x30(%rbp),%rax
    8d6b:	48 89 c7             	mov    %rax,%rdi
    8d6e:	e8 00 00 00 00       	callq  8d73 <initial_placement+0x8bc>
    8d73:	48 83 c4 58          	add    $0x58,%rsp
    8d77:	5b                   	pop    %rbx
    8d78:	5d                   	pop    %rbp
    8d79:	c3                   	retq   

0000000000008d7a <free_fast_cost_update_structs>:
    8d7a:	55                   	push   %rbp
    8d7b:	48 89 e5             	mov    %rsp,%rbp
    8d7e:	48 83 ec 10          	sub    $0x10,%rsp
    8d82:	e8 00 00 00 00       	callq  8d87 <free_fast_cost_update_structs+0xd>
    8d87:	c7 45 fc 00 00 00 00 	movl   $0x0,-0x4(%rbp)
    8d8e:	eb 23                	jmp    8db3 <free_fast_cost_update_structs+0x39>
    8d90:	48 8b 05 00 00 00 00 	mov    0x0(%rip),%rax        # 8d97 <free_fast_cost_update_structs+0x1d>
    8d97:	8b 55 fc             	mov    -0x4(%rbp),%edx
    8d9a:	48 63 d2             	movslq %edx,%rdx
    8d9d:	48 c1 e2 03          	shl    $0x3,%rdx
    8da1:	48 01 d0             	add    %rdx,%rax
    8da4:	48 8b 00             	mov    (%rax),%rax
    8da7:	48 89 c7             	mov    %rax,%rdi
    8daa:	e8 00 00 00 00       	callq  8daf <free_fast_cost_update_structs+0x35>
    8daf:	83 45 fc 01          	addl   $0x1,-0x4(%rbp)
    8db3:	8b 05 00 00 00 00    	mov    0x0(%rip),%eax        # 8db9 <free_fast_cost_update_structs+0x3f>
    8db9:	39 45 fc             	cmp    %eax,-0x4(%rbp)
    8dbc:	7e d2                	jle    8d90 <free_fast_cost_update_structs+0x16>
    8dbe:	48 8b 05 00 00 00 00 	mov    0x0(%rip),%rax        # 8dc5 <free_fast_cost_update_structs+0x4b>
    8dc5:	48 89 c7             	mov    %rax,%rdi
    8dc8:	e8 00 00 00 00       	callq  8dcd <free_fast_cost_update_structs+0x53>
    8dcd:	c7 45 fc 00 00 00 00 	movl   $0x0,-0x4(%rbp)
    8dd4:	eb 23                	jmp    8df9 <free_fast_cost_update_structs+0x7f>
    8dd6:	48 8b 05 00 00 00 00 	mov    0x0(%rip),%rax        # 8ddd <free_fast_cost_update_structs+0x63>
    8ddd:	8b 55 fc             	mov    -0x4(%rbp),%edx
    8de0:	48 63 d2             	movslq %edx,%rdx
    8de3:	48 c1 e2 03          	shl    $0x3,%rdx
    8de7:	48 01 d0             	add    %rdx,%rax
    8dea:	48 8b 00             	mov    (%rax),%rax
    8ded:	48 89 c7             	mov    %rax,%rdi
    8df0:	e8 00 00 00 00       	callq  8df5 <free_fast_cost_update_structs+0x7b>
    8df5:	83 45 fc 01          	addl   $0x1,-0x4(%rbp)
    8df9:	8b 05 00 00 00 00    	mov    0x0(%rip),%eax        # 8dff <free_fast_cost_update_structs+0x85>
    8dff:	39 45 fc             	cmp    %eax,-0x4(%rbp)
    8e02:	7e d2                	jle    8dd6 <free_fast_cost_update_structs+0x5c>
    8e04:	48 8b 05 00 00 00 00 	mov    0x0(%rip),%rax        # 8e0b <free_fast_cost_update_structs+0x91>
    8e0b:	48 89 c7             	mov    %rax,%rdi
    8e0e:	e8 00 00 00 00       	callq  8e13 <free_fast_cost_update_structs+0x99>
    8e13:	c9                   	leaveq 
    8e14:	c3                   	retq   

0000000000008e15 <alloc_and_load_for_fast_cost_update>:
    8e15:	55                   	push   %rbp
    8e16:	48 89 e5             	mov    %rsp,%rbp
    8e19:	53                   	push   %rbx
    8e1a:	48 83 ec 28          	sub    $0x28,%rsp
    8e1e:	e8 00 00 00 00       	callq  8e23 <alloc_and_load_for_fast_cost_update+0xe>
    8e23:	f3 0f 11 45 dc       	movss  %xmm0,-0x24(%rbp)
    8e28:	8b 05 00 00 00 00    	mov    0x0(%rip),%eax        # 8e2e <alloc_and_load_for_fast_cost_update+0x19>
    8e2e:	83 c0 01             	add    $0x1,%eax
    8e31:	48 98                	cltq   
    8e33:	48 c1 e0 03          	shl    $0x3,%rax
    8e37:	48 89 c7             	mov    %rax,%rdi
    8e3a:	e8 00 00 00 00       	callq  8e3f <alloc_and_load_for_fast_cost_update+0x2a>
    8e3f:	48 89 05 00 00 00 00 	mov    %rax,0x0(%rip)        # 8e46 <alloc_and_load_for_fast_cost_update+0x31>
    8e46:	c7 45 e4 00 00 00 00 	movl   $0x0,-0x1c(%rbp)
    8e4d:	eb 30                	jmp    8e7f <alloc_and_load_for_fast_cost_update+0x6a>
    8e4f:	48 8b 05 00 00 00 00 	mov    0x0(%rip),%rax        # 8e56 <alloc_and_load_for_fast_cost_update+0x41>
    8e56:	8b 55 e4             	mov    -0x1c(%rbp),%edx
    8e59:	48 63 d2             	movslq %edx,%rdx
    8e5c:	48 c1 e2 03          	shl    $0x3,%rdx
    8e60:	48 8d 1c 10          	lea    (%rax,%rdx,1),%rbx
    8e64:	8b 45 e4             	mov    -0x1c(%rbp),%eax
    8e67:	83 c0 01             	add    $0x1,%eax
    8e6a:	48 98                	cltq   
    8e6c:	48 c1 e0 02          	shl    $0x2,%rax
    8e70:	48 89 c7             	mov    %rax,%rdi
    8e73:	e8 00 00 00 00       	callq  8e78 <alloc_and_load_for_fast_cost_update+0x63>
    8e78:	48 89 03             	mov    %rax,(%rbx)
    8e7b:	83 45 e4 01          	addl   $0x1,-0x1c(%rbp)
    8e7f:	8b 05 00 00 00 00    	mov    0x0(%rip),%eax        # 8e85 <alloc_and_load_for_fast_cost_update+0x70>
    8e85:	39 45 e4             	cmp    %eax,-0x1c(%rbp)
    8e88:	7e c5                	jle    8e4f <alloc_and_load_for_fast_cost_update+0x3a>
    8e8a:	8b 05 00 00 00 00    	mov    0x0(%rip),%eax        # 8e90 <alloc_and_load_for_fast_cost_update+0x7b>
    8e90:	83 c0 01             	add    $0x1,%eax
    8e93:	48 98                	cltq   
    8e95:	48 c1 e0 03          	shl    $0x3,%rax
    8e99:	48 89 c7             	mov    %rax,%rdi
    8e9c:	e8 00 00 00 00       	callq  8ea1 <alloc_and_load_for_fast_cost_update+0x8c>
    8ea1:	48 89 05 00 00 00 00 	mov    %rax,0x0(%rip)        # 8ea8 <alloc_and_load_for_fast_cost_update+0x93>
    8ea8:	c7 45 e4 00 00 00 00 	movl   $0x0,-0x1c(%rbp)
    8eaf:	eb 30                	jmp    8ee1 <alloc_and_load_for_fast_cost_update+0xcc>
    8eb1:	48 8b 05 00 00 00 00 	mov    0x0(%rip),%rax        # 8eb8 <alloc_and_load_for_fast_cost_update+0xa3>
    8eb8:	8b 55 e4             	mov    -0x1c(%rbp),%edx
    8ebb:	48 63 d2             	movslq %edx,%rdx
    8ebe:	48 c1 e2 03          	shl    $0x3,%rdx
    8ec2:	48 8d 1c 10          	lea    (%rax,%rdx,1),%rbx
    8ec6:	8b 45 e4             	mov    -0x1c(%rbp),%eax
    8ec9:	83 c0 01             	add    $0x1,%eax
    8ecc:	48 98                	cltq   
    8ece:	48 c1 e0 02          	shl    $0x2,%rax
    8ed2:	48 89 c7             	mov    %rax,%rdi
    8ed5:	e8 00 00 00 00       	callq  8eda <alloc_and_load_for_fast_cost_update+0xc5>
    8eda:	48 89 03             	mov    %rax,(%rbx)
    8edd:	83 45 e4 01          	addl   $0x1,-0x1c(%rbp)
    8ee1:	8b 05 00 00 00 00    	mov    0x0(%rip),%eax        # 8ee7 <alloc_and_load_for_fast_cost_update+0xd2>
    8ee7:	39 45 e4             	cmp    %eax,-0x1c(%rbp)
    8eea:	7e c5                	jle    8eb1 <alloc_and_load_for_fast_cost_update+0x9c>
    8eec:	48 8b 05 00 00 00 00 	mov    0x0(%rip),%rax        # 8ef3 <alloc_and_load_for_fast_cost_update+0xde>
    8ef3:	48 8b 00             	mov    (%rax),%rax
    8ef6:	48 8b 15 00 00 00 00 	mov    0x0(%rip),%rdx        # 8efd <alloc_and_load_for_fast_cost_update+0xe8>
    8efd:	8b 12                	mov    (%rdx),%edx
    8eff:	f3 0f 2a c2          	cvtsi2ss %edx,%xmm0
    8f03:	f3 0f 11 00          	movss  %xmm0,(%rax)
    8f07:	c7 45 e8 01 00 00 00 	movl   $0x1,-0x18(%rbp)
    8f0e:	e9 cd 00 00 00       	jmpq   8fe0 <alloc_and_load_for_fast_cost_update+0x1cb>
    8f13:	48 8b 05 00 00 00 00 	mov    0x0(%rip),%rax        # 8f1a <alloc_and_load_for_fast_cost_update+0x105>
    8f1a:	8b 55 e8             	mov    -0x18(%rbp),%edx
    8f1d:	48 63 d2             	movslq %edx,%rdx
    8f20:	48 c1 e2 03          	shl    $0x3,%rdx
    8f24:	48 01 d0             	add    %rdx,%rax
    8f27:	48 8b 00             	mov    (%rax),%rax
    8f2a:	8b 55 e8             	mov    -0x18(%rbp),%edx
    8f2d:	48 63 d2             	movslq %edx,%rdx
    8f30:	48 c1 e2 02          	shl    $0x2,%rdx
    8f34:	48 01 c2             	add    %rax,%rdx
    8f37:	48 8b 05 00 00 00 00 	mov    0x0(%rip),%rax        # 8f3e <alloc_and_load_for_fast_cost_update+0x129>
    8f3e:	8b 4d e8             	mov    -0x18(%rbp),%ecx
    8f41:	48 63 c9             	movslq %ecx,%rcx
    8f44:	48 c1 e1 02          	shl    $0x2,%rcx
    8f48:	48 01 c8             	add    %rcx,%rax
    8f4b:	8b 00                	mov    (%rax),%eax
    8f4d:	f3 0f 2a c0          	cvtsi2ss %eax,%xmm0
    8f51:	f3 0f 11 02          	movss  %xmm0,(%rdx)
    8f55:	c7 45 ec 00 00 00 00 	movl   $0x0,-0x14(%rbp)
    8f5c:	eb 76                	jmp    8fd4 <alloc_and_load_for_fast_cost_update+0x1bf>
    8f5e:	48 8b 05 00 00 00 00 	mov    0x0(%rip),%rax        # 8f65 <alloc_and_load_for_fast_cost_update+0x150>
    8f65:	8b 55 e8             	mov    -0x18(%rbp),%edx
    8f68:	48 63 d2             	movslq %edx,%rdx
    8f6b:	48 c1 e2 03          	shl    $0x3,%rdx
    8f6f:	48 01 d0             	add    %rdx,%rax
    8f72:	48 8b 00             	mov    (%rax),%rax
    8f75:	8b 55 ec             	mov    -0x14(%rbp),%edx
    8f78:	48 63 d2             	movslq %edx,%rdx
    8f7b:	48 c1 e2 02          	shl    $0x2,%rdx
    8f7f:	48 01 c2             	add    %rax,%rdx
    8f82:	48 8b 05 00 00 00 00 	mov    0x0(%rip),%rax        # 8f89 <alloc_and_load_for_fast_cost_update+0x174>
    8f89:	8b 4d e8             	mov    -0x18(%rbp),%ecx
    8f8c:	48 63 c9             	movslq %ecx,%rcx
    8f8f:	48 83 e9 01          	sub    $0x1,%rcx
    8f93:	48 c1 e1 03          	shl    $0x3,%rcx
    8f97:	48 01 c8             	add    %rcx,%rax
    8f9a:	48 8b 00             	mov    (%rax),%rax
    8f9d:	8b 4d ec             	mov    -0x14(%rbp),%ecx
    8fa0:	48 63 c9             	movslq %ecx,%rcx
    8fa3:	48 c1 e1 02          	shl    $0x2,%rcx
    8fa7:	48 01 c8             	add    %rcx,%rax
    8faa:	f3 0f 10 08          	movss  (%rax),%xmm1
    8fae:	48 8b 05 00 00 00 00 	mov    0x0(%rip),%rax        # 8fb5 <alloc_and_load_for_fast_cost_update+0x1a0>
    8fb5:	8b 4d e8             	mov    -0x18(%rbp),%ecx
    8fb8:	48 63 c9             	movslq %ecx,%rcx
    8fbb:	48 c1 e1 02          	shl    $0x2,%rcx
    8fbf:	48 01 c8             	add    %rcx,%rax
    8fc2:	8b 00                	mov    (%rax),%eax
    8fc4:	f3 0f 2a c0          	cvtsi2ss %eax,%xmm0
    8fc8:	f3 0f 58 c1          	addss  %xmm1,%xmm0
    8fcc:	f3 0f 11 02          	movss  %xmm0,(%rdx)
    8fd0:	83 45 ec 01          	addl   $0x1,-0x14(%rbp)
    8fd4:	8b 45 ec             	mov    -0x14(%rbp),%eax
    8fd7:	3b 45 e8             	cmp    -0x18(%rbp),%eax
    8fda:	7c 82                	jl     8f5e <alloc_and_load_for_fast_cost_update+0x149>
    8fdc:	83 45 e8 01          	addl   $0x1,-0x18(%rbp)
    8fe0:	8b 05 00 00 00 00    	mov    0x0(%rip),%eax        # 8fe6 <alloc_and_load_for_fast_cost_update+0x1d1>
    8fe6:	39 45 e8             	cmp    %eax,-0x18(%rbp)
    8fe9:	0f 8e 24 ff ff ff    	jle    8f13 <alloc_and_load_for_fast_cost_update+0xfe>
    8fef:	c7 45 e8 00 00 00 00 	movl   $0x0,-0x18(%rbp)
    8ff6:	e9 0a 01 00 00       	jmpq   9105 <alloc_and_load_for_fast_cost_update+0x2f0>
    8ffb:	c7 45 ec 00 00 00 00 	movl   $0x0,-0x14(%rbp)
    9002:	e9 ee 00 00 00       	jmpq   90f5 <alloc_and_load_for_fast_cost_update+0x2e0>
    9007:	48 8b 05 00 00 00 00 	mov    0x0(%rip),%rax        # 900e <alloc_and_load_for_fast_cost_update+0x1f9>
    900e:	8b 55 e8             	mov    -0x18(%rbp),%edx
    9011:	48 63 d2             	movslq %edx,%rdx
    9014:	48 c1 e2 03          	shl    $0x3,%rdx
    9018:	48 01 d0             	add    %rdx,%rax
    901b:	48 8b 00             	mov    (%rax),%rax
    901e:	8b 55 ec             	mov    -0x14(%rbp),%edx
    9021:	48 63 d2             	movslq %edx,%rdx
    9024:	48 c1 e2 02          	shl    $0x2,%rdx
    9028:	48 01 d0             	add    %rdx,%rax
    902b:	8b 55 ec             	mov    -0x14(%rbp),%edx
    902e:	8b 4d e8             	mov    -0x18(%rbp),%ecx
    9031:	89 cb                	mov    %ecx,%ebx
    9033:	29 d3                	sub    %edx,%ebx
    9035:	89 da                	mov    %ebx,%edx
    9037:	f2 0f 2a c2          	cvtsi2sd %edx,%xmm0
    903b:	f2 0f 10 0d 00 00 00 	movsd  0x0(%rip),%xmm1        # 9043 <alloc_and_load_for_fast_cost_update+0x22e>
    9042:	00 
    9043:	f2 0f 58 c1          	addsd  %xmm1,%xmm0
    9047:	48 8b 15 00 00 00 00 	mov    0x0(%rip),%rdx        # 904e <alloc_and_load_for_fast_cost_update+0x239>
    904e:	8b 4d e8             	mov    -0x18(%rbp),%ecx
    9051:	48 63 c9             	movslq %ecx,%rcx
    9054:	48 c1 e1 03          	shl    $0x3,%rcx
    9058:	48 01 ca             	add    %rcx,%rdx
    905b:	48 8b 12             	mov    (%rdx),%rdx
    905e:	8b 4d ec             	mov    -0x14(%rbp),%ecx
    9061:	48 63 c9             	movslq %ecx,%rcx
    9064:	48 c1 e1 02          	shl    $0x2,%rcx
    9068:	48 01 ca             	add    %rcx,%rdx
    906b:	f3 0f 10 0a          	movss  (%rdx),%xmm1
    906f:	0f 14 c9             	unpcklps %xmm1,%xmm1
    9072:	0f 5a c9             	cvtps2pd %xmm1,%xmm1
    9075:	f2 0f 5e c1          	divsd  %xmm1,%xmm0
    9079:	66 0f 14 c0          	unpcklpd %xmm0,%xmm0
    907d:	66 0f 5a c0          	cvtpd2ps %xmm0,%xmm0
    9081:	f3 0f 11 00          	movss  %xmm0,(%rax)
    9085:	48 8b 05 00 00 00 00 	mov    0x0(%rip),%rax        # 908c <alloc_and_load_for_fast_cost_update+0x277>
    908c:	8b 55 e8             	mov    -0x18(%rbp),%edx
    908f:	48 63 d2             	movslq %edx,%rdx
    9092:	48 c1 e2 03          	shl    $0x3,%rdx
    9096:	48 01 d0             	add    %rdx,%rax
    9099:	48 8b 00             	mov    (%rax),%rax
    909c:	8b 55 ec             	mov    -0x14(%rbp),%edx
    909f:	48 63 d2             	movslq %edx,%rdx
    90a2:	48 c1 e2 02          	shl    $0x2,%rdx
    90a6:	48 8d 1c 10          	lea    (%rax,%rdx,1),%rbx
    90aa:	f3 0f 10 4d dc       	movss  -0x24(%rbp),%xmm1
    90af:	0f 5a c9             	cvtps2pd %xmm1,%xmm1
    90b2:	48 8b 05 00 00 00 00 	mov    0x0(%rip),%rax        # 90b9 <alloc_and_load_for_fast_cost_update+0x2a4>
    90b9:	8b 55 e8             	mov    -0x18(%rbp),%edx
    90bc:	48 63 d2             	movslq %edx,%rdx
    90bf:	48 c1 e2 03          	shl    $0x3,%rdx
    90c3:	48 01 d0             	add    %rdx,%rax
    90c6:	48 8b 00             	mov    (%rax),%rax
    90c9:	8b 55 ec             	mov    -0x14(%rbp),%edx
    90cc:	48 63 d2             	movslq %edx,%rdx
    90cf:	48 c1 e2 02          	shl    $0x2,%rdx
    90d3:	48 01 d0             	add    %rdx,%rax
    90d6:	f3 0f 10 00          	movss  (%rax),%xmm0
    90da:	0f 14 c0             	unpcklps %xmm0,%xmm0
    90dd:	0f 5a c0             	cvtps2pd %xmm0,%xmm0
    90e0:	e8 00 00 00 00       	callq  90e5 <alloc_and_load_for_fast_cost_update+0x2d0>
    90e5:	66 0f 14 c0          	unpcklpd %xmm0,%xmm0
    90e9:	66 0f 5a c0          	cvtpd2ps %xmm0,%xmm0
    90ed:	f3 0f 11 03          	movss  %xmm0,(%rbx)
    90f1:	83 45 ec 01          	addl   $0x1,-0x14(%rbp)
    90f5:	8b 45 ec             	mov    -0x14(%rbp),%eax
    90f8:	3b 45 e8             	cmp    -0x18(%rbp),%eax
    90fb:	0f 8e 06 ff ff ff    	jle    9007 <alloc_and_load_for_fast_cost_update+0x1f2>
    9101:	83 45 e8 01          	addl   $0x1,-0x18(%rbp)
    9105:	8b 05 00 00 00 00    	mov    0x0(%rip),%eax        # 910b <alloc_and_load_for_fast_cost_update+0x2f6>
    910b:	39 45 e8             	cmp    %eax,-0x18(%rbp)
    910e:	0f 8e e7 fe ff ff    	jle    8ffb <alloc_and_load_for_fast_cost_update+0x1e6>
    9114:	48 8b 05 00 00 00 00 	mov    0x0(%rip),%rax        # 911b <alloc_and_load_for_fast_cost_update+0x306>
    911b:	48 8b 00             	mov    (%rax),%rax
    911e:	48 8b 15 00 00 00 00 	mov    0x0(%rip),%rdx        # 9125 <alloc_and_load_for_fast_cost_update+0x310>
    9125:	8b 12                	mov    (%rdx),%edx
    9127:	f3 0f 2a c2          	cvtsi2ss %edx,%xmm0
    912b:	f3 0f 11 00          	movss  %xmm0,(%rax)
    912f:	c7 45 e8 01 00 00 00 	movl   $0x1,-0x18(%rbp)
    9136:	e9 cd 00 00 00       	jmpq   9208 <alloc_and_load_for_fast_cost_update+0x3f3>
    913b:	48 8b 05 00 00 00 00 	mov    0x0(%rip),%rax        # 9142 <alloc_and_load_for_fast_cost_update+0x32d>
    9142:	8b 55 e8             	mov    -0x18(%rbp),%edx
    9145:	48 63 d2             	movslq %edx,%rdx
    9148:	48 c1 e2 03          	shl    $0x3,%rdx
    914c:	48 01 d0             	add    %rdx,%rax
    914f:	48 8b 00             	mov    (%rax),%rax
    9152:	8b 55 e8             	mov    -0x18(%rbp),%edx
    9155:	48 63 d2             	movslq %edx,%rdx
    9158:	48 c1 e2 02          	shl    $0x2,%rdx
    915c:	48 01 c2             	add    %rax,%rdx
    915f:	48 8b 05 00 00 00 00 	mov    0x0(%rip),%rax        # 9166 <alloc_and_load_for_fast_cost_update+0x351>
    9166:	8b 4d e8             	mov    -0x18(%rbp),%ecx
    9169:	48 63 c9             	movslq %ecx,%rcx
    916c:	48 c1 e1 02          	shl    $0x2,%rcx
    9170:	48 01 c8             	add    %rcx,%rax
    9173:	8b 00                	mov    (%rax),%eax
    9175:	f3 0f 2a c0          	cvtsi2ss %eax,%xmm0
    9179:	f3 0f 11 02          	movss  %xmm0,(%rdx)
    917d:	c7 45 ec 00 00 00 00 	movl   $0x0,-0x14(%rbp)
    9184:	eb 76                	jmp    91fc <alloc_and_load_for_fast_cost_update+0x3e7>
    9186:	48 8b 05 00 00 00 00 	mov    0x0(%rip),%rax        # 918d <alloc_and_load_for_fast_cost_update+0x378>
    918d:	8b 55 e8             	mov    -0x18(%rbp),%edx
    9190:	48 63 d2             	movslq %edx,%rdx
    9193:	48 c1 e2 03          	shl    $0x3,%rdx
    9197:	48 01 d0             	add    %rdx,%rax
    919a:	48 8b 00             	mov    (%rax),%rax
    919d:	8b 55 ec             	mov    -0x14(%rbp),%edx
    91a0:	48 63 d2             	movslq %edx,%rdx
    91a3:	48 c1 e2 02          	shl    $0x2,%rdx
    91a7:	48 01 c2             	add    %rax,%rdx
    91aa:	48 8b 05 00 00 00 00 	mov    0x0(%rip),%rax        # 91b1 <alloc_and_load_for_fast_cost_update+0x39c>
    91b1:	8b 4d e8             	mov    -0x18(%rbp),%ecx
    91b4:	48 63 c9             	movslq %ecx,%rcx
    91b7:	48 83 e9 01          	sub    $0x1,%rcx
    91bb:	48 c1 e1 03          	shl    $0x3,%rcx
    91bf:	48 01 c8             	add    %rcx,%rax
    91c2:	48 8b 00             	mov    (%rax),%rax
    91c5:	8b 4d ec             	mov    -0x14(%rbp),%ecx
    91c8:	48 63 c9             	movslq %ecx,%rcx
    91cb:	48 c1 e1 02          	shl    $0x2,%rcx
    91cf:	48 01 c8             	add    %rcx,%rax
    91d2:	f3 0f 10 08          	movss  (%rax),%xmm1
    91d6:	48 8b 05 00 00 00 00 	mov    0x0(%rip),%rax        # 91dd <alloc_and_load_for_fast_cost_update+0x3c8>
    91dd:	8b 4d e8             	mov    -0x18(%rbp),%ecx
    91e0:	48 63 c9             	movslq %ecx,%rcx
    91e3:	48 c1 e1 02          	shl    $0x2,%rcx
    91e7:	48 01 c8             	add    %rcx,%rax
    91ea:	8b 00                	mov    (%rax),%eax
    91ec:	f3 0f 2a c0          	cvtsi2ss %eax,%xmm0
    91f0:	f3 0f 58 c1          	addss  %xmm1,%xmm0
    91f4:	f3 0f 11 02          	movss  %xmm0,(%rdx)
    91f8:	83 45 ec 01          	addl   $0x1,-0x14(%rbp)
    91fc:	8b 45 ec             	mov    -0x14(%rbp),%eax
    91ff:	3b 45 e8             	cmp    -0x18(%rbp),%eax
    9202:	7c 82                	jl     9186 <alloc_and_load_for_fast_cost_update+0x371>
    9204:	83 45 e8 01          	addl   $0x1,-0x18(%rbp)
    9208:	8b 05 00 00 00 00    	mov    0x0(%rip),%eax        # 920e <alloc_and_load_for_fast_cost_update+0x3f9>
    920e:	39 45 e8             	cmp    %eax,-0x18(%rbp)
    9211:	0f 8e 24 ff ff ff    	jle    913b <alloc_and_load_for_fast_cost_update+0x326>
    9217:	c7 45 e8 00 00 00 00 	movl   $0x0,-0x18(%rbp)
    921e:	e9 0a 01 00 00       	jmpq   932d <alloc_and_load_for_fast_cost_update+0x518>
    9223:	c7 45 ec 00 00 00 00 	movl   $0x0,-0x14(%rbp)
    922a:	e9 ee 00 00 00       	jmpq   931d <alloc_and_load_for_fast_cost_update+0x508>
    922f:	48 8b 05 00 00 00 00 	mov    0x0(%rip),%rax        # 9236 <alloc_and_load_for_fast_cost_update+0x421>
    9236:	8b 55 e8             	mov    -0x18(%rbp),%edx
    9239:	48 63 d2             	movslq %edx,%rdx
    923c:	48 c1 e2 03          	shl    $0x3,%rdx
    9240:	48 01 d0             	add    %rdx,%rax
    9243:	48 8b 00             	mov    (%rax),%rax
    9246:	8b 55 ec             	mov    -0x14(%rbp),%edx
    9249:	48 63 d2             	movslq %edx,%rdx
    924c:	48 c1 e2 02          	shl    $0x2,%rdx
    9250:	48 01 d0             	add    %rdx,%rax
    9253:	8b 55 ec             	mov    -0x14(%rbp),%edx
    9256:	8b 4d e8             	mov    -0x18(%rbp),%ecx
    9259:	89 cb                	mov    %ecx,%ebx
    925b:	29 d3                	sub    %edx,%ebx
    925d:	89 da                	mov    %ebx,%edx
    925f:	f2 0f 2a c2          	cvtsi2sd %edx,%xmm0
    9263:	f2 0f 10 0d 00 00 00 	movsd  0x0(%rip),%xmm1        # 926b <alloc_and_load_for_fast_cost_update+0x456>
    926a:	00 
    926b:	f2 0f 58 c1          	addsd  %xmm1,%xmm0
    926f:	48 8b 15 00 00 00 00 	mov    0x0(%rip),%rdx        # 9276 <alloc_and_load_for_fast_cost_update+0x461>
    9276:	8b 4d e8             	mov    -0x18(%rbp),%ecx
    9279:	48 63 c9             	movslq %ecx,%rcx
    927c:	48 c1 e1 03          	shl    $0x3,%rcx
    9280:	48 01 ca             	add    %rcx,%rdx
    9283:	48 8b 12             	mov    (%rdx),%rdx
    9286:	8b 4d ec             	mov    -0x14(%rbp),%ecx
    9289:	48 63 c9             	movslq %ecx,%rcx
    928c:	48 c1 e1 02          	shl    $0x2,%rcx
    9290:	48 01 ca             	add    %rcx,%rdx
    9293:	f3 0f 10 0a          	movss  (%rdx),%xmm1
    9297:	0f 14 c9             	unpcklps %xmm1,%xmm1
    929a:	0f 5a c9             	cvtps2pd %xmm1,%xmm1
    929d:	f2 0f 5e c1          	divsd  %xmm1,%xmm0
    92a1:	66 0f 14 c0          	unpcklpd %xmm0,%xmm0
    92a5:	66 0f 5a c0          	cvtpd2ps %xmm0,%xmm0
    92a9:	f3 0f 11 00          	movss  %xmm0,(%rax)
    92ad:	48 8b 05 00 00 00 00 	mov    0x0(%rip),%rax        # 92b4 <alloc_and_load_for_fast_cost_update+0x49f>
    92b4:	8b 55 e8             	mov    -0x18(%rbp),%edx
    92b7:	48 63 d2             	movslq %edx,%rdx
    92ba:	48 c1 e2 03          	shl    $0x3,%rdx
    92be:	48 01 d0             	add    %rdx,%rax
    92c1:	48 8b 00             	mov    (%rax),%rax
    92c4:	8b 55 ec             	mov    -0x14(%rbp),%edx
    92c7:	48 63 d2             	movslq %edx,%rdx
    92ca:	48 c1 e2 02          	shl    $0x2,%rdx
    92ce:	48 8d 1c 10          	lea    (%rax,%rdx,1),%rbx
    92d2:	f3 0f 10 4d dc       	movss  -0x24(%rbp),%xmm1
    92d7:	0f 5a c9             	cvtps2pd %xmm1,%xmm1
    92da:	48 8b 05 00 00 00 00 	mov    0x0(%rip),%rax        # 92e1 <alloc_and_load_for_fast_cost_update+0x4cc>
    92e1:	8b 55 e8             	mov    -0x18(%rbp),%edx
    92e4:	48 63 d2             	movslq %edx,%rdx
    92e7:	48 c1 e2 03          	shl    $0x3,%rdx
    92eb:	48 01 d0             	add    %rdx,%rax
    92ee:	48 8b 00             	mov    (%rax),%rax
    92f1:	8b 55 ec             	mov    -0x14(%rbp),%edx
    92f4:	48 63 d2             	movslq %edx,%rdx
    92f7:	48 c1 e2 02          	shl    $0x2,%rdx
    92fb:	48 01 d0             	add    %rdx,%rax
    92fe:	f3 0f 10 00          	movss  (%rax),%xmm0
    9302:	0f 14 c0             	unpcklps %xmm0,%xmm0
    9305:	0f 5a c0             	cvtps2pd %xmm0,%xmm0
    9308:	e8 00 00 00 00       	callq  930d <alloc_and_load_for_fast_cost_update+0x4f8>
    930d:	66 0f 14 c0          	unpcklpd %xmm0,%xmm0
    9311:	66 0f 5a c0          	cvtpd2ps %xmm0,%xmm0
    9315:	f3 0f 11 03          	movss  %xmm0,(%rbx)
    9319:	83 45 ec 01          	addl   $0x1,-0x14(%rbp)
    931d:	8b 45 ec             	mov    -0x14(%rbp),%eax
    9320:	3b 45 e8             	cmp    -0x18(%rbp),%eax
    9323:	0f 8e 06 ff ff ff    	jle    922f <alloc_and_load_for_fast_cost_update+0x41a>
    9329:	83 45 e8 01          	addl   $0x1,-0x18(%rbp)
    932d:	8b 05 00 00 00 00    	mov    0x0(%rip),%eax        # 9333 <alloc_and_load_for_fast_cost_update+0x51e>
    9333:	39 45 e8             	cmp    %eax,-0x18(%rbp)
    9336:	0f 8e e7 fe ff ff    	jle    9223 <alloc_and_load_for_fast_cost_update+0x40e>
    933c:	48 83 c4 28          	add    $0x28,%rsp
    9340:	5b                   	pop    %rbx
    9341:	5d                   	pop    %rbp
    9342:	c3                   	retq   

0000000000009343 <check_place>:
    9343:	55                   	push   %rbp
    9344:	48 89 e5             	mov    %rsp,%rbp
    9347:	48 83 ec 50          	sub    $0x50,%rsp
    934b:	e8 00 00 00 00       	callq  9350 <check_place+0xd>
    9350:	f3 0f 11 45 cc       	movss  %xmm0,-0x34(%rbp)
    9355:	f3 0f 11 4d c8       	movss  %xmm1,-0x38(%rbp)
    935a:	89 7d c4             	mov    %edi,-0x3c(%rbp)
    935d:	89 75 c0             	mov    %esi,-0x40(%rbp)
    9360:	89 55 bc             	mov    %edx,-0x44(%rbp)
    9363:	f3 0f 11 55 b8       	movss  %xmm2,-0x48(%rbp)
    9368:	c7 45 f0 00 00 00 00 	movl   $0x0,-0x10(%rbp)
    936f:	8b 55 c0             	mov    -0x40(%rbp),%edx
    9372:	8b 45 c4             	mov    -0x3c(%rbp),%eax
    9375:	89 c6                	mov    %eax,%esi
    9377:	bf 01 00 00 00       	mov    $0x1,%edi
    937c:	e8 50 c1 ff ff       	callq  54d1 <comp_bb_cost>
    9381:	f3 0f 11 45 b4       	movss  %xmm0,-0x4c(%rbp)
    9386:	8b 45 b4             	mov    -0x4c(%rbp),%eax
    9389:	89 45 e8             	mov    %eax,-0x18(%rbp)
    938c:	f3 0f 10 45 e8       	movss  -0x18(%rbp),%xmm0
    9391:	0f 5a c0             	cvtps2pd %xmm0,%xmm0
    9394:	bf 00 00 00 00       	mov    $0x0,%edi
    9399:	b8 01 00 00 00       	mov    $0x1,%eax
    939e:	e8 00 00 00 00       	callq  93a3 <check_place+0x60>
    93a3:	f3 0f 10 45 e8       	movss  -0x18(%rbp),%xmm0
    93a8:	f3 0f 5c 45 cc       	subss  -0x34(%rbp),%xmm0
    93ad:	f3 0f 10 0d 00 00 00 	movss  0x0(%rip),%xmm1        # 93b5 <check_place+0x72>
    93b4:	00 
    93b5:	0f 54 c1             	andps  %xmm1,%xmm0
    93b8:	0f 14 c0             	unpcklps %xmm0,%xmm0
    93bb:	0f 5a c0             	cvtps2pd %xmm0,%xmm0
    93be:	f3 0f 10 4d cc       	movss  -0x34(%rbp),%xmm1
    93c3:	0f 5a c9             	cvtps2pd %xmm1,%xmm1
    93c6:	f2 0f 10 15 00 00 00 	movsd  0x0(%rip),%xmm2        # 93ce <check_place+0x8b>
    93cd:	00 
    93ce:	f2 0f 59 ca          	mulsd  %xmm2,%xmm1
    93d2:	66 0f 2e c1          	ucomisd %xmm1,%xmm0
    93d6:	76 23                	jbe    93fb <check_place+0xb8>
    93d8:	f3 0f 10 4d cc       	movss  -0x34(%rbp),%xmm1
    93dd:	0f 5a c9             	cvtps2pd %xmm1,%xmm1
    93e0:	f3 0f 10 45 e8       	movss  -0x18(%rbp),%xmm0
    93e5:	0f 5a c0             	cvtps2pd %xmm0,%xmm0
    93e8:	bf 00 00 00 00       	mov    $0x0,%edi
    93ed:	b8 02 00 00 00       	mov    $0x2,%eax
    93f2:	e8 00 00 00 00       	callq  93f7 <check_place+0xb4>
    93f7:	83 45 f0 01          	addl   $0x1,-0x10(%rbp)
    93fb:	83 7d bc 01          	cmpl   $0x1,-0x44(%rbp)
    93ff:	74 0a                	je     940b <check_place+0xc8>
    9401:	83 7d bc 02          	cmpl   $0x2,-0x44(%rbp)
    9405:	0f 85 fd 00 00 00    	jne    9508 <check_place+0x1c5>
    940b:	48 8d 55 dc          	lea    -0x24(%rbp),%rdx
    940f:	48 8d 45 e0          	lea    -0x20(%rbp),%rax
    9413:	48 89 d6             	mov    %rdx,%rsi
    9416:	48 89 c7             	mov    %rax,%rdi
    9419:	e8 e2 be ff ff       	callq  5300 <comp_td_costs>
    941e:	f3 0f 10 45 e0       	movss  -0x20(%rbp),%xmm0
    9423:	0f 14 c0             	unpcklps %xmm0,%xmm0
    9426:	0f 5a c0             	cvtps2pd %xmm0,%xmm0
    9429:	bf 00 00 00 00       	mov    $0x0,%edi
    942e:	b8 01 00 00 00       	mov    $0x1,%eax
    9433:	e8 00 00 00 00       	callq  9438 <check_place+0xf5>
    9438:	f3 0f 10 45 e0       	movss  -0x20(%rbp),%xmm0
    943d:	f3 0f 5c 45 c8       	subss  -0x38(%rbp),%xmm0
    9442:	f3 0f 10 0d 00 00 00 	movss  0x0(%rip),%xmm1        # 944a <check_place+0x107>
    9449:	00 
    944a:	0f 54 c1             	andps  %xmm1,%xmm0
    944d:	0f 14 c0             	unpcklps %xmm0,%xmm0
    9450:	0f 5a c0             	cvtps2pd %xmm0,%xmm0
    9453:	f3 0f 10 4d c8       	movss  -0x38(%rbp),%xmm1
    9458:	0f 5a c9             	cvtps2pd %xmm1,%xmm1
    945b:	f2 0f 10 15 00 00 00 	movsd  0x0(%rip),%xmm2        # 9463 <check_place+0x120>
    9462:	00 
    9463:	f2 0f 59 ca          	mulsd  %xmm2,%xmm1
    9467:	66 0f 2e c1          	ucomisd %xmm1,%xmm0
    946b:	76 26                	jbe    9493 <check_place+0x150>
    946d:	f3 0f 10 4d c8       	movss  -0x38(%rbp),%xmm1
    9472:	0f 5a c9             	cvtps2pd %xmm1,%xmm1
    9475:	f3 0f 10 45 e0       	movss  -0x20(%rbp),%xmm0
    947a:	0f 14 c0             	unpcklps %xmm0,%xmm0
    947d:	0f 5a c0             	cvtps2pd %xmm0,%xmm0
    9480:	bf 00 00 00 00       	mov    $0x0,%edi
    9485:	b8 02 00 00 00       	mov    $0x2,%eax
    948a:	e8 00 00 00 00       	callq  948f <check_place+0x14c>
    948f:	83 45 f0 01          	addl   $0x1,-0x10(%rbp)
    9493:	f3 0f 10 45 dc       	movss  -0x24(%rbp),%xmm0
    9498:	0f 14 c0             	unpcklps %xmm0,%xmm0
    949b:	0f 5a c0             	cvtps2pd %xmm0,%xmm0
    949e:	bf 00 00 00 00       	mov    $0x0,%edi
    94a3:	b8 01 00 00 00       	mov    $0x1,%eax
    94a8:	e8 00 00 00 00       	callq  94ad <check_place+0x16a>
    94ad:	f3 0f 10 45 dc       	movss  -0x24(%rbp),%xmm0
    94b2:	f3 0f 5c 45 b8       	subss  -0x48(%rbp),%xmm0
    94b7:	f3 0f 10 0d 00 00 00 	movss  0x0(%rip),%xmm1        # 94bf <check_place+0x17c>
    94be:	00 
    94bf:	0f 54 c1             	andps  %xmm1,%xmm0
    94c2:	0f 14 c0             	unpcklps %xmm0,%xmm0
    94c5:	0f 5a c0             	cvtps2pd %xmm0,%xmm0
    94c8:	f3 0f 10 4d b8       	movss  -0x48(%rbp),%xmm1
    94cd:	0f 5a c9             	cvtps2pd %xmm1,%xmm1
    94d0:	f2 0f 10 15 00 00 00 	movsd  0x0(%rip),%xmm2        # 94d8 <check_place+0x195>
    94d7:	00 
    94d8:	f2 0f 59 ca          	mulsd  %xmm2,%xmm1
    94dc:	66 0f 2e c1          	ucomisd %xmm1,%xmm0
    94e0:	76 26                	jbe    9508 <check_place+0x1c5>
    94e2:	f3 0f 10 4d b8       	movss  -0x48(%rbp),%xmm1
    94e7:	0f 5a c9             	cvtps2pd %xmm1,%xmm1
    94ea:	f3 0f 10 45 dc       	movss  -0x24(%rbp),%xmm0
    94ef:	0f 14 c0             	unpcklps %xmm0,%xmm0
    94f2:	0f 5a c0             	cvtps2pd %xmm0,%xmm0
    94f5:	bf 00 00 00 00       	mov    $0x0,%edi
    94fa:	b8 02 00 00 00       	mov    $0x2,%eax
    94ff:	e8 00 00 00 00       	callq  9504 <check_place+0x1c1>
    9504:	83 45 f0 01          	addl   $0x1,-0x10(%rbp)
    9508:	8b 05 00 00 00 00    	mov    0x0(%rip),%eax        # 950e <check_place+0x1cb>
    950e:	48 98                	cltq   
    9510:	48 c1 e0 02          	shl    $0x2,%rax
    9514:	48 89 c7             	mov    %rax,%rdi
    9517:	e8 00 00 00 00       	callq  951c <check_place+0x1d9>
    951c:	48 89 05 00 00 00 00 	mov    %rax,0x0(%rip)        # 9523 <check_place+0x1e0>
    9523:	c7 45 fc 00 00 00 00 	movl   $0x0,-0x4(%rbp)
    952a:	eb 1e                	jmp    954a <check_place+0x207>
    952c:	48 8b 05 00 00 00 00 	mov    0x0(%rip),%rax        # 9533 <check_place+0x1f0>
    9533:	8b 55 fc             	mov    -0x4(%rbp),%edx
    9536:	48 63 d2             	movslq %edx,%rdx
    9539:	48 c1 e2 02          	shl    $0x2,%rdx
    953d:	48 01 d0             	add    %rdx,%rax
    9540:	c7 00 00 00 00 00    	movl   $0x0,(%rax)
    9546:	83 45 fc 01          	addl   $0x1,-0x4(%rbp)
    954a:	8b 05 00 00 00 00    	mov    0x0(%rip),%eax        # 9550 <check_place+0x20d>
    9550:	39 45 fc             	cmp    %eax,-0x4(%rbp)
    9553:	7c d7                	jl     952c <check_place+0x1e9>
    9555:	c7 45 fc 00 00 00 00 	movl   $0x0,-0x4(%rbp)
    955c:	e9 fb 02 00 00       	jmpq   985c <check_place+0x519>
    9561:	c7 45 f8 00 00 00 00 	movl   $0x0,-0x8(%rbp)
    9568:	e9 d9 02 00 00       	jmpq   9846 <check_place+0x503>
    956d:	48 8b 05 00 00 00 00 	mov    0x0(%rip),%rax        # 9574 <check_place+0x231>
    9574:	8b 55 fc             	mov    -0x4(%rbp),%edx
    9577:	48 63 d2             	movslq %edx,%rdx
    957a:	48 c1 e2 03          	shl    $0x3,%rdx
    957e:	48 01 d0             	add    %rdx,%rax
    9581:	48 8b 08             	mov    (%rax),%rcx
    9584:	8b 45 f8             	mov    -0x8(%rbp),%eax
    9587:	48 63 d0             	movslq %eax,%rdx
    958a:	48 89 d0             	mov    %rdx,%rax
    958d:	48 01 c0             	add    %rax,%rax
    9590:	48 01 d0             	add    %rdx,%rax
    9593:	48 c1 e0 03          	shl    $0x3,%rax
    9597:	48 01 c8             	add    %rcx,%rax
    959a:	8b 48 0c             	mov    0xc(%rax),%ecx
    959d:	48 8b 05 00 00 00 00 	mov    0x0(%rip),%rax        # 95a4 <check_place+0x261>
    95a4:	8b 55 fc             	mov    -0x4(%rbp),%edx
    95a7:	48 63 d2             	movslq %edx,%rdx
    95aa:	48 c1 e2 03          	shl    $0x3,%rdx
    95ae:	48 01 d0             	add    %rdx,%rax
    95b1:	48 8b 30             	mov    (%rax),%rsi
    95b4:	8b 45 f8             	mov    -0x8(%rbp),%eax
    95b7:	48 63 d0             	movslq %eax,%rdx
    95ba:	48 89 d0             	mov    %rdx,%rax
    95bd:	48 01 c0             	add    %rax,%rax
    95c0:	48 01 d0             	add    %rdx,%rax
    95c3:	48 c1 e0 03          	shl    $0x3,%rax
    95c7:	48 01 f0             	add    %rsi,%rax
    95ca:	48 8b 00             	mov    (%rax),%rax
    95cd:	8b 40 0c             	mov    0xc(%rax),%eax
    95d0:	39 c1                	cmp    %eax,%ecx
    95d2:	7e 4b                	jle    961f <check_place+0x2dc>
    95d4:	48 8b 05 00 00 00 00 	mov    0x0(%rip),%rax        # 95db <check_place+0x298>
    95db:	8b 55 fc             	mov    -0x4(%rbp),%edx
    95de:	48 63 d2             	movslq %edx,%rdx
    95e1:	48 c1 e2 03          	shl    $0x3,%rdx
    95e5:	48 01 d0             	add    %rdx,%rax
    95e8:	48 8b 08             	mov    (%rax),%rcx
    95eb:	8b 45 f8             	mov    -0x8(%rbp),%eax
    95ee:	48 63 d0             	movslq %eax,%rdx
    95f1:	48 89 d0             	mov    %rdx,%rax
    95f4:	48 01 c0             	add    %rax,%rax
    95f7:	48 01 d0             	add    %rdx,%rax
    95fa:	48 c1 e0 03          	shl    $0x3,%rax
    95fe:	48 01 c8             	add    %rcx,%rax
    9601:	8b 48 0c             	mov    0xc(%rax),%ecx
    9604:	8b 55 f8             	mov    -0x8(%rbp),%edx
    9607:	8b 45 fc             	mov    -0x4(%rbp),%eax
    960a:	89 c6                	mov    %eax,%esi
    960c:	bf 00 00 00 00       	mov    $0x0,%edi
    9611:	b8 00 00 00 00       	mov    $0x0,%eax
    9616:	e8 00 00 00 00       	callq  961b <check_place+0x2d8>
    961b:	83 45 f0 01          	addl   $0x1,-0x10(%rbp)
    961f:	c7 45 ec 00 00 00 00 	movl   $0x0,-0x14(%rbp)
    9626:	c7 45 f4 00 00 00 00 	movl   $0x0,-0xc(%rbp)
    962d:	e9 52 01 00 00       	jmpq   9784 <check_place+0x441>
    9632:	48 8b 05 00 00 00 00 	mov    0x0(%rip),%rax        # 9639 <check_place+0x2f6>
    9639:	8b 55 fc             	mov    -0x4(%rbp),%edx
    963c:	48 63 d2             	movslq %edx,%rdx
    963f:	48 c1 e2 03          	shl    $0x3,%rdx
    9643:	48 01 d0             	add    %rdx,%rax
    9646:	48 8b 08             	mov    (%rax),%rcx
    9649:	8b 45 f8             	mov    -0x8(%rbp),%eax
    964c:	48 63 d0             	movslq %eax,%rdx
    964f:	48 89 d0             	mov    %rdx,%rax
    9652:	48 01 c0             	add    %rax,%rax
    9655:	48 01 d0             	add    %rdx,%rax
    9658:	48 c1 e0 03          	shl    $0x3,%rax
    965c:	48 01 c8             	add    %rcx,%rax
    965f:	48 8b 40 10          	mov    0x10(%rax),%rax
    9663:	8b 55 f4             	mov    -0xc(%rbp),%edx
    9666:	48 63 d2             	movslq %edx,%rdx
    9669:	48 c1 e2 02          	shl    $0x2,%rdx
    966d:	48 01 d0             	add    %rdx,%rax
    9670:	8b 00                	mov    (%rax),%eax
    9672:	89 45 e4             	mov    %eax,-0x1c(%rbp)
    9675:	83 7d e4 ff          	cmpl   $0xffffffff,-0x1c(%rbp)
    9679:	0f 84 00 01 00 00    	je     977f <check_place+0x43c>
    967f:	48 8b 0d 00 00 00 00 	mov    0x0(%rip),%rcx        # 9686 <check_place+0x343>
    9686:	8b 45 e4             	mov    -0x1c(%rbp),%eax
    9689:	48 63 d0             	movslq %eax,%rdx
    968c:	48 89 d0             	mov    %rdx,%rax
    968f:	48 c1 e0 02          	shl    $0x2,%rax
    9693:	48 01 d0             	add    %rdx,%rax
    9696:	48 c1 e0 03          	shl    $0x3,%rax
    969a:	48 01 c8             	add    %rcx,%rax
    969d:	48 8b 48 08          	mov    0x8(%rax),%rcx
    96a1:	48 8b 05 00 00 00 00 	mov    0x0(%rip),%rax        # 96a8 <check_place+0x365>
    96a8:	8b 55 fc             	mov    -0x4(%rbp),%edx
    96ab:	48 63 d2             	movslq %edx,%rdx
    96ae:	48 c1 e2 03          	shl    $0x3,%rdx
    96b2:	48 01 d0             	add    %rdx,%rax
    96b5:	48 8b 30             	mov    (%rax),%rsi
    96b8:	8b 45 f8             	mov    -0x8(%rbp),%eax
    96bb:	48 63 d0             	movslq %eax,%rdx
    96be:	48 89 d0             	mov    %rdx,%rax
    96c1:	48 01 c0             	add    %rax,%rax
    96c4:	48 01 d0             	add    %rdx,%rax
    96c7:	48 c1 e0 03          	shl    $0x3,%rax
    96cb:	48 01 f0             	add    %rsi,%rax
    96ce:	48 8b 00             	mov    (%rax),%rax
    96d1:	48 39 c1             	cmp    %rax,%rcx
    96d4:	74 1e                	je     96f4 <check_place+0x3b1>
    96d6:	8b 4d f8             	mov    -0x8(%rbp),%ecx
    96d9:	8b 55 fc             	mov    -0x4(%rbp),%edx
    96dc:	8b 45 e4             	mov    -0x1c(%rbp),%eax
    96df:	89 c6                	mov    %eax,%esi
    96e1:	bf 00 00 00 00       	mov    $0x0,%edi
    96e6:	b8 00 00 00 00       	mov    $0x0,%eax
    96eb:	e8 00 00 00 00       	callq  96f0 <check_place+0x3ad>
    96f0:	83 45 f0 01          	addl   $0x1,-0x10(%rbp)
    96f4:	48 8b 0d 00 00 00 00 	mov    0x0(%rip),%rcx        # 96fb <check_place+0x3b8>
    96fb:	8b 45 e4             	mov    -0x1c(%rbp),%eax
    96fe:	48 63 d0             	movslq %eax,%rdx
    9701:	48 89 d0             	mov    %rdx,%rax
    9704:	48 c1 e0 02          	shl    $0x2,%rax
    9708:	48 01 d0             	add    %rdx,%rax
    970b:	48 c1 e0 03          	shl    $0x3,%rax
    970f:	48 01 c8             	add    %rcx,%rax
    9712:	8b 40 18             	mov    0x18(%rax),%eax
    9715:	3b 45 fc             	cmp    -0x4(%rbp),%eax
    9718:	75 26                	jne    9740 <check_place+0x3fd>
    971a:	48 8b 0d 00 00 00 00 	mov    0x0(%rip),%rcx        # 9721 <check_place+0x3de>
    9721:	8b 45 e4             	mov    -0x1c(%rbp),%eax
    9724:	48 63 d0             	movslq %eax,%rdx
    9727:	48 89 d0             	mov    %rdx,%rax
    972a:	48 c1 e0 02          	shl    $0x2,%rax
    972e:	48 01 d0             	add    %rdx,%rax
    9731:	48 c1 e0 03          	shl    $0x3,%rax
    9735:	48 01 c8             	add    %rcx,%rax
    9738:	8b 40 1c             	mov    0x1c(%rax),%eax
    973b:	3b 45 f8             	cmp    -0x8(%rbp),%eax
    973e:	74 1e                	je     975e <check_place+0x41b>
    9740:	8b 4d f8             	mov    -0x8(%rbp),%ecx
    9743:	8b 55 fc             	mov    -0x4(%rbp),%edx
    9746:	8b 45 e4             	mov    -0x1c(%rbp),%eax
    9749:	89 c6                	mov    %eax,%esi
    974b:	bf 00 00 00 00       	mov    $0x0,%edi
    9750:	b8 00 00 00 00       	mov    $0x0,%eax
    9755:	e8 00 00 00 00       	callq  975a <check_place+0x417>
    975a:	83 45 f0 01          	addl   $0x1,-0x10(%rbp)
    975e:	83 45 ec 01          	addl   $0x1,-0x14(%rbp)
    9762:	48 8b 05 00 00 00 00 	mov    0x0(%rip),%rax        # 9769 <check_place+0x426>
    9769:	8b 55 e4             	mov    -0x1c(%rbp),%edx
    976c:	48 63 d2             	movslq %edx,%rdx
    976f:	48 c1 e2 02          	shl    $0x2,%rdx
    9773:	48 01 d0             	add    %rdx,%rax
    9776:	8b 10                	mov    (%rax),%edx
    9778:	83 c2 01             	add    $0x1,%edx
    977b:	89 10                	mov    %edx,(%rax)
    977d:	eb 01                	jmp    9780 <check_place+0x43d>
    977f:	90                   	nop
    9780:	83 45 f4 01          	addl   $0x1,-0xc(%rbp)
    9784:	48 8b 05 00 00 00 00 	mov    0x0(%rip),%rax        # 978b <check_place+0x448>
    978b:	8b 55 fc             	mov    -0x4(%rbp),%edx
    978e:	48 63 d2             	movslq %edx,%rdx
    9791:	48 c1 e2 03          	shl    $0x3,%rdx
    9795:	48 01 d0             	add    %rdx,%rax
    9798:	48 8b 08             	mov    (%rax),%rcx
    979b:	8b 45 f8             	mov    -0x8(%rbp),%eax
    979e:	48 63 d0             	movslq %eax,%rdx
    97a1:	48 89 d0             	mov    %rdx,%rax
    97a4:	48 01 c0             	add    %rax,%rax
    97a7:	48 01 d0             	add    %rdx,%rax
    97aa:	48 c1 e0 03          	shl    $0x3,%rax
    97ae:	48 01 c8             	add    %rcx,%rax
    97b1:	48 8b 00             	mov    (%rax),%rax
    97b4:	8b 40 0c             	mov    0xc(%rax),%eax
    97b7:	3b 45 f4             	cmp    -0xc(%rbp),%eax
    97ba:	0f 8f 72 fe ff ff    	jg     9632 <check_place+0x2ef>
    97c0:	48 8b 05 00 00 00 00 	mov    0x0(%rip),%rax        # 97c7 <check_place+0x484>
    97c7:	8b 55 fc             	mov    -0x4(%rbp),%edx
    97ca:	48 63 d2             	movslq %edx,%rdx
    97cd:	48 c1 e2 03          	shl    $0x3,%rdx
    97d1:	48 01 d0             	add    %rdx,%rax
    97d4:	48 8b 08             	mov    (%rax),%rcx
    97d7:	8b 45 f8             	mov    -0x8(%rbp),%eax
    97da:	48 63 d0             	movslq %eax,%rdx
    97dd:	48 89 d0             	mov    %rdx,%rax
    97e0:	48 01 c0             	add    %rax,%rax
    97e3:	48 01 d0             	add    %rdx,%rax
    97e6:	48 c1 e0 03          	shl    $0x3,%rax
    97ea:	48 01 c8             	add    %rcx,%rax
    97ed:	8b 40 0c             	mov    0xc(%rax),%eax
    97f0:	3b 45 ec             	cmp    -0x14(%rbp),%eax
    97f3:	74 4d                	je     9842 <check_place+0x4ff>
    97f5:	48 8b 05 00 00 00 00 	mov    0x0(%rip),%rax        # 97fc <check_place+0x4b9>
    97fc:	8b 55 fc             	mov    -0x4(%rbp),%edx
    97ff:	48 63 d2             	movslq %edx,%rdx
    9802:	48 c1 e2 03          	shl    $0x3,%rdx
    9806:	48 01 d0             	add    %rdx,%rax
    9809:	48 8b 08             	mov    (%rax),%rcx
    980c:	8b 45 f8             	mov    -0x8(%rbp),%eax
    980f:	48 63 d0             	movslq %eax,%rdx
    9812:	48 89 d0             	mov    %rdx,%rax
    9815:	48 01 c0             	add    %rax,%rax
    9818:	48 01 d0             	add    %rdx,%rax
    981b:	48 c1 e0 03          	shl    $0x3,%rax
    981f:	48 01 c8             	add    %rcx,%rax
    9822:	8b 48 0c             	mov    0xc(%rax),%ecx
    9825:	8b 75 ec             	mov    -0x14(%rbp),%esi
    9828:	8b 55 f8             	mov    -0x8(%rbp),%edx
    982b:	8b 45 fc             	mov    -0x4(%rbp),%eax
    982e:	41 89 f0             	mov    %esi,%r8d
    9831:	89 c6                	mov    %eax,%esi
    9833:	bf 00 00 00 00       	mov    $0x0,%edi
    9838:	b8 00 00 00 00       	mov    $0x0,%eax
    983d:	e8 00 00 00 00       	callq  9842 <check_place+0x4ff>
    9842:	83 45 f8 01          	addl   $0x1,-0x8(%rbp)
    9846:	8b 05 00 00 00 00    	mov    0x0(%rip),%eax        # 984c <check_place+0x509>
    984c:	83 c0 01             	add    $0x1,%eax
    984f:	3b 45 f8             	cmp    -0x8(%rbp),%eax
    9852:	0f 8d 15 fd ff ff    	jge    956d <check_place+0x22a>
    9858:	83 45 fc 01          	addl   $0x1,-0x4(%rbp)
    985c:	8b 05 00 00 00 00    	mov    0x0(%rip),%eax        # 9862 <check_place+0x51f>
    9862:	83 c0 01             	add    $0x1,%eax
    9865:	3b 45 fc             	cmp    -0x4(%rbp),%eax
    9868:	0f 8d f3 fc ff ff    	jge    9561 <check_place+0x21e>
    986e:	c7 45 fc 00 00 00 00 	movl   $0x0,-0x4(%rbp)
    9875:	eb 4d                	jmp    98c4 <check_place+0x581>
    9877:	48 8b 05 00 00 00 00 	mov    0x0(%rip),%rax        # 987e <check_place+0x53b>
    987e:	8b 55 fc             	mov    -0x4(%rbp),%edx
    9881:	48 63 d2             	movslq %edx,%rdx
    9884:	48 c1 e2 02          	shl    $0x2,%rdx
    9888:	48 01 d0             	add    %rdx,%rax
    988b:	8b 00                	mov    (%rax),%eax
    988d:	83 f8 01             	cmp    $0x1,%eax
    9890:	74 2e                	je     98c0 <check_place+0x57d>
    9892:	48 8b 05 00 00 00 00 	mov    0x0(%rip),%rax        # 9899 <check_place+0x556>
    9899:	8b 55 fc             	mov    -0x4(%rbp),%edx
    989c:	48 63 d2             	movslq %edx,%rdx
    989f:	48 c1 e2 02          	shl    $0x2,%rdx
    98a3:	48 01 d0             	add    %rdx,%rax
    98a6:	8b 10                	mov    (%rax),%edx
    98a8:	8b 45 fc             	mov    -0x4(%rbp),%eax
    98ab:	89 c6                	mov    %eax,%esi
    98ad:	bf 00 00 00 00       	mov    $0x0,%edi
    98b2:	b8 00 00 00 00       	mov    $0x0,%eax
    98b7:	e8 00 00 00 00       	callq  98bc <check_place+0x579>
    98bc:	83 45 f0 01          	addl   $0x1,-0x10(%rbp)
    98c0:	83 45 fc 01          	addl   $0x1,-0x4(%rbp)
    98c4:	8b 05 00 00 00 00    	mov    0x0(%rip),%eax        # 98ca <check_place+0x587>
    98ca:	39 45 fc             	cmp    %eax,-0x4(%rbp)
    98cd:	7c a8                	jl     9877 <check_place+0x534>
    98cf:	48 8b 05 00 00 00 00 	mov    0x0(%rip),%rax        # 98d6 <check_place+0x593>
    98d6:	48 89 c7             	mov    %rax,%rdi
    98d9:	e8 00 00 00 00       	callq  98de <check_place+0x59b>
    98de:	83 7d f0 00          	cmpl   $0x0,-0x10(%rbp)
    98e2:	75 0c                	jne    98f0 <check_place+0x5ad>
    98e4:	bf 00 00 00 00       	mov    $0x0,%edi
    98e9:	e8 00 00 00 00       	callq  98ee <check_place+0x5ab>
    98ee:	eb 28                	jmp    9918 <check_place+0x5d5>
    98f0:	8b 45 f0             	mov    -0x10(%rbp),%eax
    98f3:	89 c6                	mov    %eax,%esi
    98f5:	bf 00 00 00 00       	mov    $0x0,%edi
    98fa:	b8 00 00 00 00       	mov    $0x0,%eax
    98ff:	e8 00 00 00 00       	callq  9904 <check_place+0x5c1>
    9904:	bf 00 00 00 00       	mov    $0x0,%edi
    9909:	e8 00 00 00 00       	callq  990e <check_place+0x5cb>
    990e:	bf 01 00 00 00       	mov    $0x1,%edi
    9913:	e8 00 00 00 00       	callq  9918 <check_place+0x5d5>
    9918:	c9                   	leaveq 
    9919:	c3                   	retq   
