
OBJ/place.o:     file format elf64-x86-64


Disassembly of section .text:

0000000000000000 <try_place>:
       0:	55                   	push   %rbp
       1:	48 89 e5             	mov    %rsp,%rbp
       4:	41 57                	push   %r15
       6:	41 56                	push   %r14
       8:	41 55                	push   %r13
       a:	41 54                	push   %r12
       c:	53                   	push   %rbx
       d:	48 81 ec 18 03 00 00 	sub    $0x318,%rsp
      14:	e8 00 00 00 00       	callq  19 <try_place+0x19>
      19:	48 89 bd a8 fd ff ff 	mov    %rdi,-0x258(%rbp)
      20:	f3 0f 11 85 7c fd ff 	movss  %xmm0,-0x284(%rbp)
      27:	ff 
      28:	8b 85 7c fd ff ff    	mov    -0x284(%rbp),%eax
      2e:	48 89 95 90 fd ff ff 	mov    %rdx,-0x270(%rbp)
      35:	48 89 8d 88 fd ff ff 	mov    %rcx,-0x278(%rbp)
      3c:	48 89 b5 98 fd ff ff 	mov    %rsi,-0x268(%rbp)
      43:	89 85 a0 fd ff ff    	mov    %eax,-0x260(%rbp)
      49:	8b 05 00 00 00 00    	mov    0x0(%rip),%eax        # 4f <try_place+0x4f>
      4f:	48 98                	cltq   
      51:	48 c1 e0 02          	shl    $0x2,%rax
      55:	48 89 c7             	mov    %rax,%rdi
      58:	e8 00 00 00 00       	callq  5d <try_place+0x5d>
      5d:	48 89 85 50 ff ff ff 	mov    %rax,-0xb0(%rbp)
      64:	48 c7 85 58 ff ff ff 	movq   $0x0,-0xa8(%rbp)
      6b:	00 00 00 00 
      6f:	8b 45 10             	mov    0x10(%rbp),%eax
      72:	83 f8 01             	cmp    $0x1,%eax
      75:	74 13                	je     8a <try_place+0x8a>
      77:	8b 45 10             	mov    0x10(%rbp),%eax
      7a:	83 f8 02             	cmp    $0x2,%eax
      7d:	74 0b                	je     8a <try_place+0x8a>
      7f:	8b 45 44             	mov    0x44(%rbp),%eax
      82:	85 c0                	test   %eax,%eax
      84:	0f 84 45 01 00 00    	je     1cf <try_place+0x1cf>
      8a:	48 8d 8d b8 fd ff ff 	lea    -0x248(%rbp),%rcx
      91:	48 8d 95 b0 fd ff ff 	lea    -0x250(%rbp),%rdx
      98:	48 8b b5 98 fd ff ff 	mov    -0x268(%rbp),%rsi
      9f:	8b bd a0 fd ff ff    	mov    -0x260(%rbp),%edi
      a5:	4c 8b 85 a8 fd ff ff 	mov    -0x258(%rbp),%r8
      ac:	48 8b 85 90 fd ff ff 	mov    -0x270(%rbp),%rax
      b3:	4c 8b 08             	mov    (%rax),%r9
      b6:	4c 89 8c 24 90 00 00 	mov    %r9,0x90(%rsp)
      bd:	00 
      be:	4c 8b 48 08          	mov    0x8(%rax),%r9
      c2:	4c 89 8c 24 98 00 00 	mov    %r9,0x98(%rsp)
      c9:	00 
      ca:	48 8b 40 10          	mov    0x10(%rax),%rax
      ce:	48 89 84 24 a0 00 00 	mov    %rax,0xa0(%rsp)
      d5:	00 
      d6:	48 8b 85 e0 00 00 00 	mov    0xe0(%rbp),%rax
      dd:	48 89 44 24 70       	mov    %rax,0x70(%rsp)
      e2:	48 8b 85 e8 00 00 00 	mov    0xe8(%rbp),%rax
      e9:	48 89 44 24 78       	mov    %rax,0x78(%rsp)
      ee:	48 8b 85 f0 00 00 00 	mov    0xf0(%rbp),%rax
      f5:	48 89 84 24 80 00 00 	mov    %rax,0x80(%rsp)
      fc:	00 
      fd:	48 8b 85 f8 00 00 00 	mov    0xf8(%rbp),%rax
     104:	48 89 84 24 88 00 00 	mov    %rax,0x88(%rsp)
     10b:	00 
     10c:	48 8b 85 a0 00 00 00 	mov    0xa0(%rbp),%rax
     113:	48 89 44 24 30       	mov    %rax,0x30(%rsp)
     118:	48 8b 85 a8 00 00 00 	mov    0xa8(%rbp),%rax
     11f:	48 89 44 24 38       	mov    %rax,0x38(%rsp)
     124:	48 8b 85 b0 00 00 00 	mov    0xb0(%rbp),%rax
     12b:	48 89 44 24 40       	mov    %rax,0x40(%rsp)
     130:	48 8b 85 b8 00 00 00 	mov    0xb8(%rbp),%rax
     137:	48 89 44 24 48       	mov    %rax,0x48(%rsp)
     13c:	48 8b 85 c0 00 00 00 	mov    0xc0(%rbp),%rax
     143:	48 89 44 24 50       	mov    %rax,0x50(%rsp)
     148:	48 8b 85 c8 00 00 00 	mov    0xc8(%rbp),%rax
     14f:	48 89 44 24 58       	mov    %rax,0x58(%rsp)
     154:	48 8b 85 d0 00 00 00 	mov    0xd0(%rbp),%rax
     15b:	48 89 44 24 60       	mov    %rax,0x60(%rsp)
     160:	48 8b 85 d8 00 00 00 	mov    0xd8(%rbp),%rax
     167:	48 89 44 24 68       	mov    %rax,0x68(%rsp)
     16c:	48 8b 45 70          	mov    0x70(%rbp),%rax
     170:	48 89 04 24          	mov    %rax,(%rsp)
     174:	48 8b 45 78          	mov    0x78(%rbp),%rax
     178:	48 89 44 24 08       	mov    %rax,0x8(%rsp)
     17d:	48 8b 85 80 00 00 00 	mov    0x80(%rbp),%rax
     184:	48 89 44 24 10       	mov    %rax,0x10(%rsp)
     189:	48 8b 85 88 00 00 00 	mov    0x88(%rbp),%rax
     190:	48 89 44 24 18       	mov    %rax,0x18(%rsp)
     195:	48 8b 85 90 00 00 00 	mov    0x90(%rbp),%rax
     19c:	48 89 44 24 20       	mov    %rax,0x20(%rsp)
     1a1:	8b 85 98 00 00 00    	mov    0x98(%rbp),%eax
     1a7:	89 44 24 28          	mov    %eax,0x28(%rsp)
     1ab:	89 bd 7c fd ff ff    	mov    %edi,-0x284(%rbp)
     1b1:	f3 0f 10 85 7c fd ff 	movss  -0x284(%rbp),%xmm0
     1b8:	ff 
     1b9:	4c 89 c7             	mov    %r8,%rdi
     1bc:	e8 00 00 00 00       	callq  1c1 <try_place+0x1c1>
     1c1:	48 8b 85 b0 fd ff ff 	mov    -0x250(%rbp),%rax
     1c8:	48 89 85 58 ff ff ff 	mov    %rax,-0xa8(%rbp)
     1cf:	8b 45 24             	mov    0x24(%rbp),%eax
     1d2:	89 85 4c ff ff ff    	mov    %eax,-0xb4(%rbp)
     1d8:	8b 45 28             	mov    0x28(%rbp),%eax
     1db:	85 c0                	test   %eax,%eax
     1dd:	75 0c                	jne    1eb <try_place+0x1eb>
     1df:	c7 85 7c ff ff ff 00 	movl   $0x0,-0x84(%rbp)
     1e6:	00 00 00 
     1e9:	eb 0a                	jmp    1f5 <try_place+0x1f5>
     1eb:	c7 85 7c ff ff ff 01 	movl   $0x1,-0x84(%rbp)
     1f2:	00 00 00 
     1f5:	8b 85 4c ff ff ff    	mov    -0xb4(%rbp),%eax
     1fb:	48 8b 55 70          	mov    0x70(%rbp),%rdx
     1ff:	48 89 14 24          	mov    %rdx,(%rsp)
     203:	48 8b 55 78          	mov    0x78(%rbp),%rdx
     207:	48 89 54 24 08       	mov    %rdx,0x8(%rsp)
     20c:	48 8b 95 80 00 00 00 	mov    0x80(%rbp),%rdx
     213:	48 89 54 24 10       	mov    %rdx,0x10(%rsp)
     218:	48 8b 95 88 00 00 00 	mov    0x88(%rbp),%rdx
     21f:	48 89 54 24 18       	mov    %rdx,0x18(%rsp)
     224:	48 8b 95 90 00 00 00 	mov    0x90(%rbp),%rdx
     22b:	48 89 54 24 20       	mov    %rdx,0x20(%rsp)
     230:	8b 95 98 00 00 00    	mov    0x98(%rbp),%edx
     236:	89 54 24 28          	mov    %edx,0x28(%rsp)
     23a:	89 c7                	mov    %eax,%edi
     23c:	e8 00 00 00 00       	callq  241 <try_place+0x241>
     241:	8b 45 20             	mov    0x20(%rbp),%eax
     244:	8b 75 3c             	mov    0x3c(%rbp),%esi
     247:	8b 55 1c             	mov    0x1c(%rbp),%edx
     24a:	89 d7                	mov    %edx,%edi
     24c:	48 8d 8d f8 fe ff ff 	lea    -0x108(%rbp),%rcx
     253:	48 8d 95 00 ff ff ff 	lea    -0x100(%rbp),%rdx
     25a:	4c 8b 45 10          	mov    0x10(%rbp),%r8
     25e:	4c 89 04 24          	mov    %r8,(%rsp)
     262:	4c 8b 45 18          	mov    0x18(%rbp),%r8
     266:	4c 89 44 24 08       	mov    %r8,0x8(%rsp)
     26b:	4c 8b 45 20          	mov    0x20(%rbp),%r8
     26f:	4c 89 44 24 10       	mov    %r8,0x10(%rsp)
     274:	4c 8b 45 28          	mov    0x28(%rbp),%r8
     278:	4c 89 44 24 18       	mov    %r8,0x18(%rsp)
     27d:	4c 8b 45 30          	mov    0x30(%rbp),%r8
     281:	4c 89 44 24 20       	mov    %r8,0x20(%rsp)
     286:	4c 8b 45 38          	mov    0x38(%rbp),%r8
     28a:	4c 89 44 24 28       	mov    %r8,0x28(%rsp)
     28f:	4c 8b 45 40          	mov    0x40(%rbp),%r8
     293:	4c 89 44 24 30       	mov    %r8,0x30(%rsp)
     298:	4c 8b 45 48          	mov    0x48(%rbp),%r8
     29c:	4c 89 44 24 38       	mov    %r8,0x38(%rsp)
     2a1:	4c 8b 45 50          	mov    0x50(%rbp),%r8
     2a5:	4c 89 44 24 40       	mov    %r8,0x40(%rsp)
     2aa:	89 85 7c fd ff ff    	mov    %eax,-0x284(%rbp)
     2b0:	f3 0f 10 85 7c fd ff 	movss  -0x284(%rbp),%xmm0
     2b7:	ff 
     2b8:	e8 9e 5f 00 00       	callq  625b <alloc_and_load_placement_structs>
     2bd:	48 8b 55 30          	mov    0x30(%rbp),%rdx
     2c1:	8b 45 28             	mov    0x28(%rbp),%eax
     2c4:	48 89 d6             	mov    %rdx,%rsi
     2c7:	89 c7                	mov    %eax,%edi
     2c9:	e8 e9 81 00 00       	callq  84b7 <initial_placement>
     2ce:	f3 0f 2a 85 4c ff ff 	cvtsi2ssl -0xb4(%rbp),%xmm0
     2d5:	ff 
     2d6:	e8 00 00 00 00       	callq  2db <try_place+0x2db>
     2db:	8b 45 10             	mov    0x10(%rbp),%eax
     2de:	83 f8 01             	cmp    $0x1,%eax
     2e1:	74 0c                	je     2ef <try_place+0x2ef>
     2e3:	8b 45 10             	mov    0x10(%rbp),%eax
     2e6:	83 f8 02             	cmp    $0x2,%eax
     2e9:	0f 85 8d 02 00 00    	jne    57c <try_place+0x57c>
     2ef:	8b 55 3c             	mov    0x3c(%rbp),%edx
     2f2:	8b 45 1c             	mov    0x1c(%rbp),%eax
     2f5:	89 c6                	mov    %eax,%esi
     2f7:	bf 00 00 00 00       	mov    $0x0,%edi
     2fc:	e8 d0 51 00 00       	callq  54d1 <comp_bb_cost>
     301:	f3 0f 11 85 7c fd ff 	movss  %xmm0,-0x284(%rbp)
     308:	ff 
     309:	8b 85 7c fd ff ff    	mov    -0x284(%rbp),%eax
     30f:	89 85 14 ff ff ff    	mov    %eax,-0xec(%rbp)
     315:	8b 45 4c             	mov    0x4c(%rbp),%eax
     318:	89 85 60 ff ff ff    	mov    %eax,-0xa0(%rbp)
     31e:	e8 45 1c 00 00       	callq  1f68 <compute_net_pin_index_values>
     323:	e8 c3 1b 00 00       	callq  1eeb <count_connections>
     328:	89 85 78 ff ff ff    	mov    %eax,-0x88(%rbp)
     32e:	8b 85 78 ff ff ff    	mov    -0x88(%rbp),%eax
     334:	89 c6                	mov    %eax,%esi
     336:	bf 00 00 00 00       	mov    $0x0,%edi
     33b:	b8 00 00 00 00       	mov    $0x0,%eax
     340:	e8 00 00 00 00       	callq  345 <try_place+0x345>
     345:	8b 45 10             	mov    0x10(%rbp),%eax
     348:	83 f8 01             	cmp    $0x1,%eax
     34b:	0f 85 f0 00 00 00    	jne    441 <try_place+0x441>
     351:	c7 85 74 ff ff ff 00 	movl   $0x0,-0x8c(%rbp)
     358:	00 00 00 
     35b:	eb 78                	jmp    3d5 <try_place+0x3d5>
     35d:	c7 85 70 ff ff ff 01 	movl   $0x1,-0x90(%rbp)
     364:	00 00 00 
     367:	eb 39                	jmp    3a2 <try_place+0x3a2>
     369:	48 8b 05 00 00 00 00 	mov    0x0(%rip),%rax        # 370 <try_place+0x370>
     370:	8b 95 74 ff ff ff    	mov    -0x8c(%rbp),%edx
     376:	48 63 d2             	movslq %edx,%rdx
     379:	48 c1 e2 03          	shl    $0x3,%rdx
     37d:	48 01 d0             	add    %rdx,%rax
     380:	48 8b 00             	mov    (%rax),%rax
     383:	8b 95 70 ff ff ff    	mov    -0x90(%rbp),%edx
     389:	48 63 d2             	movslq %edx,%rdx
     38c:	48 c1 e2 02          	shl    $0x2,%rdx
     390:	48 01 c2             	add    %rax,%rdx
     393:	8b 05 00 00 00 00    	mov    0x0(%rip),%eax        # 399 <try_place+0x399>
     399:	89 02                	mov    %eax,(%rdx)
     39b:	83 85 70 ff ff ff 01 	addl   $0x1,-0x90(%rbp)
     3a2:	48 8b 0d 00 00 00 00 	mov    0x0(%rip),%rcx        # 3a9 <try_place+0x3a9>
     3a9:	8b 85 74 ff ff ff    	mov    -0x8c(%rbp),%eax
     3af:	48 63 d0             	movslq %eax,%rdx
     3b2:	48 89 d0             	mov    %rdx,%rax
     3b5:	48 c1 e0 02          	shl    $0x2,%rax
     3b9:	48 01 d0             	add    %rdx,%rax
     3bc:	48 c1 e0 03          	shl    $0x3,%rax
     3c0:	48 01 c8             	add    %rcx,%rax
     3c3:	8b 40 08             	mov    0x8(%rax),%eax
     3c6:	3b 85 70 ff ff ff    	cmp    -0x90(%rbp),%eax
     3cc:	7d 9b                	jge    369 <try_place+0x369>
     3ce:	83 85 74 ff ff ff 01 	addl   $0x1,-0x8c(%rbp)
     3d5:	8b 05 00 00 00 00    	mov    0x0(%rip),%eax        # 3db <try_place+0x3db>
     3db:	39 85 74 ff ff ff    	cmp    %eax,-0x8c(%rbp)
     3e1:	0f 8c 76 ff ff ff    	jl     35d <try_place+0x35d>
     3e7:	48 8d 95 0c ff ff ff 	lea    -0xf4(%rbp),%rdx
     3ee:	48 8d 85 18 ff ff ff 	lea    -0xe8(%rbp),%rax
     3f5:	48 89 d6             	mov    %rdx,%rsi
     3f8:	48 89 c7             	mov    %rax,%rdi
     3fb:	e8 00 4f 00 00       	callq  5300 <comp_td_costs>
     400:	f3 0f 10 8d 0c ff ff 	movss  -0xf4(%rbp),%xmm1
     407:	ff 
     408:	f3 0f 2a 85 78 ff ff 	cvtsi2ssl -0x88(%rbp),%xmm0
     40f:	ff 
     410:	0f 28 d1             	movaps %xmm1,%xmm2
     413:	f3 0f 5e d0          	divss  %xmm0,%xmm2
     417:	0f 28 c2             	movaps %xmm2,%xmm0
     41a:	f3 0f 11 45 b4       	movss  %xmm0,-0x4c(%rbp)
     41f:	48 8b 95 b0 fd ff ff 	mov    -0x250(%rbp),%rdx
     426:	8b 45 b4             	mov    -0x4c(%rbp),%eax
     429:	89 85 7c fd ff ff    	mov    %eax,-0x284(%rbp)
     42f:	f3 0f 10 85 7c fd ff 	movss  -0x284(%rbp),%xmm0
     436:	ff 
     437:	48 89 d7             	mov    %rdx,%rdi
     43a:	e8 00 00 00 00       	callq  43f <try_place+0x43f>
     43f:	eb 09                	jmp    44a <try_place+0x44a>
     441:	8b 05 00 00 00 00    	mov    0x0(%rip),%eax        # 447 <try_place+0x447>
     447:	89 45 b4             	mov    %eax,-0x4c(%rbp)
     44a:	8b 45 10             	mov    0x10(%rbp),%eax
     44d:	83 f8 02             	cmp    $0x2,%eax
     450:	75 0e                	jne    460 <try_place+0x460>
     452:	48 8b 05 00 00 00 00 	mov    0x0(%rip),%rax        # 459 <try_place+0x459>
     459:	48 89 85 b0 fd ff ff 	mov    %rax,-0x250(%rbp)
     460:	48 8b 85 b0 fd ff ff 	mov    -0x250(%rbp),%rax
     467:	48 89 c7             	mov    %rax,%rdi
     46a:	e8 00 00 00 00       	callq  46f <try_place+0x46f>
     46f:	48 8b 85 b8 fd ff ff 	mov    -0x248(%rbp),%rax
     476:	0f 57 c0             	xorps  %xmm0,%xmm0
     479:	48 89 c7             	mov    %rax,%rdi
     47c:	e8 00 00 00 00       	callq  481 <try_place+0x481>
     481:	f3 0f 11 85 7c fd ff 	movss  %xmm0,-0x284(%rbp)
     488:	ff 
     489:	8b 85 7c fd ff ff    	mov    -0x284(%rbp),%eax
     48f:	89 45 b8             	mov    %eax,-0x48(%rbp)
     492:	48 8b 8d b8 fd ff ff 	mov    -0x248(%rbp),%rcx
     499:	8b 95 60 ff ff ff    	mov    -0xa0(%rbp),%edx
     49f:	8b 45 b8             	mov    -0x48(%rbp),%eax
     4a2:	48 8b 75 10          	mov    0x10(%rbp),%rsi
     4a6:	48 89 34 24          	mov    %rsi,(%rsp)
     4aa:	48 8b 75 18          	mov    0x18(%rbp),%rsi
     4ae:	48 89 74 24 08       	mov    %rsi,0x8(%rsp)
     4b3:	48 8b 75 20          	mov    0x20(%rbp),%rsi
     4b7:	48 89 74 24 10       	mov    %rsi,0x10(%rsp)
     4bc:	48 8b 75 28          	mov    0x28(%rbp),%rsi
     4c0:	48 89 74 24 18       	mov    %rsi,0x18(%rsp)
     4c5:	48 8b 75 30          	mov    0x30(%rbp),%rsi
     4c9:	48 89 74 24 20       	mov    %rsi,0x20(%rsp)
     4ce:	48 8b 75 38          	mov    0x38(%rbp),%rsi
     4d2:	48 89 74 24 28       	mov    %rsi,0x28(%rsp)
     4d7:	48 8b 75 40          	mov    0x40(%rbp),%rsi
     4db:	48 89 74 24 30       	mov    %rsi,0x30(%rsp)
     4e0:	48 8b 75 48          	mov    0x48(%rbp),%rsi
     4e4:	48 89 74 24 38       	mov    %rsi,0x38(%rsp)
     4e9:	48 8b 75 50          	mov    0x50(%rbp),%rsi
     4ed:	48 89 74 24 40       	mov    %rsi,0x40(%rsp)
     4f2:	89 95 7c fd ff ff    	mov    %edx,-0x284(%rbp)
     4f8:	f3 0f 10 8d 7c fd ff 	movss  -0x284(%rbp),%xmm1
     4ff:	ff 
     500:	89 85 7c fd ff ff    	mov    %eax,-0x284(%rbp)
     506:	f3 0f 10 85 7c fd ff 	movss  -0x284(%rbp),%xmm0
     50d:	ff 
     50e:	48 89 cf             	mov    %rcx,%rdi
     511:	e8 00 00 00 00       	callq  516 <try_place+0x516>
     516:	c7 85 6c ff ff ff 01 	movl   $0x1,-0x94(%rbp)
     51d:	00 00 00 
     520:	48 8d 95 0c ff ff ff 	lea    -0xf4(%rbp),%rdx
     527:	48 8d 85 18 ff ff ff 	lea    -0xe8(%rbp),%rax
     52e:	48 89 d6             	mov    %rdx,%rsi
     531:	48 89 c7             	mov    %rax,%rdi
     534:	e8 c7 4d 00 00       	callq  5300 <comp_td_costs>
     539:	f3 0f 10 8d 18 ff ff 	movss  -0xe8(%rbp),%xmm1
     540:	ff 
     541:	f3 0f 10 05 00 00 00 	movss  0x0(%rip),%xmm0        # 549 <try_place+0x549>
     548:	00 
     549:	f3 0f 5e c1          	divss  %xmm1,%xmm0
     54d:	f3 0f 11 45 ac       	movss  %xmm0,-0x54(%rbp)
     552:	f3 0f 10 8d 14 ff ff 	movss  -0xec(%rbp),%xmm1
     559:	ff 
     55a:	f3 0f 10 05 00 00 00 	movss  0x0(%rip),%xmm0        # 562 <try_place+0x562>
     561:	00 
     562:	f3 0f 5e c1          	divss  %xmm1,%xmm0
     566:	f3 0f 11 45 b0       	movss  %xmm0,-0x50(%rbp)
     56b:	8b 05 00 00 00 00    	mov    0x0(%rip),%eax        # 571 <try_place+0x571>
     571:	89 85 1c ff ff ff    	mov    %eax,-0xe4(%rbp)
     577:	e9 8e 00 00 00       	jmpq   60a <try_place+0x60a>
     57c:	8b 55 3c             	mov    0x3c(%rbp),%edx
     57f:	8b 45 1c             	mov    0x1c(%rbp),%eax
     582:	89 c6                	mov    %eax,%esi
     584:	bf 00 00 00 00       	mov    $0x0,%edi
     589:	e8 43 4f 00 00       	callq  54d1 <comp_bb_cost>
     58e:	f3 0f 11 85 7c fd ff 	movss  %xmm0,-0x284(%rbp)
     595:	ff 
     596:	8b 85 7c fd ff ff    	mov    -0x284(%rbp),%eax
     59c:	89 85 14 ff ff ff    	mov    %eax,-0xec(%rbp)
     5a2:	8b 85 14 ff ff ff    	mov    -0xec(%rbp),%eax
     5a8:	89 85 1c ff ff ff    	mov    %eax,-0xe4(%rbp)
     5ae:	8b 05 00 00 00 00    	mov    0x0(%rip),%eax        # 5b4 <try_place+0x5b4>
     5b4:	89 85 18 ff ff ff    	mov    %eax,-0xe8(%rbp)
     5ba:	8b 05 00 00 00 00    	mov    0x0(%rip),%eax        # 5c0 <try_place+0x5c0>
     5c0:	89 85 0c ff ff ff    	mov    %eax,-0xf4(%rbp)
     5c6:	8b 05 00 00 00 00    	mov    0x0(%rip),%eax        # 5cc <try_place+0x5cc>
     5cc:	89 45 b4             	mov    %eax,-0x4c(%rbp)
     5cf:	c7 85 6c ff ff ff 00 	movl   $0x0,-0x94(%rbp)
     5d6:	00 00 00 
     5d9:	c7 85 78 ff ff ff 00 	movl   $0x0,-0x88(%rbp)
     5e0:	00 00 00 
     5e3:	8b 05 00 00 00 00    	mov    0x0(%rip),%eax        # 5e9 <try_place+0x5e9>
     5e9:	89 45 b8             	mov    %eax,-0x48(%rbp)
     5ec:	8b 05 00 00 00 00    	mov    0x0(%rip),%eax        # 5f2 <try_place+0x5f2>
     5f2:	89 85 60 ff ff ff    	mov    %eax,-0xa0(%rbp)
     5f8:	8b 05 00 00 00 00    	mov    0x0(%rip),%eax        # 5fe <try_place+0x5fe>
     5fe:	89 45 ac             	mov    %eax,-0x54(%rbp)
     601:	8b 05 00 00 00 00    	mov    0x0(%rip),%eax        # 607 <try_place+0x607>
     607:	89 45 b0             	mov    %eax,-0x50(%rbp)
     60a:	f3 0f 10 45 5c       	movss  0x5c(%rbp),%xmm0
     60f:	0f 14 c0             	unpcklps %xmm0,%xmm0
     612:	0f 5a c0             	cvtps2pd %xmm0,%xmm0
     615:	f2 0f 11 85 80 fd ff 	movsd  %xmm0,-0x280(%rbp)
     61c:	ff 
     61d:	8b 05 00 00 00 00    	mov    0x0(%rip),%eax        # 623 <try_place+0x623>
     623:	f2 0f 2a c0          	cvtsi2sd %eax,%xmm0
     627:	48 b8 da 1b 7c 61 32 	movabs $0x3ff55532617c1bda,%rax
     62e:	55 f5 3f 
     631:	48 89 85 70 fd ff ff 	mov    %rax,-0x290(%rbp)
     638:	f2 0f 10 8d 70 fd ff 	movsd  -0x290(%rbp),%xmm1
     63f:	ff 
     640:	e8 00 00 00 00       	callq  645 <try_place+0x645>
     645:	f2 0f 59 85 80 fd ff 	mulsd  -0x280(%rbp),%xmm0
     64c:	ff 
     64d:	f2 0f 2c c0          	cvttsd2si %xmm0,%eax
     651:	89 45 c0             	mov    %eax,-0x40(%rbp)
     654:	8b 45 48             	mov    0x48(%rbp),%eax
     657:	85 c0                	test   %eax,%eax
     659:	74 2e                	je     689 <try_place+0x689>
     65b:	f3 0f 2a 45 c0       	cvtsi2ssl -0x40(%rbp),%xmm0
     660:	8b 45 48             	mov    0x48(%rbp),%eax
     663:	f3 0f 2a c8          	cvtsi2ss %eax,%xmm1
     667:	f3 0f 5e c1          	divss  %xmm1,%xmm0
     66b:	0f 14 c0             	unpcklps %xmm0,%xmm0
     66e:	0f 5a c0             	cvtps2pd %xmm0,%xmm0
     671:	f2 0f 10 0d 00 00 00 	movsd  0x0(%rip),%xmm1        # 679 <try_place+0x679>
     678:	00 
     679:	f2 0f 58 c1          	addsd  %xmm1,%xmm0
     67d:	f2 0f 2c c0          	cvttsd2si %xmm0,%eax
     681:	89 85 64 ff ff ff    	mov    %eax,-0x9c(%rbp)
     687:	eb 0c                	jmp    695 <try_place+0x695>
     689:	8b 45 c0             	mov    -0x40(%rbp),%eax
     68c:	83 c0 01             	add    $0x1,%eax
     68f:	89 85 64 ff ff ff    	mov    %eax,-0x9c(%rbp)
     695:	83 7d c0 00          	cmpl   $0x0,-0x40(%rbp)
     699:	7f 07                	jg     6a2 <try_place+0x6a2>
     69b:	c7 45 c0 01 00 00 00 	movl   $0x1,-0x40(%rbp)
     6a2:	8b 15 00 00 00 00    	mov    0x0(%rip),%edx        # 6a8 <try_place+0x6a8>
     6a8:	8b 05 00 00 00 00    	mov    0x0(%rip),%eax        # 6ae <try_place+0x6ae>
     6ae:	39 c2                	cmp    %eax,%edx
     6b0:	7e 0c                	jle    6be <try_place+0x6be>
     6b2:	8b 05 00 00 00 00    	mov    0x0(%rip),%eax        # 6b8 <try_place+0x6b8>
     6b8:	f3 0f 2a c0          	cvtsi2ss %eax,%xmm0
     6bc:	eb 0a                	jmp    6c8 <try_place+0x6c8>
     6be:	8b 05 00 00 00 00    	mov    0x0(%rip),%eax        # 6c4 <try_place+0x6c4>
     6c4:	f3 0f 2a c0          	cvtsi2ss %eax,%xmm0
     6c8:	f3 0f 11 85 20 ff ff 	movss  %xmm0,-0xe0(%rbp)
     6cf:	ff 
     6d0:	8b 85 20 ff ff ff    	mov    -0xe0(%rbp),%eax
     6d6:	89 85 48 ff ff ff    	mov    %eax,-0xb8(%rbp)
     6dc:	8b 05 00 00 00 00    	mov    0x0(%rip),%eax        # 6e2 <try_place+0x6e2>
     6e2:	89 85 44 ff ff ff    	mov    %eax,-0xbc(%rbp)
     6e8:	f3 0f 10 85 48 ff ff 	movss  -0xb8(%rbp),%xmm0
     6ef:	ff 
     6f0:	f3 0f 5c 85 44 ff ff 	subss  -0xbc(%rbp),%xmm0
     6f7:	ff 
     6f8:	f3 0f 10 0d 00 00 00 	movss  0x0(%rip),%xmm1        # 700 <try_place+0x700>
     6ff:	00 
     700:	0f 28 d1             	movaps %xmm1,%xmm2
     703:	f3 0f 5e d0          	divss  %xmm0,%xmm2
     707:	0f 28 c2             	movaps %xmm2,%xmm0
     70a:	f3 0f 11 85 40 ff ff 	movss  %xmm0,-0xc0(%rbp)
     711:	ff 
     712:	8b 55 14             	mov    0x14(%rbp),%edx
     715:	44 8b 4d 10          	mov    0x10(%rbp),%r9d
     719:	8b 85 20 ff ff ff    	mov    -0xe0(%rbp),%eax
     71f:	44 8b 45 3c          	mov    0x3c(%rbp),%r8d
     723:	4c 8b b5 f8 fe ff ff 	mov    -0x108(%rbp),%r14
     72a:	4c 8b ad 00 ff ff ff 	mov    -0x100(%rbp),%r13
     731:	8b 4d 1c             	mov    0x1c(%rbp),%ecx
     734:	89 cb                	mov    %ecx,%ebx
     736:	8b 75 ac             	mov    -0x54(%rbp),%esi
     739:	8b 4d b0             	mov    -0x50(%rbp),%ecx
     73c:	4c 8d 9d 18 ff ff ff 	lea    -0xe8(%rbp),%r11
     743:	4c 8d 95 14 ff ff ff 	lea    -0xec(%rbp),%r10
     74a:	48 8d bd 1c ff ff ff 	lea    -0xe4(%rbp),%rdi
     751:	4c 8d a5 0c ff ff ff 	lea    -0xf4(%rbp),%r12
     758:	4c 89 64 24 38       	mov    %r12,0x38(%rsp)
     75d:	44 89 4c 24 30       	mov    %r9d,0x30(%rsp)
     762:	44 8b 4d c0          	mov    -0x40(%rbp),%r9d
     766:	44 89 4c 24 28       	mov    %r9d,0x28(%rsp)
     76b:	4c 8b 4d 58          	mov    0x58(%rbp),%r9
     76f:	4c 89 4c 24 10       	mov    %r9,0x10(%rsp)
     774:	4c 8b 4d 60          	mov    0x60(%rbp),%r9
     778:	4c 89 4c 24 18       	mov    %r9,0x18(%rsp)
     77d:	44 8b 4d 68          	mov    0x68(%rbp),%r9d
     781:	44 89 4c 24 20       	mov    %r9d,0x20(%rsp)
     786:	44 8b 8d 7c ff ff ff 	mov    -0x84(%rbp),%r9d
     78d:	44 89 4c 24 08       	mov    %r9d,0x8(%rsp)
     792:	44 89 04 24          	mov    %r8d,(%rsp)
     796:	89 b5 7c fd ff ff    	mov    %esi,-0x284(%rbp)
     79c:	f3 0f 10 9d 7c fd ff 	movss  -0x284(%rbp),%xmm3
     7a3:	ff 
     7a4:	89 8d 7c fd ff ff    	mov    %ecx,-0x284(%rbp)
     7aa:	f3 0f 10 95 7c fd ff 	movss  -0x284(%rbp),%xmm2
     7b1:	ff 
     7b2:	89 95 7c fd ff ff    	mov    %edx,-0x284(%rbp)
     7b8:	f3 0f 10 8d 7c fd ff 	movss  -0x284(%rbp),%xmm1
     7bf:	ff 
     7c0:	89 85 7c fd ff ff    	mov    %eax,-0x284(%rbp)
     7c6:	f3 0f 10 85 7c fd ff 	movss  -0x284(%rbp),%xmm0
     7cd:	ff 
     7ce:	4d 89 f1             	mov    %r14,%r9
     7d1:	4d 89 e8             	mov    %r13,%r8
     7d4:	89 d9                	mov    %ebx,%ecx
     7d6:	4c 89 da             	mov    %r11,%rdx
     7d9:	4c 89 d6             	mov    %r10,%rsi
     7dc:	e8 26 1c 00 00       	callq  2407 <starting_t>
     7e1:	f3 0f 11 85 7c fd ff 	movss  %xmm0,-0x284(%rbp)
     7e8:	ff 
     7e9:	8b 85 7c fd ff ff    	mov    -0x284(%rbp),%eax
     7ef:	89 85 24 ff ff ff    	mov    %eax,-0xdc(%rbp)
     7f5:	c7 45 cc 00 00 00 00 	movl   $0x0,-0x34(%rbp)
     7fc:	c7 45 bc 00 00 00 00 	movl   $0x0,-0x44(%rbp)
     803:	f3 0f 10 85 0c ff ff 	movss  -0xf4(%rbp),%xmm0
     80a:	ff 
     80b:	0f 14 c0             	unpcklps %xmm0,%xmm0
     80e:	0f 5a d8             	cvtps2pd %xmm0,%xmm3
     811:	f3 0f 10 85 18 ff ff 	movss  -0xe8(%rbp),%xmm0
     818:	ff 
     819:	0f 14 c0             	unpcklps %xmm0,%xmm0
     81c:	0f 5a d0             	cvtps2pd %xmm0,%xmm2
     81f:	f3 0f 10 85 14 ff ff 	movss  -0xec(%rbp),%xmm0
     826:	ff 
     827:	0f 14 c0             	unpcklps %xmm0,%xmm0
     82a:	0f 5a c8             	cvtps2pd %xmm0,%xmm1
     82d:	f3 0f 10 85 1c ff ff 	movss  -0xe4(%rbp),%xmm0
     834:	ff 
     835:	0f 14 c0             	unpcklps %xmm0,%xmm0
     838:	0f 5a c0             	cvtps2pd %xmm0,%xmm0
     83b:	bf 00 00 00 00       	mov    $0x0,%edi
     840:	b8 04 00 00 00       	mov    $0x4,%eax
     845:	e8 00 00 00 00       	callq  84a <try_place+0x84a>
     84a:	48 c7 44 24 38 00 00 	movq   $0x0,0x38(%rsp)
     851:	00 00 
     853:	48 c7 44 24 30 00 00 	movq   $0x0,0x30(%rsp)
     85a:	00 00 
     85c:	48 c7 44 24 28 00 00 	movq   $0x0,0x28(%rsp)
     863:	00 00 
     865:	48 c7 44 24 20 00 00 	movq   $0x0,0x20(%rsp)
     86c:	00 00 
     86e:	48 c7 44 24 18 00 00 	movq   $0x0,0x18(%rsp)
     875:	00 00 
     877:	48 c7 44 24 10 00 00 	movq   $0x0,0x10(%rsp)
     87e:	00 00 
     880:	48 c7 44 24 08 00 00 	movq   $0x0,0x8(%rsp)
     887:	00 00 
     889:	48 c7 04 24 00 00 00 	movq   $0x0,(%rsp)
     890:	00 
     891:	41 b9 00 00 00 00    	mov    $0x0,%r9d
     897:	41 b8 00 00 00 00    	mov    $0x0,%r8d
     89d:	b9 00 00 00 00       	mov    $0x0,%ecx
     8a2:	ba 00 00 00 00       	mov    $0x0,%edx
     8a7:	be 00 00 00 00       	mov    $0x0,%esi
     8ac:	bf 00 00 00 00       	mov    $0x0,%edi
     8b1:	b8 00 00 00 00       	mov    $0x0,%eax
     8b6:	e8 00 00 00 00       	callq  8bb <try_place+0x8bb>
     8bb:	48 c7 44 24 38 00 00 	movq   $0x0,0x38(%rsp)
     8c2:	00 00 
     8c4:	48 c7 44 24 30 00 00 	movq   $0x0,0x30(%rsp)
     8cb:	00 00 
     8cd:	48 c7 44 24 28 00 00 	movq   $0x0,0x28(%rsp)
     8d4:	00 00 
     8d6:	48 c7 44 24 20 00 00 	movq   $0x0,0x20(%rsp)
     8dd:	00 00 
     8df:	48 c7 44 24 18 00 00 	movq   $0x0,0x18(%rsp)
     8e6:	00 00 
     8e8:	48 c7 44 24 10 00 00 	movq   $0x0,0x10(%rsp)
     8ef:	00 00 
     8f1:	48 c7 44 24 08 00 00 	movq   $0x0,0x8(%rsp)
     8f8:	00 00 
     8fa:	48 c7 04 24 00 00 00 	movq   $0x0,(%rsp)
     901:	00 
     902:	41 b9 00 00 00 00    	mov    $0x0,%r9d
     908:	41 b8 00 00 00 00    	mov    $0x0,%r8d
     90e:	b9 00 00 00 00       	mov    $0x0,%ecx
     913:	ba 00 00 00 00       	mov    $0x0,%edx
     918:	be 00 00 00 00       	mov    $0x0,%esi
     91d:	bf 00 00 00 00       	mov    $0x0,%edi
     922:	b8 00 00 00 00       	mov    $0x0,%eax
     927:	e8 00 00 00 00       	callq  92c <try_place+0x92c>
     92c:	f3 0f 10 65 b8       	movss  -0x48(%rbp),%xmm4
     931:	0f 5a e4             	cvtps2pd %xmm4,%xmm4
     934:	f3 0f 10 85 0c ff ff 	movss  -0xf4(%rbp),%xmm0
     93b:	ff 
     93c:	0f 14 c0             	unpcklps %xmm0,%xmm0
     93f:	0f 5a d8             	cvtps2pd %xmm0,%xmm3
     942:	f3 0f 10 85 18 ff ff 	movss  -0xe8(%rbp),%xmm0
     949:	ff 
     94a:	0f 14 c0             	unpcklps %xmm0,%xmm0
     94d:	0f 5a d0             	cvtps2pd %xmm0,%xmm2
     950:	f3 0f 10 85 14 ff ff 	movss  -0xec(%rbp),%xmm0
     957:	ff 
     958:	0f 14 c0             	unpcklps %xmm0,%xmm0
     95b:	0f 5a c8             	cvtps2pd %xmm0,%xmm1
     95e:	f3 0f 10 85 1c ff ff 	movss  -0xe4(%rbp),%xmm0
     965:	ff 
     966:	0f 14 c0             	unpcklps %xmm0,%xmm0
     969:	0f 5a c0             	cvtps2pd %xmm0,%xmm0
     96c:	8b 95 4c ff ff ff    	mov    -0xb4(%rbp),%edx
     972:	48 8d 85 c0 fd ff ff 	lea    -0x240(%rbp),%rax
     979:	be 00 00 00 00       	mov    $0x0,%esi
     97e:	48 89 c7             	mov    %rax,%rdi
     981:	b8 05 00 00 00       	mov    $0x5,%eax
     986:	e8 00 00 00 00       	callq  98b <try_place+0x98b>
     98b:	48 8d 85 c0 fd ff ff 	lea    -0x240(%rbp),%rax
     992:	b9 00 00 00 00       	mov    $0x0,%ecx
     997:	ba 01 00 00 00       	mov    $0x1,%edx
     99c:	48 89 c6             	mov    %rax,%rsi
     99f:	bf 01 00 00 00       	mov    $0x1,%edi
     9a4:	e8 00 00 00 00       	callq  9a9 <try_place+0x9a9>
     9a9:	e9 30 0a 00 00       	jmpq   13de <try_place+0x13de>
     9ae:	8b 45 10             	mov    0x10(%rbp),%eax
     9b1:	83 f8 01             	cmp    $0x1,%eax
     9b4:	74 08                	je     9be <try_place+0x9be>
     9b6:	8b 45 10             	mov    0x10(%rbp),%eax
     9b9:	83 f8 02             	cmp    $0x2,%eax
     9bc:	75 0c                	jne    9ca <try_place+0x9ca>
     9be:	8b 05 00 00 00 00    	mov    0x0(%rip),%eax        # 9c4 <try_place+0x9c4>
     9c4:	89 85 1c ff ff ff    	mov    %eax,-0xe4(%rbp)
     9ca:	b8 00 00 00 00       	mov    $0x0,%eax
     9cf:	48 89 45 a0          	mov    %rax,-0x60(%rbp)
     9d3:	b8 00 00 00 00       	mov    $0x0,%eax
     9d8:	48 89 45 98          	mov    %rax,-0x68(%rbp)
     9dc:	b8 00 00 00 00       	mov    $0x0,%eax
     9e1:	48 89 45 88          	mov    %rax,-0x78(%rbp)
     9e5:	b8 00 00 00 00       	mov    $0x0,%eax
     9ea:	48 89 45 90          	mov    %rax,-0x70(%rbp)
     9ee:	b8 00 00 00 00       	mov    $0x0,%eax
     9f3:	48 89 45 80          	mov    %rax,-0x80(%rbp)
     9f7:	c7 45 c4 00 00 00 00 	movl   $0x0,-0x3c(%rbp)
     9fe:	8b 45 10             	mov    0x10(%rbp),%eax
     a01:	83 f8 01             	cmp    $0x1,%eax
     a04:	74 0c                	je     a12 <try_place+0xa12>
     a06:	8b 45 10             	mov    0x10(%rbp),%eax
     a09:	83 f8 02             	cmp    $0x2,%eax
     a0c:	0f 85 6f 01 00 00    	jne    b81 <try_place+0xb81>
     a12:	8b 45 40             	mov    0x40(%rbp),%eax
     a15:	3b 85 6c ff ff ff    	cmp    -0x94(%rbp),%eax
     a1b:	7e 0b                	jle    a28 <try_place+0xa28>
     a1d:	8b 45 48             	mov    0x48(%rbp),%eax
     a20:	85 c0                	test   %eax,%eax
     a22:	0f 84 20 01 00 00    	je     b48 <try_place+0xb48>
     a28:	f3 0f 10 8d 0c ff ff 	movss  -0xf4(%rbp),%xmm1
     a2f:	ff 
     a30:	f3 0f 2a 85 78 ff ff 	cvtsi2ssl -0x88(%rbp),%xmm0
     a37:	ff 
     a38:	0f 28 d1             	movaps %xmm1,%xmm2
     a3b:	f3 0f 5e d0          	divss  %xmm0,%xmm2
     a3f:	0f 28 c2             	movaps %xmm2,%xmm0
     a42:	f3 0f 11 45 b4       	movss  %xmm0,-0x4c(%rbp)
     a47:	8b 45 10             	mov    0x10(%rbp),%eax
     a4a:	83 f8 01             	cmp    $0x1,%eax
     a4d:	75 20                	jne    a6f <try_place+0xa6f>
     a4f:	48 8b 95 b0 fd ff ff 	mov    -0x250(%rbp),%rdx
     a56:	8b 45 b4             	mov    -0x4c(%rbp),%eax
     a59:	89 85 7c fd ff ff    	mov    %eax,-0x284(%rbp)
     a5f:	f3 0f 10 85 7c fd ff 	movss  -0x284(%rbp),%xmm0
     a66:	ff 
     a67:	48 89 d7             	mov    %rdx,%rdi
     a6a:	e8 00 00 00 00       	callq  a6f <try_place+0xa6f>
     a6f:	48 8b 85 b0 fd ff ff 	mov    -0x250(%rbp),%rax
     a76:	48 89 c7             	mov    %rax,%rdi
     a79:	e8 00 00 00 00       	callq  a7e <try_place+0xa7e>
     a7e:	48 8b 85 b8 fd ff ff 	mov    -0x248(%rbp),%rax
     a85:	0f 57 c0             	xorps  %xmm0,%xmm0
     a88:	48 89 c7             	mov    %rax,%rdi
     a8b:	e8 00 00 00 00       	callq  a90 <try_place+0xa90>
     a90:	f3 0f 11 85 7c fd ff 	movss  %xmm0,-0x284(%rbp)
     a97:	ff 
     a98:	8b 85 7c fd ff ff    	mov    -0x284(%rbp),%eax
     a9e:	89 45 b8             	mov    %eax,-0x48(%rbp)
     aa1:	48 8b 8d b8 fd ff ff 	mov    -0x248(%rbp),%rcx
     aa8:	8b 95 60 ff ff ff    	mov    -0xa0(%rbp),%edx
     aae:	8b 45 b8             	mov    -0x48(%rbp),%eax
     ab1:	48 8b 75 10          	mov    0x10(%rbp),%rsi
     ab5:	48 89 34 24          	mov    %rsi,(%rsp)
     ab9:	48 8b 75 18          	mov    0x18(%rbp),%rsi
     abd:	48 89 74 24 08       	mov    %rsi,0x8(%rsp)
     ac2:	48 8b 75 20          	mov    0x20(%rbp),%rsi
     ac6:	48 89 74 24 10       	mov    %rsi,0x10(%rsp)
     acb:	48 8b 75 28          	mov    0x28(%rbp),%rsi
     acf:	48 89 74 24 18       	mov    %rsi,0x18(%rsp)
     ad4:	48 8b 75 30          	mov    0x30(%rbp),%rsi
     ad8:	48 89 74 24 20       	mov    %rsi,0x20(%rsp)
     add:	48 8b 75 38          	mov    0x38(%rbp),%rsi
     ae1:	48 89 74 24 28       	mov    %rsi,0x28(%rsp)
     ae6:	48 8b 75 40          	mov    0x40(%rbp),%rsi
     aea:	48 89 74 24 30       	mov    %rsi,0x30(%rsp)
     aef:	48 8b 75 48          	mov    0x48(%rbp),%rsi
     af3:	48 89 74 24 38       	mov    %rsi,0x38(%rsp)
     af8:	48 8b 75 50          	mov    0x50(%rbp),%rsi
     afc:	48 89 74 24 40       	mov    %rsi,0x40(%rsp)
     b01:	89 95 7c fd ff ff    	mov    %edx,-0x284(%rbp)
     b07:	f3 0f 10 8d 7c fd ff 	movss  -0x284(%rbp),%xmm1
     b0e:	ff 
     b0f:	89 85 7c fd ff ff    	mov    %eax,-0x284(%rbp)
     b15:	f3 0f 10 85 7c fd ff 	movss  -0x284(%rbp),%xmm0
     b1c:	ff 
     b1d:	48 89 cf             	mov    %rcx,%rdi
     b20:	e8 00 00 00 00       	callq  b25 <try_place+0xb25>
     b25:	48 8d 95 0c ff ff ff 	lea    -0xf4(%rbp),%rdx
     b2c:	48 8d 85 18 ff ff ff 	lea    -0xe8(%rbp),%rax
     b33:	48 89 d6             	mov    %rdx,%rsi
     b36:	48 89 c7             	mov    %rax,%rdi
     b39:	e8 c2 47 00 00       	callq  5300 <comp_td_costs>
     b3e:	c7 85 6c ff ff ff 00 	movl   $0x0,-0x94(%rbp)
     b45:	00 00 00 
     b48:	83 85 6c ff ff ff 01 	addl   $0x1,-0x94(%rbp)
     b4f:	f3 0f 10 8d 14 ff ff 	movss  -0xec(%rbp),%xmm1
     b56:	ff 
     b57:	f3 0f 10 05 00 00 00 	movss  0x0(%rip),%xmm0        # b5f <try_place+0xb5f>
     b5e:	00 
     b5f:	f3 0f 5e c1          	divss  %xmm1,%xmm0
     b63:	f3 0f 11 45 b0       	movss  %xmm0,-0x50(%rbp)
     b68:	f3 0f 10 8d 18 ff ff 	movss  -0xe8(%rbp),%xmm1
     b6f:	ff 
     b70:	f3 0f 10 05 00 00 00 	movss  0x0(%rip),%xmm0        # b78 <try_place+0xb78>
     b77:	00 
     b78:	f3 0f 5e c1          	divss  %xmm1,%xmm0
     b7c:	f3 0f 11 45 ac       	movss  %xmm0,-0x54(%rbp)
     b81:	c7 85 68 ff ff ff 01 	movl   $0x1,-0x98(%rbp)
     b88:	00 00 00 
     b8b:	c7 45 c8 00 00 00 00 	movl   $0x0,-0x38(%rbp)
     b92:	e9 d5 02 00 00       	jmpq   e6c <try_place+0xe6c>
     b97:	8b 4d 14             	mov    0x14(%rbp),%ecx
     b9a:	44 8b 4d 10          	mov    0x10(%rbp),%r9d
     b9e:	44 8b 45 3c          	mov    0x3c(%rbp),%r8d
     ba2:	4c 8b bd f8 fe ff ff 	mov    -0x108(%rbp),%r15
     ba9:	4c 8b b5 00 ff ff ff 	mov    -0x100(%rbp),%r14
     bb0:	8b 45 1c             	mov    0x1c(%rbp),%eax
     bb3:	41 89 c4             	mov    %eax,%r12d
     bb6:	8b 95 20 ff ff ff    	mov    -0xe0(%rbp),%edx
     bbc:	8b 85 24 ff ff ff    	mov    -0xdc(%rbp),%eax
     bc2:	8b 7d ac             	mov    -0x54(%rbp),%edi
     bc5:	8b 75 b0             	mov    -0x50(%rbp),%esi
     bc8:	48 8d 9d 18 ff ff ff 	lea    -0xe8(%rbp),%rbx
     bcf:	4c 8d 9d 14 ff ff ff 	lea    -0xec(%rbp),%r11
     bd6:	4c 8d 95 1c ff ff ff 	lea    -0xe4(%rbp),%r10
     bdd:	4c 8b ad 50 ff ff ff 	mov    -0xb0(%rbp),%r13
     be4:	4c 89 6c 24 20       	mov    %r13,0x20(%rsp)
     be9:	4c 8d ad 0c ff ff ff 	lea    -0xf4(%rbp),%r13
     bf0:	4c 89 6c 24 18       	mov    %r13,0x18(%rsp)
     bf5:	44 89 4c 24 10       	mov    %r9d,0x10(%rsp)
     bfa:	44 8b 8d 7c ff ff ff 	mov    -0x84(%rbp),%r9d
     c01:	44 89 4c 24 08       	mov    %r9d,0x8(%rsp)
     c06:	44 89 04 24          	mov    %r8d,(%rsp)
     c0a:	89 bd 7c fd ff ff    	mov    %edi,-0x284(%rbp)
     c10:	f3 0f 10 a5 7c fd ff 	movss  -0x284(%rbp),%xmm4
     c17:	ff 
     c18:	89 b5 7c fd ff ff    	mov    %esi,-0x284(%rbp)
     c1e:	f3 0f 10 9d 7c fd ff 	movss  -0x284(%rbp),%xmm3
     c25:	ff 
     c26:	89 8d 7c fd ff ff    	mov    %ecx,-0x284(%rbp)
     c2c:	f3 0f 10 95 7c fd ff 	movss  -0x284(%rbp),%xmm2
     c33:	ff 
     c34:	4d 89 f9             	mov    %r15,%r9
     c37:	4d 89 f0             	mov    %r14,%r8
     c3a:	44 89 e1             	mov    %r12d,%ecx
     c3d:	89 95 7c fd ff ff    	mov    %edx,-0x284(%rbp)
     c43:	f3 0f 10 8d 7c fd ff 	movss  -0x284(%rbp),%xmm1
     c4a:	ff 
     c4b:	48 89 da             	mov    %rbx,%rdx
     c4e:	4c 89 de             	mov    %r11,%rsi
     c51:	4c 89 d7             	mov    %r10,%rdi
     c54:	89 85 7c fd ff ff    	mov    %eax,-0x284(%rbp)
     c5a:	f3 0f 10 85 7c fd ff 	movss  -0x284(%rbp),%xmm0
     c61:	ff 
     c62:	e8 ee 19 00 00       	callq  2655 <try_swap>
     c67:	83 f8 01             	cmp    $0x1,%eax
     c6a:	0f 85 9c 00 00 00    	jne    d0c <try_place+0xd0c>
     c70:	83 45 c4 01          	addl   $0x1,-0x3c(%rbp)
     c74:	f3 0f 10 85 1c ff ff 	movss  -0xe4(%rbp),%xmm0
     c7b:	ff 
     c7c:	0f 14 c0             	unpcklps %xmm0,%xmm0
     c7f:	0f 5a c0             	cvtps2pd %xmm0,%xmm0
     c82:	f2 0f 10 4d a0       	movsd  -0x60(%rbp),%xmm1
     c87:	f2 0f 58 c1          	addsd  %xmm1,%xmm0
     c8b:	f2 0f 11 45 a0       	movsd  %xmm0,-0x60(%rbp)
     c90:	f3 0f 10 85 14 ff ff 	movss  -0xec(%rbp),%xmm0
     c97:	ff 
     c98:	0f 14 c0             	unpcklps %xmm0,%xmm0
     c9b:	0f 5a c0             	cvtps2pd %xmm0,%xmm0
     c9e:	f2 0f 10 4d 98       	movsd  -0x68(%rbp),%xmm1
     ca3:	f2 0f 58 c1          	addsd  %xmm1,%xmm0
     ca7:	f2 0f 11 45 98       	movsd  %xmm0,-0x68(%rbp)
     cac:	f3 0f 10 85 18 ff ff 	movss  -0xe8(%rbp),%xmm0
     cb3:	ff 
     cb4:	0f 14 c0             	unpcklps %xmm0,%xmm0
     cb7:	0f 5a c0             	cvtps2pd %xmm0,%xmm0
     cba:	f2 0f 10 4d 90       	movsd  -0x70(%rbp),%xmm1
     cbf:	f2 0f 58 c1          	addsd  %xmm1,%xmm0
     cc3:	f2 0f 11 45 90       	movsd  %xmm0,-0x70(%rbp)
     cc8:	f3 0f 10 85 0c ff ff 	movss  -0xf4(%rbp),%xmm0
     ccf:	ff 
     cd0:	0f 14 c0             	unpcklps %xmm0,%xmm0
     cd3:	0f 5a c0             	cvtps2pd %xmm0,%xmm0
     cd6:	f2 0f 10 4d 88       	movsd  -0x78(%rbp),%xmm1
     cdb:	f2 0f 58 c1          	addsd  %xmm1,%xmm0
     cdf:	f2 0f 11 45 88       	movsd  %xmm0,-0x78(%rbp)
     ce4:	f3 0f 10 8d 1c ff ff 	movss  -0xe4(%rbp),%xmm1
     ceb:	ff 
     cec:	f3 0f 10 85 1c ff ff 	movss  -0xe4(%rbp),%xmm0
     cf3:	ff 
     cf4:	f3 0f 59 c1          	mulss  %xmm1,%xmm0
     cf8:	0f 14 c0             	unpcklps %xmm0,%xmm0
     cfb:	0f 5a c0             	cvtps2pd %xmm0,%xmm0
     cfe:	f2 0f 10 4d 80       	movsd  -0x80(%rbp),%xmm1
     d03:	f2 0f 58 c1          	addsd  %xmm1,%xmm0
     d07:	f2 0f 11 45 80       	movsd  %xmm0,-0x80(%rbp)
     d0c:	8b 45 10             	mov    0x10(%rbp),%eax
     d0f:	83 f8 01             	cmp    $0x1,%eax
     d12:	74 0c                	je     d20 <try_place+0xd20>
     d14:	8b 45 10             	mov    0x10(%rbp),%eax
     d17:	83 f8 02             	cmp    $0x2,%eax
     d1a:	0f 85 48 01 00 00    	jne    e68 <try_place+0xe68>
     d20:	8b 85 68 ff ff ff    	mov    -0x98(%rbp),%eax
     d26:	3b 85 64 ff ff ff    	cmp    -0x9c(%rbp),%eax
     d2c:	0f 8c 2f 01 00 00    	jl     e61 <try_place+0xe61>
     d32:	8b 45 c0             	mov    -0x40(%rbp),%eax
     d35:	83 e8 01             	sub    $0x1,%eax
     d38:	3b 45 c8             	cmp    -0x38(%rbp),%eax
     d3b:	0f 84 20 01 00 00    	je     e61 <try_place+0xe61>
     d41:	c7 85 68 ff ff ff 00 	movl   $0x0,-0x98(%rbp)
     d48:	00 00 00 
     d4b:	8b 45 10             	mov    0x10(%rbp),%eax
     d4e:	83 f8 01             	cmp    $0x1,%eax
     d51:	75 3f                	jne    d92 <try_place+0xd92>
     d53:	f3 0f 10 8d 0c ff ff 	movss  -0xf4(%rbp),%xmm1
     d5a:	ff 
     d5b:	f3 0f 2a 85 78 ff ff 	cvtsi2ssl -0x88(%rbp),%xmm0
     d62:	ff 
     d63:	0f 28 d1             	movaps %xmm1,%xmm2
     d66:	f3 0f 5e d0          	divss  %xmm0,%xmm2
     d6a:	0f 28 c2             	movaps %xmm2,%xmm0
     d6d:	f3 0f 11 45 b4       	movss  %xmm0,-0x4c(%rbp)
     d72:	48 8b 95 b0 fd ff ff 	mov    -0x250(%rbp),%rdx
     d79:	8b 45 b4             	mov    -0x4c(%rbp),%eax
     d7c:	89 85 7c fd ff ff    	mov    %eax,-0x284(%rbp)
     d82:	f3 0f 10 85 7c fd ff 	movss  -0x284(%rbp),%xmm0
     d89:	ff 
     d8a:	48 89 d7             	mov    %rdx,%rdi
     d8d:	e8 00 00 00 00       	callq  d92 <try_place+0xd92>
     d92:	48 8b 85 b0 fd ff ff 	mov    -0x250(%rbp),%rax
     d99:	48 89 c7             	mov    %rax,%rdi
     d9c:	e8 00 00 00 00       	callq  da1 <try_place+0xda1>
     da1:	48 8b 85 b8 fd ff ff 	mov    -0x248(%rbp),%rax
     da8:	0f 57 c0             	xorps  %xmm0,%xmm0
     dab:	48 89 c7             	mov    %rax,%rdi
     dae:	e8 00 00 00 00       	callq  db3 <try_place+0xdb3>
     db3:	f3 0f 11 85 7c fd ff 	movss  %xmm0,-0x284(%rbp)
     dba:	ff 
     dbb:	8b 85 7c fd ff ff    	mov    -0x284(%rbp),%eax
     dc1:	89 45 b8             	mov    %eax,-0x48(%rbp)
     dc4:	48 8b 8d b8 fd ff ff 	mov    -0x248(%rbp),%rcx
     dcb:	8b 95 60 ff ff ff    	mov    -0xa0(%rbp),%edx
     dd1:	8b 45 b8             	mov    -0x48(%rbp),%eax
     dd4:	48 8b 75 10          	mov    0x10(%rbp),%rsi
     dd8:	48 89 34 24          	mov    %rsi,(%rsp)
     ddc:	48 8b 75 18          	mov    0x18(%rbp),%rsi
     de0:	48 89 74 24 08       	mov    %rsi,0x8(%rsp)
     de5:	48 8b 75 20          	mov    0x20(%rbp),%rsi
     de9:	48 89 74 24 10       	mov    %rsi,0x10(%rsp)
     dee:	48 8b 75 28          	mov    0x28(%rbp),%rsi
     df2:	48 89 74 24 18       	mov    %rsi,0x18(%rsp)
     df7:	48 8b 75 30          	mov    0x30(%rbp),%rsi
     dfb:	48 89 74 24 20       	mov    %rsi,0x20(%rsp)
     e00:	48 8b 75 38          	mov    0x38(%rbp),%rsi
     e04:	48 89 74 24 28       	mov    %rsi,0x28(%rsp)
     e09:	48 8b 75 40          	mov    0x40(%rbp),%rsi
     e0d:	48 89 74 24 30       	mov    %rsi,0x30(%rsp)
     e12:	48 8b 75 48          	mov    0x48(%rbp),%rsi
     e16:	48 89 74 24 38       	mov    %rsi,0x38(%rsp)
     e1b:	48 8b 75 50          	mov    0x50(%rbp),%rsi
     e1f:	48 89 74 24 40       	mov    %rsi,0x40(%rsp)
     e24:	89 95 7c fd ff ff    	mov    %edx,-0x284(%rbp)
     e2a:	f3 0f 10 8d 7c fd ff 	movss  -0x284(%rbp),%xmm1
     e31:	ff 
     e32:	89 85 7c fd ff ff    	mov    %eax,-0x284(%rbp)
     e38:	f3 0f 10 85 7c fd ff 	movss  -0x284(%rbp),%xmm0
     e3f:	ff 
     e40:	48 89 cf             	mov    %rcx,%rdi
     e43:	e8 00 00 00 00       	callq  e48 <try_place+0xe48>
     e48:	48 8d 95 0c ff ff ff 	lea    -0xf4(%rbp),%rdx
     e4f:	48 8d 85 18 ff ff ff 	lea    -0xe8(%rbp),%rax
     e56:	48 89 d6             	mov    %rdx,%rsi
     e59:	48 89 c7             	mov    %rax,%rdi
     e5c:	e8 9f 44 00 00       	callq  5300 <comp_td_costs>
     e61:	83 85 68 ff ff ff 01 	addl   $0x1,-0x98(%rbp)
     e68:	83 45 c8 01          	addl   $0x1,-0x38(%rbp)
     e6c:	8b 45 c8             	mov    -0x38(%rbp),%eax
     e6f:	3b 45 c0             	cmp    -0x40(%rbp),%eax
     e72:	0f 8c 1f fd ff ff    	jl     b97 <try_place+0xb97>
     e78:	8b 45 c0             	mov    -0x40(%rbp),%eax
     e7b:	01 45 bc             	add    %eax,-0x44(%rbp)
     e7e:	81 7d bc 50 c3 00 00 	cmpl   $0xc350,-0x44(%rbp)
     e85:	0f 8e ed 01 00 00    	jle    1078 <try_place+0x1078>
     e8b:	8b 55 3c             	mov    0x3c(%rbp),%edx
     e8e:	8b 45 1c             	mov    0x1c(%rbp),%eax
     e91:	89 d6                	mov    %edx,%esi
     e93:	89 c7                	mov    %eax,%edi
     e95:	e8 41 31 00 00       	callq  3fdb <recompute_bb_cost>
     e9a:	f3 0f 11 85 7c fd ff 	movss  %xmm0,-0x284(%rbp)
     ea1:	ff 
     ea2:	8b 85 7c fd ff ff    	mov    -0x284(%rbp),%eax
     ea8:	89 85 3c ff ff ff    	mov    %eax,-0xc4(%rbp)
     eae:	f3 0f 10 8d 14 ff ff 	movss  -0xec(%rbp),%xmm1
     eb5:	ff 
     eb6:	f3 0f 10 85 3c ff ff 	movss  -0xc4(%rbp),%xmm0
     ebd:	ff 
     ebe:	f3 0f 5c c1          	subss  %xmm1,%xmm0
     ec2:	f3 0f 10 0d 00 00 00 	movss  0x0(%rip),%xmm1        # eca <try_place+0xeca>
     ec9:	00 
     eca:	0f 54 c1             	andps  %xmm1,%xmm0
     ecd:	0f 14 c0             	unpcklps %xmm0,%xmm0
     ed0:	0f 5a c0             	cvtps2pd %xmm0,%xmm0
     ed3:	f3 0f 10 8d 14 ff ff 	movss  -0xec(%rbp),%xmm1
     eda:	ff 
     edb:	0f 14 c9             	unpcklps %xmm1,%xmm1
     ede:	0f 5a c9             	cvtps2pd %xmm1,%xmm1
     ee1:	f2 0f 10 15 00 00 00 	movsd  0x0(%rip),%xmm2        # ee9 <try_place+0xee9>
     ee8:	00 
     ee9:	f2 0f 59 ca          	mulsd  %xmm2,%xmm1
     eed:	66 0f 2e c1          	ucomisd %xmm1,%xmm0
     ef1:	76 32                	jbe    f25 <try_place+0xf25>
     ef3:	f3 0f 10 85 14 ff ff 	movss  -0xec(%rbp),%xmm0
     efa:	ff 
     efb:	0f 14 c0             	unpcklps %xmm0,%xmm0
     efe:	0f 5a c8             	cvtps2pd %xmm0,%xmm1
     f01:	f3 0f 10 85 3c ff ff 	movss  -0xc4(%rbp),%xmm0
     f08:	ff 
     f09:	0f 5a c0             	cvtps2pd %xmm0,%xmm0
     f0c:	bf 00 00 00 00       	mov    $0x0,%edi
     f11:	b8 02 00 00 00       	mov    $0x2,%eax
     f16:	e8 00 00 00 00       	callq  f1b <try_place+0xf1b>
     f1b:	bf 01 00 00 00       	mov    $0x1,%edi
     f20:	e8 00 00 00 00       	callq  f25 <try_place+0xf25>
     f25:	8b 85 3c ff ff ff    	mov    -0xc4(%rbp),%eax
     f2b:	89 85 14 ff ff ff    	mov    %eax,-0xec(%rbp)
     f31:	8b 45 10             	mov    0x10(%rbp),%eax
     f34:	83 f8 01             	cmp    $0x1,%eax
     f37:	74 0c                	je     f45 <try_place+0xf45>
     f39:	8b 45 10             	mov    0x10(%rbp),%eax
     f3c:	83 f8 02             	cmp    $0x2,%eax
     f3f:	0f 85 19 01 00 00    	jne    105e <try_place+0x105e>
     f45:	48 8d 95 08 ff ff ff 	lea    -0xf8(%rbp),%rdx
     f4c:	48 8d 85 10 ff ff ff 	lea    -0xf0(%rbp),%rax
     f53:	48 89 d6             	mov    %rdx,%rsi
     f56:	48 89 c7             	mov    %rax,%rdi
     f59:	e8 a2 43 00 00       	callq  5300 <comp_td_costs>
     f5e:	f3 0f 10 85 10 ff ff 	movss  -0xf0(%rbp),%xmm0
     f65:	ff 
     f66:	f3 0f 10 8d 18 ff ff 	movss  -0xe8(%rbp),%xmm1
     f6d:	ff 
     f6e:	f3 0f 5c c1          	subss  %xmm1,%xmm0
     f72:	f3 0f 10 0d 00 00 00 	movss  0x0(%rip),%xmm1        # f7a <try_place+0xf7a>
     f79:	00 
     f7a:	0f 54 c1             	andps  %xmm1,%xmm0
     f7d:	0f 14 c0             	unpcklps %xmm0,%xmm0
     f80:	0f 5a c0             	cvtps2pd %xmm0,%xmm0
     f83:	f3 0f 10 8d 18 ff ff 	movss  -0xe8(%rbp),%xmm1
     f8a:	ff 
     f8b:	0f 14 c9             	unpcklps %xmm1,%xmm1
     f8e:	0f 5a c9             	cvtps2pd %xmm1,%xmm1
     f91:	f2 0f 10 15 00 00 00 	movsd  0x0(%rip),%xmm2        # f99 <try_place+0xf99>
     f98:	00 
     f99:	f2 0f 59 ca          	mulsd  %xmm2,%xmm1
     f9d:	66 0f 2e c1          	ucomisd %xmm1,%xmm0
     fa1:	76 35                	jbe    fd8 <try_place+0xfd8>
     fa3:	f3 0f 10 85 18 ff ff 	movss  -0xe8(%rbp),%xmm0
     faa:	ff 
     fab:	0f 14 c0             	unpcklps %xmm0,%xmm0
     fae:	0f 5a c8             	cvtps2pd %xmm0,%xmm1
     fb1:	f3 0f 10 85 10 ff ff 	movss  -0xf0(%rbp),%xmm0
     fb8:	ff 
     fb9:	0f 14 c0             	unpcklps %xmm0,%xmm0
     fbc:	0f 5a c0             	cvtps2pd %xmm0,%xmm0
     fbf:	bf 00 00 00 00       	mov    $0x0,%edi
     fc4:	b8 02 00 00 00       	mov    $0x2,%eax
     fc9:	e8 00 00 00 00       	callq  fce <try_place+0xfce>
     fce:	bf 01 00 00 00       	mov    $0x1,%edi
     fd3:	e8 00 00 00 00       	callq  fd8 <try_place+0xfd8>
     fd8:	f3 0f 10 85 08 ff ff 	movss  -0xf8(%rbp),%xmm0
     fdf:	ff 
     fe0:	f3 0f 10 8d 0c ff ff 	movss  -0xf4(%rbp),%xmm1
     fe7:	ff 
     fe8:	f3 0f 5c c1          	subss  %xmm1,%xmm0
     fec:	f3 0f 10 0d 00 00 00 	movss  0x0(%rip),%xmm1        # ff4 <try_place+0xff4>
     ff3:	00 
     ff4:	0f 54 c1             	andps  %xmm1,%xmm0
     ff7:	0f 14 c0             	unpcklps %xmm0,%xmm0
     ffa:	0f 5a c0             	cvtps2pd %xmm0,%xmm0
     ffd:	f3 0f 10 8d 0c ff ff 	movss  -0xf4(%rbp),%xmm1
    1004:	ff 
    1005:	0f 14 c9             	unpcklps %xmm1,%xmm1
    1008:	0f 5a c9             	cvtps2pd %xmm1,%xmm1
    100b:	f2 0f 10 15 00 00 00 	movsd  0x0(%rip),%xmm2        # 1013 <try_place+0x1013>
    1012:	00 
    1013:	f2 0f 59 ca          	mulsd  %xmm2,%xmm1
    1017:	66 0f 2e c1          	ucomisd %xmm1,%xmm0
    101b:	76 35                	jbe    1052 <try_place+0x1052>
    101d:	f3 0f 10 85 0c ff ff 	movss  -0xf4(%rbp),%xmm0
    1024:	ff 
    1025:	0f 14 c0             	unpcklps %xmm0,%xmm0
    1028:	0f 5a c8             	cvtps2pd %xmm0,%xmm1
    102b:	f3 0f 10 85 08 ff ff 	movss  -0xf8(%rbp),%xmm0
    1032:	ff 
    1033:	0f 14 c0             	unpcklps %xmm0,%xmm0
    1036:	0f 5a c0             	cvtps2pd %xmm0,%xmm0
    1039:	bf 00 00 00 00       	mov    $0x0,%edi
    103e:	b8 02 00 00 00       	mov    $0x2,%eax
    1043:	e8 00 00 00 00       	callq  1048 <try_place+0x1048>
    1048:	bf 01 00 00 00       	mov    $0x1,%edi
    104d:	e8 00 00 00 00       	callq  1052 <try_place+0x1052>
    1052:	8b 85 10 ff ff ff    	mov    -0xf0(%rbp),%eax
    1058:	89 85 18 ff ff ff    	mov    %eax,-0xe8(%rbp)
    105e:	8b 45 10             	mov    0x10(%rbp),%eax
    1061:	85 c0                	test   %eax,%eax
    1063:	75 0c                	jne    1071 <try_place+0x1071>
    1065:	8b 85 3c ff ff ff    	mov    -0xc4(%rbp),%eax
    106b:	89 85 1c ff ff ff    	mov    %eax,-0xe4(%rbp)
    1071:	c7 45 bc 00 00 00 00 	movl   $0x0,-0x44(%rbp)
    1078:	8b 45 c0             	mov    -0x40(%rbp),%eax
    107b:	01 45 cc             	add    %eax,-0x34(%rbp)
    107e:	f3 0f 2a 45 c4       	cvtsi2ssl -0x3c(%rbp),%xmm0
    1083:	f3 0f 2a 4d c0       	cvtsi2ssl -0x40(%rbp),%xmm1
    1088:	f3 0f 5e c1          	divss  %xmm1,%xmm0
    108c:	f3 0f 11 85 38 ff ff 	movss  %xmm0,-0xc8(%rbp)
    1093:	ff 
    1094:	83 7d c4 00          	cmpl   $0x0,-0x3c(%rbp)
    1098:	75 4e                	jne    10e8 <try_place+0x10e8>
    109a:	f3 0f 10 85 1c ff ff 	movss  -0xe4(%rbp),%xmm0
    10a1:	ff 
    10a2:	0f 14 c0             	unpcklps %xmm0,%xmm0
    10a5:	0f 5a c0             	cvtps2pd %xmm0,%xmm0
    10a8:	f2 0f 11 45 a0       	movsd  %xmm0,-0x60(%rbp)
    10ad:	f3 0f 10 85 14 ff ff 	movss  -0xec(%rbp),%xmm0
    10b4:	ff 
    10b5:	0f 14 c0             	unpcklps %xmm0,%xmm0
    10b8:	0f 5a c0             	cvtps2pd %xmm0,%xmm0
    10bb:	f2 0f 11 45 98       	movsd  %xmm0,-0x68(%rbp)
    10c0:	f3 0f 10 85 18 ff ff 	movss  -0xe8(%rbp),%xmm0
    10c7:	ff 
    10c8:	0f 14 c0             	unpcklps %xmm0,%xmm0
    10cb:	0f 5a c0             	cvtps2pd %xmm0,%xmm0
    10ce:	f2 0f 11 45 90       	movsd  %xmm0,-0x70(%rbp)
    10d3:	f3 0f 10 85 0c ff ff 	movss  -0xf4(%rbp),%xmm0
    10da:	ff 
    10db:	0f 14 c0             	unpcklps %xmm0,%xmm0
    10de:	0f 5a c0             	cvtps2pd %xmm0,%xmm0
    10e1:	f2 0f 11 45 88       	movsd  %xmm0,-0x78(%rbp)
    10e6:	eb 6c                	jmp    1154 <try_place+0x1154>
    10e8:	f2 0f 2a 45 c4       	cvtsi2sdl -0x3c(%rbp),%xmm0
    10ed:	f2 0f 10 4d a0       	movsd  -0x60(%rbp),%xmm1
    10f2:	66 0f 28 d1          	movapd %xmm1,%xmm2
    10f6:	f2 0f 5e d0          	divsd  %xmm0,%xmm2
    10fa:	66 0f 28 c2          	movapd %xmm2,%xmm0
    10fe:	f2 0f 11 45 a0       	movsd  %xmm0,-0x60(%rbp)
    1103:	f2 0f 2a 45 c4       	cvtsi2sdl -0x3c(%rbp),%xmm0
    1108:	f2 0f 10 4d 98       	movsd  -0x68(%rbp),%xmm1
    110d:	66 0f 28 d1          	movapd %xmm1,%xmm2
    1111:	f2 0f 5e d0          	divsd  %xmm0,%xmm2
    1115:	66 0f 28 c2          	movapd %xmm2,%xmm0
    1119:	f2 0f 11 45 98       	movsd  %xmm0,-0x68(%rbp)
    111e:	f2 0f 2a 45 c4       	cvtsi2sdl -0x3c(%rbp),%xmm0
    1123:	f2 0f 10 4d 90       	movsd  -0x70(%rbp),%xmm1
    1128:	66 0f 28 d1          	movapd %xmm1,%xmm2
    112c:	f2 0f 5e d0          	divsd  %xmm0,%xmm2
    1130:	66 0f 28 c2          	movapd %xmm2,%xmm0
    1134:	f2 0f 11 45 90       	movsd  %xmm0,-0x70(%rbp)
    1139:	f2 0f 2a 45 c4       	cvtsi2sdl -0x3c(%rbp),%xmm0
    113e:	f2 0f 10 4d 88       	movsd  -0x78(%rbp),%xmm1
    1143:	66 0f 28 d1          	movapd %xmm1,%xmm2
    1147:	f2 0f 5e d0          	divsd  %xmm0,%xmm2
    114b:	66 0f 28 c2          	movapd %xmm2,%xmm0
    114f:	f2 0f 11 45 88       	movsd  %xmm0,-0x78(%rbp)
    1154:	48 8b 55 a0          	mov    -0x60(%rbp),%rdx
    1158:	48 8b 45 80          	mov    -0x80(%rbp),%rax
    115c:	8b 4d c4             	mov    -0x3c(%rbp),%ecx
    115f:	48 89 95 70 fd ff ff 	mov    %rdx,-0x290(%rbp)
    1166:	f2 0f 10 8d 70 fd ff 	movsd  -0x290(%rbp),%xmm1
    116d:	ff 
    116e:	48 89 85 70 fd ff ff 	mov    %rax,-0x290(%rbp)
    1175:	f2 0f 10 85 70 fd ff 	movsd  -0x290(%rbp),%xmm0
    117c:	ff 
    117d:	89 cf                	mov    %ecx,%edi
    117f:	e8 84 0f 00 00       	callq  2108 <get_std_dev>
    1184:	f2 0f 11 85 70 fd ff 	movsd  %xmm0,-0x290(%rbp)
    118b:	ff 
    118c:	48 8b 85 70 fd ff ff 	mov    -0x290(%rbp),%rax
    1193:	48 89 85 30 ff ff ff 	mov    %rax,-0xd0(%rbp)
    119a:	f3 0f 10 ad 60 ff ff 	movss  -0xa0(%rbp),%xmm5
    11a1:	ff 
    11a2:	0f 5a ed             	cvtps2pd %xmm5,%xmm5
    11a5:	f3 0f 10 85 20 ff ff 	movss  -0xe0(%rbp),%xmm0
    11ac:	ff 
    11ad:	0f 14 c0             	unpcklps %xmm0,%xmm0
    11b0:	0f 5a e0             	cvtps2pd %xmm0,%xmm4
    11b3:	f3 0f 10 9d 38 ff ff 	movss  -0xc8(%rbp),%xmm3
    11ba:	ff 
    11bb:	0f 5a db             	cvtps2pd %xmm3,%xmm3
    11be:	f3 0f 10 55 b8       	movss  -0x48(%rbp),%xmm2
    11c3:	0f 5a d2             	cvtps2pd %xmm2,%xmm2
    11c6:	f3 0f 10 4d b4       	movss  -0x4c(%rbp),%xmm1
    11cb:	0f 5a c9             	cvtps2pd %xmm1,%xmm1
    11ce:	f3 0f 10 85 24 ff ff 	movss  -0xdc(%rbp),%xmm0
    11d5:	ff 
    11d6:	0f 14 c0             	unpcklps %xmm0,%xmm0
    11d9:	0f 5a c0             	cvtps2pd %xmm0,%xmm0
    11dc:	44 8b 45 cc          	mov    -0x34(%rbp),%r8d
    11e0:	48 8b 7d 88          	mov    -0x78(%rbp),%rdi
    11e4:	48 8b 4d 90          	mov    -0x70(%rbp),%rcx
    11e8:	48 8b 55 98          	mov    -0x68(%rbp),%rdx
    11ec:	48 8b 45 a0          	mov    -0x60(%rbp),%rax
    11f0:	f2 0f 11 6c 24 10    	movsd  %xmm5,0x10(%rsp)
    11f6:	f2 0f 11 64 24 08    	movsd  %xmm4,0x8(%rsp)
    11fc:	48 8b b5 30 ff ff ff 	mov    -0xd0(%rbp),%rsi
    1203:	48 89 34 24          	mov    %rsi,(%rsp)
    1207:	44 89 c6             	mov    %r8d,%esi
    120a:	66 0f 28 fb          	movapd %xmm3,%xmm7
    120e:	66 0f 28 f2          	movapd %xmm2,%xmm6
    1212:	66 0f 28 e9          	movapd %xmm1,%xmm5
    1216:	48 89 bd 70 fd ff ff 	mov    %rdi,-0x290(%rbp)
    121d:	f2 0f 10 a5 70 fd ff 	movsd  -0x290(%rbp),%xmm4
    1224:	ff 
    1225:	48 89 8d 70 fd ff ff 	mov    %rcx,-0x290(%rbp)
    122c:	f2 0f 10 9d 70 fd ff 	movsd  -0x290(%rbp),%xmm3
    1233:	ff 
    1234:	48 89 95 70 fd ff ff 	mov    %rdx,-0x290(%rbp)
    123b:	f2 0f 10 95 70 fd ff 	movsd  -0x290(%rbp),%xmm2
    1242:	ff 
    1243:	48 89 85 70 fd ff ff 	mov    %rax,-0x290(%rbp)
    124a:	f2 0f 10 8d 70 fd ff 	movsd  -0x290(%rbp),%xmm1
    1251:	ff 
    1252:	bf 00 00 00 00       	mov    $0x0,%edi
    1257:	b8 08 00 00 00       	mov    $0x8,%eax
    125c:	e8 00 00 00 00       	callq  1261 <try_place+0x1261>
    1261:	8b 85 24 ff ff ff    	mov    -0xdc(%rbp),%eax
    1267:	89 85 2c ff ff ff    	mov    %eax,-0xd4(%rbp)
    126d:	8b 85 20 ff ff ff    	mov    -0xe0(%rbp),%eax
    1273:	f2 0f 10 85 30 ff ff 	movsd  -0xd0(%rbp),%xmm0
    127a:	ff 
    127b:	66 0f 5a c0          	cvtpd2ps %xmm0,%xmm0
    127f:	8b 95 38 ff ff ff    	mov    -0xc8(%rbp),%edx
    1285:	48 8d 8d 24 ff ff ff 	lea    -0xdc(%rbp),%rcx
    128c:	48 8b 75 58          	mov    0x58(%rbp),%rsi
    1290:	48 89 34 24          	mov    %rsi,(%rsp)
    1294:	48 8b 75 60          	mov    0x60(%rbp),%rsi
    1298:	48 89 74 24 08       	mov    %rsi,0x8(%rsp)
    129d:	8b 75 68             	mov    0x68(%rbp),%esi
    12a0:	89 74 24 10          	mov    %esi,0x10(%rsp)
    12a4:	89 95 7c fd ff ff    	mov    %edx,-0x284(%rbp)
    12aa:	f3 0f 10 95 7c fd ff 	movss  -0x284(%rbp),%xmm2
    12b1:	ff 
    12b2:	89 85 7c fd ff ff    	mov    %eax,-0x284(%rbp)
    12b8:	f3 0f 10 8d 7c fd ff 	movss  -0x284(%rbp),%xmm1
    12bf:	ff 
    12c0:	48 89 cf             	mov    %rcx,%rdi
    12c3:	e8 96 0f 00 00       	callq  225e <update_t>
    12c8:	f3 0f 10 85 24 ff ff 	movss  -0xdc(%rbp),%xmm0
    12cf:	ff 
    12d0:	f3 0f 5e 85 2c ff ff 	divss  -0xd4(%rbp),%xmm0
    12d7:	ff 
    12d8:	0f 14 c0             	unpcklps %xmm0,%xmm0
    12db:	0f 5a c0             	cvtps2pd %xmm0,%xmm0
    12de:	bf 00 00 00 00       	mov    $0x0,%edi
    12e3:	b8 01 00 00 00       	mov    $0x1,%eax
    12e8:	e8 00 00 00 00       	callq  12ed <try_place+0x12ed>
    12ed:	f3 0f 10 65 b8       	movss  -0x48(%rbp),%xmm4
    12f2:	0f 5a e4             	cvtps2pd %xmm4,%xmm4
    12f5:	f3 0f 10 85 24 ff ff 	movss  -0xdc(%rbp),%xmm0
    12fc:	ff 
    12fd:	0f 14 c0             	unpcklps %xmm0,%xmm0
    1300:	0f 5a d8             	cvtps2pd %xmm0,%xmm3
    1303:	f3 0f 10 85 18 ff ff 	movss  -0xe8(%rbp),%xmm0
    130a:	ff 
    130b:	0f 14 c0             	unpcklps %xmm0,%xmm0
    130e:	0f 5a d0             	cvtps2pd %xmm0,%xmm2
    1311:	f3 0f 10 85 14 ff ff 	movss  -0xec(%rbp),%xmm0
    1318:	ff 
    1319:	0f 14 c0             	unpcklps %xmm0,%xmm0
    131c:	0f 5a c8             	cvtps2pd %xmm0,%xmm1
    131f:	f3 0f 10 85 1c ff ff 	movss  -0xe4(%rbp),%xmm0
    1326:	ff 
    1327:	0f 14 c0             	unpcklps %xmm0,%xmm0
    132a:	0f 5a c0             	cvtps2pd %xmm0,%xmm0
    132d:	48 8d 85 c0 fd ff ff 	lea    -0x240(%rbp),%rax
    1334:	be 00 00 00 00       	mov    $0x0,%esi
    1339:	48 89 c7             	mov    %rax,%rdi
    133c:	b8 05 00 00 00       	mov    $0x5,%eax
    1341:	e8 00 00 00 00       	callq  1346 <try_place+0x1346>
    1346:	48 8d 85 c0 fd ff ff 	lea    -0x240(%rbp),%rax
    134d:	b9 00 00 00 00       	mov    $0x0,%ecx
    1352:	ba 01 00 00 00       	mov    $0x1,%edx
    1357:	48 89 c6             	mov    %rax,%rsi
    135a:	bf 00 00 00 00       	mov    $0x0,%edi
    135f:	e8 00 00 00 00       	callq  1364 <try_place+0x1364>
    1364:	8b 85 38 ff ff ff    	mov    -0xc8(%rbp),%eax
    136a:	48 8d 95 20 ff ff ff 	lea    -0xe0(%rbp),%rdx
    1371:	89 85 7c fd ff ff    	mov    %eax,-0x284(%rbp)
    1377:	f3 0f 10 85 7c fd ff 	movss  -0x284(%rbp),%xmm0
    137e:	ff 
    137f:	48 89 d7             	mov    %rdx,%rdi
    1382:	e8 27 0e 00 00       	callq  21ae <update_rlim>
    1387:	8b 45 10             	mov    0x10(%rbp),%eax
    138a:	83 f8 01             	cmp    $0x1,%eax
    138d:	74 08                	je     1397 <try_place+0x1397>
    138f:	8b 45 10             	mov    0x10(%rbp),%eax
    1392:	83 f8 02             	cmp    $0x2,%eax
    1395:	75 47                	jne    13de <try_place+0x13de>
    1397:	f3 0f 10 85 20 ff ff 	movss  -0xe0(%rbp),%xmm0
    139e:	ff 
    139f:	f3 0f 5c 85 44 ff ff 	subss  -0xbc(%rbp),%xmm0
    13a6:	ff 
    13a7:	f3 0f 59 85 40 ff ff 	mulss  -0xc0(%rbp),%xmm0
    13ae:	ff 
    13af:	f3 0f 10 0d 00 00 00 	movss  0x0(%rip),%xmm1        # 13b7 <try_place+0x13b7>
    13b6:	00 
    13b7:	f3 0f 5c c8          	subss  %xmm0,%xmm1
    13bb:	f3 0f 10 45 54       	movss  0x54(%rbp),%xmm0
    13c0:	f3 0f 10 55 4c       	movss  0x4c(%rbp),%xmm2
    13c5:	f3 0f 5c c2          	subss  %xmm2,%xmm0
    13c9:	f3 0f 59 c1          	mulss  %xmm1,%xmm0
    13cd:	f3 0f 10 4d 4c       	movss  0x4c(%rbp),%xmm1
    13d2:	f3 0f 58 c1          	addss  %xmm1,%xmm0
    13d6:	f3 0f 11 85 60 ff ff 	movss  %xmm0,-0xa0(%rbp)
    13dd:	ff 
    13de:	8b 95 1c ff ff ff    	mov    -0xe4(%rbp),%edx
    13e4:	8b 85 24 ff ff ff    	mov    -0xdc(%rbp),%eax
    13ea:	48 8b 4d 58          	mov    0x58(%rbp),%rcx
    13ee:	48 89 0c 24          	mov    %rcx,(%rsp)
    13f2:	48 8b 4d 60          	mov    0x60(%rbp),%rcx
    13f6:	48 89 4c 24 08       	mov    %rcx,0x8(%rsp)
    13fb:	8b 4d 68             	mov    0x68(%rbp),%ecx
    13fe:	89 4c 24 10          	mov    %ecx,0x10(%rsp)
    1402:	89 95 7c fd ff ff    	mov    %edx,-0x284(%rbp)
    1408:	f3 0f 10 8d 7c fd ff 	movss  -0x284(%rbp),%xmm1
    140f:	ff 
    1410:	89 85 7c fd ff ff    	mov    %eax,-0x284(%rbp)
    1416:	f3 0f 10 85 7c fd ff 	movss  -0x284(%rbp),%xmm0
    141d:	ff 
    141e:	e8 6e 0f 00 00       	callq  2391 <exit_crit>
    1423:	85 c0                	test   %eax,%eax
    1425:	0f 84 83 f5 ff ff    	je     9ae <try_place+0x9ae>
    142b:	8b 05 00 00 00 00    	mov    0x0(%rip),%eax        # 1431 <try_place+0x1431>
    1431:	89 85 24 ff ff ff    	mov    %eax,-0xdc(%rbp)
    1437:	b8 00 00 00 00       	mov    $0x0,%eax
    143c:	48 89 45 a0          	mov    %rax,-0x60(%rbp)
    1440:	b8 00 00 00 00       	mov    $0x0,%eax
    1445:	48 89 45 98          	mov    %rax,-0x68(%rbp)
    1449:	b8 00 00 00 00       	mov    $0x0,%eax
    144e:	48 89 45 90          	mov    %rax,-0x70(%rbp)
    1452:	b8 00 00 00 00       	mov    $0x0,%eax
    1457:	48 89 45 80          	mov    %rax,-0x80(%rbp)
    145b:	b8 00 00 00 00       	mov    $0x0,%eax
    1460:	48 89 45 88          	mov    %rax,-0x78(%rbp)
    1464:	c7 45 c4 00 00 00 00 	movl   $0x0,-0x3c(%rbp)
    146b:	8b 45 10             	mov    0x10(%rbp),%eax
    146e:	83 f8 01             	cmp    $0x1,%eax
    1471:	74 0c                	je     147f <try_place+0x147f>
    1473:	8b 45 10             	mov    0x10(%rbp),%eax
    1476:	83 f8 02             	cmp    $0x2,%eax
    1479:	0f 85 6f 01 00 00    	jne    15ee <try_place+0x15ee>
    147f:	8b 45 40             	mov    0x40(%rbp),%eax
    1482:	3b 85 6c ff ff ff    	cmp    -0x94(%rbp),%eax
    1488:	7e 0b                	jle    1495 <try_place+0x1495>
    148a:	8b 45 48             	mov    0x48(%rbp),%eax
    148d:	85 c0                	test   %eax,%eax
    148f:	0f 84 20 01 00 00    	je     15b5 <try_place+0x15b5>
    1495:	f3 0f 10 8d 0c ff ff 	movss  -0xf4(%rbp),%xmm1
    149c:	ff 
    149d:	f3 0f 2a 85 78 ff ff 	cvtsi2ssl -0x88(%rbp),%xmm0
    14a4:	ff 
    14a5:	0f 28 d1             	movaps %xmm1,%xmm2
    14a8:	f3 0f 5e d0          	divss  %xmm0,%xmm2
    14ac:	0f 28 c2             	movaps %xmm2,%xmm0
    14af:	f3 0f 11 45 b4       	movss  %xmm0,-0x4c(%rbp)
    14b4:	8b 45 10             	mov    0x10(%rbp),%eax
    14b7:	83 f8 01             	cmp    $0x1,%eax
    14ba:	75 20                	jne    14dc <try_place+0x14dc>
    14bc:	48 8b 95 b0 fd ff ff 	mov    -0x250(%rbp),%rdx
    14c3:	8b 45 b4             	mov    -0x4c(%rbp),%eax
    14c6:	89 85 7c fd ff ff    	mov    %eax,-0x284(%rbp)
    14cc:	f3 0f 10 85 7c fd ff 	movss  -0x284(%rbp),%xmm0
    14d3:	ff 
    14d4:	48 89 d7             	mov    %rdx,%rdi
    14d7:	e8 00 00 00 00       	callq  14dc <try_place+0x14dc>
    14dc:	48 8b 85 b0 fd ff ff 	mov    -0x250(%rbp),%rax
    14e3:	48 89 c7             	mov    %rax,%rdi
    14e6:	e8 00 00 00 00       	callq  14eb <try_place+0x14eb>
    14eb:	48 8b 85 b8 fd ff ff 	mov    -0x248(%rbp),%rax
    14f2:	0f 57 c0             	xorps  %xmm0,%xmm0
    14f5:	48 89 c7             	mov    %rax,%rdi
    14f8:	e8 00 00 00 00       	callq  14fd <try_place+0x14fd>
    14fd:	f3 0f 11 85 7c fd ff 	movss  %xmm0,-0x284(%rbp)
    1504:	ff 
    1505:	8b 85 7c fd ff ff    	mov    -0x284(%rbp),%eax
    150b:	89 45 b8             	mov    %eax,-0x48(%rbp)
    150e:	48 8b 8d b8 fd ff ff 	mov    -0x248(%rbp),%rcx
    1515:	8b 95 60 ff ff ff    	mov    -0xa0(%rbp),%edx
    151b:	8b 45 b8             	mov    -0x48(%rbp),%eax
    151e:	48 8b 75 10          	mov    0x10(%rbp),%rsi
    1522:	48 89 34 24          	mov    %rsi,(%rsp)
    1526:	48 8b 75 18          	mov    0x18(%rbp),%rsi
    152a:	48 89 74 24 08       	mov    %rsi,0x8(%rsp)
    152f:	48 8b 75 20          	mov    0x20(%rbp),%rsi
    1533:	48 89 74 24 10       	mov    %rsi,0x10(%rsp)
    1538:	48 8b 75 28          	mov    0x28(%rbp),%rsi
    153c:	48 89 74 24 18       	mov    %rsi,0x18(%rsp)
    1541:	48 8b 75 30          	mov    0x30(%rbp),%rsi
    1545:	48 89 74 24 20       	mov    %rsi,0x20(%rsp)
    154a:	48 8b 75 38          	mov    0x38(%rbp),%rsi
    154e:	48 89 74 24 28       	mov    %rsi,0x28(%rsp)
    1553:	48 8b 75 40          	mov    0x40(%rbp),%rsi
    1557:	48 89 74 24 30       	mov    %rsi,0x30(%rsp)
    155c:	48 8b 75 48          	mov    0x48(%rbp),%rsi
    1560:	48 89 74 24 38       	mov    %rsi,0x38(%rsp)
    1565:	48 8b 75 50          	mov    0x50(%rbp),%rsi
    1569:	48 89 74 24 40       	mov    %rsi,0x40(%rsp)
    156e:	89 95 7c fd ff ff    	mov    %edx,-0x284(%rbp)
    1574:	f3 0f 10 8d 7c fd ff 	movss  -0x284(%rbp),%xmm1
    157b:	ff 
    157c:	89 85 7c fd ff ff    	mov    %eax,-0x284(%rbp)
    1582:	f3 0f 10 85 7c fd ff 	movss  -0x284(%rbp),%xmm0
    1589:	ff 
    158a:	48 89 cf             	mov    %rcx,%rdi
    158d:	e8 00 00 00 00       	callq  1592 <try_place+0x1592>
    1592:	48 8d 95 0c ff ff ff 	lea    -0xf4(%rbp),%rdx
    1599:	48 8d 85 18 ff ff ff 	lea    -0xe8(%rbp),%rax
    15a0:	48 89 d6             	mov    %rdx,%rsi
    15a3:	48 89 c7             	mov    %rax,%rdi
    15a6:	e8 55 3d 00 00       	callq  5300 <comp_td_costs>
    15ab:	c7 85 6c ff ff ff 00 	movl   $0x0,-0x94(%rbp)
    15b2:	00 00 00 
    15b5:	83 85 6c ff ff ff 01 	addl   $0x1,-0x94(%rbp)
    15bc:	f3 0f 10 8d 14 ff ff 	movss  -0xec(%rbp),%xmm1
    15c3:	ff 
    15c4:	f3 0f 10 05 00 00 00 	movss  0x0(%rip),%xmm0        # 15cc <try_place+0x15cc>
    15cb:	00 
    15cc:	f3 0f 5e c1          	divss  %xmm1,%xmm0
    15d0:	f3 0f 11 45 b0       	movss  %xmm0,-0x50(%rbp)
    15d5:	f3 0f 10 8d 18 ff ff 	movss  -0xe8(%rbp),%xmm1
    15dc:	ff 
    15dd:	f3 0f 10 05 00 00 00 	movss  0x0(%rip),%xmm0        # 15e5 <try_place+0x15e5>
    15e4:	00 
    15e5:	f3 0f 5e c1          	divss  %xmm1,%xmm0
    15e9:	f3 0f 11 45 ac       	movss  %xmm0,-0x54(%rbp)
    15ee:	c7 85 68 ff ff ff 01 	movl   $0x1,-0x98(%rbp)
    15f5:	00 00 00 
    15f8:	c7 45 c8 00 00 00 00 	movl   $0x0,-0x38(%rbp)
    15ff:	e9 d5 02 00 00       	jmpq   18d9 <try_place+0x18d9>
    1604:	8b 4d 14             	mov    0x14(%rbp),%ecx
    1607:	44 8b 4d 10          	mov    0x10(%rbp),%r9d
    160b:	44 8b 45 3c          	mov    0x3c(%rbp),%r8d
    160f:	4c 8b bd f8 fe ff ff 	mov    -0x108(%rbp),%r15
    1616:	4c 8b b5 00 ff ff ff 	mov    -0x100(%rbp),%r14
    161d:	8b 45 1c             	mov    0x1c(%rbp),%eax
    1620:	41 89 c4             	mov    %eax,%r12d
    1623:	8b 95 20 ff ff ff    	mov    -0xe0(%rbp),%edx
    1629:	8b 85 24 ff ff ff    	mov    -0xdc(%rbp),%eax
    162f:	8b 7d ac             	mov    -0x54(%rbp),%edi
    1632:	8b 75 b0             	mov    -0x50(%rbp),%esi
    1635:	48 8d 9d 18 ff ff ff 	lea    -0xe8(%rbp),%rbx
    163c:	4c 8d 9d 14 ff ff ff 	lea    -0xec(%rbp),%r11
    1643:	4c 8d 95 1c ff ff ff 	lea    -0xe4(%rbp),%r10
    164a:	4c 8b ad 50 ff ff ff 	mov    -0xb0(%rbp),%r13
    1651:	4c 89 6c 24 20       	mov    %r13,0x20(%rsp)
    1656:	4c 8d ad 0c ff ff ff 	lea    -0xf4(%rbp),%r13
    165d:	4c 89 6c 24 18       	mov    %r13,0x18(%rsp)
    1662:	44 89 4c 24 10       	mov    %r9d,0x10(%rsp)
    1667:	44 8b 8d 7c ff ff ff 	mov    -0x84(%rbp),%r9d
    166e:	44 89 4c 24 08       	mov    %r9d,0x8(%rsp)
    1673:	44 89 04 24          	mov    %r8d,(%rsp)
    1677:	89 bd 7c fd ff ff    	mov    %edi,-0x284(%rbp)
    167d:	f3 0f 10 a5 7c fd ff 	movss  -0x284(%rbp),%xmm4
    1684:	ff 
    1685:	89 b5 7c fd ff ff    	mov    %esi,-0x284(%rbp)
    168b:	f3 0f 10 9d 7c fd ff 	movss  -0x284(%rbp),%xmm3
    1692:	ff 
    1693:	89 8d 7c fd ff ff    	mov    %ecx,-0x284(%rbp)
    1699:	f3 0f 10 95 7c fd ff 	movss  -0x284(%rbp),%xmm2
    16a0:	ff 
    16a1:	4d 89 f9             	mov    %r15,%r9
    16a4:	4d 89 f0             	mov    %r14,%r8
    16a7:	44 89 e1             	mov    %r12d,%ecx
    16aa:	89 95 7c fd ff ff    	mov    %edx,-0x284(%rbp)
    16b0:	f3 0f 10 8d 7c fd ff 	movss  -0x284(%rbp),%xmm1
    16b7:	ff 
    16b8:	48 89 da             	mov    %rbx,%rdx
    16bb:	4c 89 de             	mov    %r11,%rsi
    16be:	4c 89 d7             	mov    %r10,%rdi
    16c1:	89 85 7c fd ff ff    	mov    %eax,-0x284(%rbp)
    16c7:	f3 0f 10 85 7c fd ff 	movss  -0x284(%rbp),%xmm0
    16ce:	ff 
    16cf:	e8 81 0f 00 00       	callq  2655 <try_swap>
    16d4:	83 f8 01             	cmp    $0x1,%eax
    16d7:	0f 85 f8 01 00 00    	jne    18d5 <try_place+0x18d5>
    16dd:	83 45 c4 01          	addl   $0x1,-0x3c(%rbp)
    16e1:	f3 0f 10 85 1c ff ff 	movss  -0xe4(%rbp),%xmm0
    16e8:	ff 
    16e9:	0f 14 c0             	unpcklps %xmm0,%xmm0
    16ec:	0f 5a c0             	cvtps2pd %xmm0,%xmm0
    16ef:	f2 0f 10 4d a0       	movsd  -0x60(%rbp),%xmm1
    16f4:	f2 0f 58 c1          	addsd  %xmm1,%xmm0
    16f8:	f2 0f 11 45 a0       	movsd  %xmm0,-0x60(%rbp)
    16fd:	f3 0f 10 85 14 ff ff 	movss  -0xec(%rbp),%xmm0
    1704:	ff 
    1705:	0f 14 c0             	unpcklps %xmm0,%xmm0
    1708:	0f 5a c0             	cvtps2pd %xmm0,%xmm0
    170b:	f2 0f 10 4d 98       	movsd  -0x68(%rbp),%xmm1
    1710:	f2 0f 58 c1          	addsd  %xmm1,%xmm0
    1714:	f2 0f 11 45 98       	movsd  %xmm0,-0x68(%rbp)
    1719:	f3 0f 10 85 0c ff ff 	movss  -0xf4(%rbp),%xmm0
    1720:	ff 
    1721:	0f 14 c0             	unpcklps %xmm0,%xmm0
    1724:	0f 5a c0             	cvtps2pd %xmm0,%xmm0
    1727:	f2 0f 10 4d 88       	movsd  -0x78(%rbp),%xmm1
    172c:	f2 0f 58 c1          	addsd  %xmm1,%xmm0
    1730:	f2 0f 11 45 88       	movsd  %xmm0,-0x78(%rbp)
    1735:	f3 0f 10 85 18 ff ff 	movss  -0xe8(%rbp),%xmm0
    173c:	ff 
    173d:	0f 14 c0             	unpcklps %xmm0,%xmm0
    1740:	0f 5a c0             	cvtps2pd %xmm0,%xmm0
    1743:	f2 0f 10 4d 90       	movsd  -0x70(%rbp),%xmm1
    1748:	f2 0f 58 c1          	addsd  %xmm1,%xmm0
    174c:	f2 0f 11 45 90       	movsd  %xmm0,-0x70(%rbp)
    1751:	f3 0f 10 8d 1c ff ff 	movss  -0xe4(%rbp),%xmm1
    1758:	ff 
    1759:	f3 0f 10 85 1c ff ff 	movss  -0xe4(%rbp),%xmm0
    1760:	ff 
    1761:	f3 0f 59 c1          	mulss  %xmm1,%xmm0
    1765:	0f 14 c0             	unpcklps %xmm0,%xmm0
    1768:	0f 5a c0             	cvtps2pd %xmm0,%xmm0
    176b:	f2 0f 10 4d 80       	movsd  -0x80(%rbp),%xmm1
    1770:	f2 0f 58 c1          	addsd  %xmm1,%xmm0
    1774:	f2 0f 11 45 80       	movsd  %xmm0,-0x80(%rbp)
    1779:	8b 45 10             	mov    0x10(%rbp),%eax
    177c:	83 f8 01             	cmp    $0x1,%eax
    177f:	74 0c                	je     178d <try_place+0x178d>
    1781:	8b 45 10             	mov    0x10(%rbp),%eax
    1784:	83 f8 02             	cmp    $0x2,%eax
    1787:	0f 85 48 01 00 00    	jne    18d5 <try_place+0x18d5>
    178d:	8b 85 68 ff ff ff    	mov    -0x98(%rbp),%eax
    1793:	3b 85 64 ff ff ff    	cmp    -0x9c(%rbp),%eax
    1799:	0f 8c 2f 01 00 00    	jl     18ce <try_place+0x18ce>
    179f:	8b 45 c0             	mov    -0x40(%rbp),%eax
    17a2:	83 e8 01             	sub    $0x1,%eax
    17a5:	3b 45 c8             	cmp    -0x38(%rbp),%eax
    17a8:	0f 84 20 01 00 00    	je     18ce <try_place+0x18ce>
    17ae:	c7 85 68 ff ff ff 00 	movl   $0x0,-0x98(%rbp)
    17b5:	00 00 00 
    17b8:	8b 45 10             	mov    0x10(%rbp),%eax
    17bb:	83 f8 01             	cmp    $0x1,%eax
    17be:	75 3f                	jne    17ff <try_place+0x17ff>
    17c0:	f3 0f 10 8d 0c ff ff 	movss  -0xf4(%rbp),%xmm1
    17c7:	ff 
    17c8:	f3 0f 2a 85 78 ff ff 	cvtsi2ssl -0x88(%rbp),%xmm0
    17cf:	ff 
    17d0:	0f 28 d1             	movaps %xmm1,%xmm2
    17d3:	f3 0f 5e d0          	divss  %xmm0,%xmm2
    17d7:	0f 28 c2             	movaps %xmm2,%xmm0
    17da:	f3 0f 11 45 b4       	movss  %xmm0,-0x4c(%rbp)
    17df:	48 8b 95 b0 fd ff ff 	mov    -0x250(%rbp),%rdx
    17e6:	8b 45 b4             	mov    -0x4c(%rbp),%eax
    17e9:	89 85 7c fd ff ff    	mov    %eax,-0x284(%rbp)
    17ef:	f3 0f 10 85 7c fd ff 	movss  -0x284(%rbp),%xmm0
    17f6:	ff 
    17f7:	48 89 d7             	mov    %rdx,%rdi
    17fa:	e8 00 00 00 00       	callq  17ff <try_place+0x17ff>
    17ff:	48 8b 85 b0 fd ff ff 	mov    -0x250(%rbp),%rax
    1806:	48 89 c7             	mov    %rax,%rdi
    1809:	e8 00 00 00 00       	callq  180e <try_place+0x180e>
    180e:	48 8b 85 b8 fd ff ff 	mov    -0x248(%rbp),%rax
    1815:	0f 57 c0             	xorps  %xmm0,%xmm0
    1818:	48 89 c7             	mov    %rax,%rdi
    181b:	e8 00 00 00 00       	callq  1820 <try_place+0x1820>
    1820:	f3 0f 11 85 7c fd ff 	movss  %xmm0,-0x284(%rbp)
    1827:	ff 
    1828:	8b 85 7c fd ff ff    	mov    -0x284(%rbp),%eax
    182e:	89 45 b8             	mov    %eax,-0x48(%rbp)
    1831:	48 8b 8d b8 fd ff ff 	mov    -0x248(%rbp),%rcx
    1838:	8b 95 60 ff ff ff    	mov    -0xa0(%rbp),%edx
    183e:	8b 45 b8             	mov    -0x48(%rbp),%eax
    1841:	48 8b 75 10          	mov    0x10(%rbp),%rsi
    1845:	48 89 34 24          	mov    %rsi,(%rsp)
    1849:	48 8b 75 18          	mov    0x18(%rbp),%rsi
    184d:	48 89 74 24 08       	mov    %rsi,0x8(%rsp)
    1852:	48 8b 75 20          	mov    0x20(%rbp),%rsi
    1856:	48 89 74 24 10       	mov    %rsi,0x10(%rsp)
    185b:	48 8b 75 28          	mov    0x28(%rbp),%rsi
    185f:	48 89 74 24 18       	mov    %rsi,0x18(%rsp)
    1864:	48 8b 75 30          	mov    0x30(%rbp),%rsi
    1868:	48 89 74 24 20       	mov    %rsi,0x20(%rsp)
    186d:	48 8b 75 38          	mov    0x38(%rbp),%rsi
    1871:	48 89 74 24 28       	mov    %rsi,0x28(%rsp)
    1876:	48 8b 75 40          	mov    0x40(%rbp),%rsi
    187a:	48 89 74 24 30       	mov    %rsi,0x30(%rsp)
    187f:	48 8b 75 48          	mov    0x48(%rbp),%rsi
    1883:	48 89 74 24 38       	mov    %rsi,0x38(%rsp)
    1888:	48 8b 75 50          	mov    0x50(%rbp),%rsi
    188c:	48 89 74 24 40       	mov    %rsi,0x40(%rsp)
    1891:	89 95 7c fd ff ff    	mov    %edx,-0x284(%rbp)
    1897:	f3 0f 10 8d 7c fd ff 	movss  -0x284(%rbp),%xmm1
    189e:	ff 
    189f:	89 85 7c fd ff ff    	mov    %eax,-0x284(%rbp)
    18a5:	f3 0f 10 85 7c fd ff 	movss  -0x284(%rbp),%xmm0
    18ac:	ff 
    18ad:	48 89 cf             	mov    %rcx,%rdi
    18b0:	e8 00 00 00 00       	callq  18b5 <try_place+0x18b5>
    18b5:	48 8d 95 0c ff ff ff 	lea    -0xf4(%rbp),%rdx
    18bc:	48 8d 85 18 ff ff ff 	lea    -0xe8(%rbp),%rax
    18c3:	48 89 d6             	mov    %rdx,%rsi
    18c6:	48 89 c7             	mov    %rax,%rdi
    18c9:	e8 32 3a 00 00       	callq  5300 <comp_td_costs>
    18ce:	83 85 68 ff ff ff 01 	addl   $0x1,-0x98(%rbp)
    18d5:	83 45 c8 01          	addl   $0x1,-0x38(%rbp)
    18d9:	8b 45 c8             	mov    -0x38(%rbp),%eax
    18dc:	3b 45 c0             	cmp    -0x40(%rbp),%eax
    18df:	0f 8c 1f fd ff ff    	jl     1604 <try_place+0x1604>
    18e5:	8b 45 c0             	mov    -0x40(%rbp),%eax
    18e8:	01 45 cc             	add    %eax,-0x34(%rbp)
    18eb:	f3 0f 2a 45 c4       	cvtsi2ssl -0x3c(%rbp),%xmm0
    18f0:	f3 0f 2a 4d c0       	cvtsi2ssl -0x40(%rbp),%xmm1
    18f5:	f3 0f 5e c1          	divss  %xmm1,%xmm0
    18f9:	f3 0f 11 85 38 ff ff 	movss  %xmm0,-0xc8(%rbp)
    1900:	ff 
    1901:	83 7d c4 00          	cmpl   $0x0,-0x3c(%rbp)
    1905:	75 4e                	jne    1955 <try_place+0x1955>
    1907:	f3 0f 10 85 1c ff ff 	movss  -0xe4(%rbp),%xmm0
    190e:	ff 
    190f:	0f 14 c0             	unpcklps %xmm0,%xmm0
    1912:	0f 5a c0             	cvtps2pd %xmm0,%xmm0
    1915:	f2 0f 11 45 a0       	movsd  %xmm0,-0x60(%rbp)
    191a:	f3 0f 10 85 14 ff ff 	movss  -0xec(%rbp),%xmm0
    1921:	ff 
    1922:	0f 14 c0             	unpcklps %xmm0,%xmm0
    1925:	0f 5a c0             	cvtps2pd %xmm0,%xmm0
    1928:	f2 0f 11 45 98       	movsd  %xmm0,-0x68(%rbp)
    192d:	f3 0f 10 85 0c ff ff 	movss  -0xf4(%rbp),%xmm0
    1934:	ff 
    1935:	0f 14 c0             	unpcklps %xmm0,%xmm0
    1938:	0f 5a c0             	cvtps2pd %xmm0,%xmm0
    193b:	f2 0f 11 45 88       	movsd  %xmm0,-0x78(%rbp)
    1940:	f3 0f 10 85 18 ff ff 	movss  -0xe8(%rbp),%xmm0
    1947:	ff 
    1948:	0f 14 c0             	unpcklps %xmm0,%xmm0
    194b:	0f 5a c0             	cvtps2pd %xmm0,%xmm0
    194e:	f2 0f 11 45 90       	movsd  %xmm0,-0x70(%rbp)
    1953:	eb 6c                	jmp    19c1 <try_place+0x19c1>
    1955:	f2 0f 2a 45 c4       	cvtsi2sdl -0x3c(%rbp),%xmm0
    195a:	f2 0f 10 4d a0       	movsd  -0x60(%rbp),%xmm1
    195f:	66 0f 28 d1          	movapd %xmm1,%xmm2
    1963:	f2 0f 5e d0          	divsd  %xmm0,%xmm2
    1967:	66 0f 28 c2          	movapd %xmm2,%xmm0
    196b:	f2 0f 11 45 a0       	movsd  %xmm0,-0x60(%rbp)
    1970:	f2 0f 2a 45 c4       	cvtsi2sdl -0x3c(%rbp),%xmm0
    1975:	f2 0f 10 4d 98       	movsd  -0x68(%rbp),%xmm1
    197a:	66 0f 28 d1          	movapd %xmm1,%xmm2
    197e:	f2 0f 5e d0          	divsd  %xmm0,%xmm2
    1982:	66 0f 28 c2          	movapd %xmm2,%xmm0
    1986:	f2 0f 11 45 98       	movsd  %xmm0,-0x68(%rbp)
    198b:	f2 0f 2a 45 c4       	cvtsi2sdl -0x3c(%rbp),%xmm0
    1990:	f2 0f 10 4d 88       	movsd  -0x78(%rbp),%xmm1
    1995:	66 0f 28 d1          	movapd %xmm1,%xmm2
    1999:	f2 0f 5e d0          	divsd  %xmm0,%xmm2
    199d:	66 0f 28 c2          	movapd %xmm2,%xmm0
    19a1:	f2 0f 11 45 88       	movsd  %xmm0,-0x78(%rbp)
    19a6:	f2 0f 2a 45 c4       	cvtsi2sdl -0x3c(%rbp),%xmm0
    19ab:	f2 0f 10 4d 90       	movsd  -0x70(%rbp),%xmm1
    19b0:	66 0f 28 d1          	movapd %xmm1,%xmm2
    19b4:	f2 0f 5e d0          	divsd  %xmm0,%xmm2
    19b8:	66 0f 28 c2          	movapd %xmm2,%xmm0
    19bc:	f2 0f 11 45 90       	movsd  %xmm0,-0x70(%rbp)
    19c1:	48 8b 55 a0          	mov    -0x60(%rbp),%rdx
    19c5:	48 8b 45 80          	mov    -0x80(%rbp),%rax
    19c9:	8b 4d c4             	mov    -0x3c(%rbp),%ecx
    19cc:	48 89 95 70 fd ff ff 	mov    %rdx,-0x290(%rbp)
    19d3:	f2 0f 10 8d 70 fd ff 	movsd  -0x290(%rbp),%xmm1
    19da:	ff 
    19db:	48 89 85 70 fd ff ff 	mov    %rax,-0x290(%rbp)
    19e2:	f2 0f 10 85 70 fd ff 	movsd  -0x290(%rbp),%xmm0
    19e9:	ff 
    19ea:	89 cf                	mov    %ecx,%edi
    19ec:	e8 17 07 00 00       	callq  2108 <get_std_dev>
    19f1:	f2 0f 11 85 70 fd ff 	movsd  %xmm0,-0x290(%rbp)
    19f8:	ff 
    19f9:	48 8b 85 70 fd ff ff 	mov    -0x290(%rbp),%rax
    1a00:	48 89 85 30 ff ff ff 	mov    %rax,-0xd0(%rbp)
    1a07:	f3 0f 10 ad 60 ff ff 	movss  -0xa0(%rbp),%xmm5
    1a0e:	ff 
    1a0f:	0f 5a ed             	cvtps2pd %xmm5,%xmm5
    1a12:	f3 0f 10 85 20 ff ff 	movss  -0xe0(%rbp),%xmm0
    1a19:	ff 
    1a1a:	0f 14 c0             	unpcklps %xmm0,%xmm0
    1a1d:	0f 5a e0             	cvtps2pd %xmm0,%xmm4
    1a20:	f3 0f 10 9d 38 ff ff 	movss  -0xc8(%rbp),%xmm3
    1a27:	ff 
    1a28:	0f 5a db             	cvtps2pd %xmm3,%xmm3
    1a2b:	f3 0f 10 55 b8       	movss  -0x48(%rbp),%xmm2
    1a30:	0f 5a d2             	cvtps2pd %xmm2,%xmm2
    1a33:	f3 0f 10 4d b4       	movss  -0x4c(%rbp),%xmm1
    1a38:	0f 5a c9             	cvtps2pd %xmm1,%xmm1
    1a3b:	f3 0f 10 85 24 ff ff 	movss  -0xdc(%rbp),%xmm0
    1a42:	ff 
    1a43:	0f 14 c0             	unpcklps %xmm0,%xmm0
    1a46:	0f 5a c0             	cvtps2pd %xmm0,%xmm0
    1a49:	44 8b 45 cc          	mov    -0x34(%rbp),%r8d
    1a4d:	48 8b 7d 88          	mov    -0x78(%rbp),%rdi
    1a51:	48 8b 4d 90          	mov    -0x70(%rbp),%rcx
    1a55:	48 8b 55 98          	mov    -0x68(%rbp),%rdx
    1a59:	48 8b 45 a0          	mov    -0x60(%rbp),%rax
    1a5d:	f2 0f 11 6c 24 10    	movsd  %xmm5,0x10(%rsp)
    1a63:	f2 0f 11 64 24 08    	movsd  %xmm4,0x8(%rsp)
    1a69:	48 8b b5 30 ff ff ff 	mov    -0xd0(%rbp),%rsi
    1a70:	48 89 34 24          	mov    %rsi,(%rsp)
    1a74:	44 89 c6             	mov    %r8d,%esi
    1a77:	66 0f 28 fb          	movapd %xmm3,%xmm7
    1a7b:	66 0f 28 f2          	movapd %xmm2,%xmm6
    1a7f:	66 0f 28 e9          	movapd %xmm1,%xmm5
    1a83:	48 89 bd 70 fd ff ff 	mov    %rdi,-0x290(%rbp)
    1a8a:	f2 0f 10 a5 70 fd ff 	movsd  -0x290(%rbp),%xmm4
    1a91:	ff 
    1a92:	48 89 8d 70 fd ff ff 	mov    %rcx,-0x290(%rbp)
    1a99:	f2 0f 10 9d 70 fd ff 	movsd  -0x290(%rbp),%xmm3
    1aa0:	ff 
    1aa1:	48 89 95 70 fd ff ff 	mov    %rdx,-0x290(%rbp)
    1aa8:	f2 0f 10 95 70 fd ff 	movsd  -0x290(%rbp),%xmm2
    1aaf:	ff 
    1ab0:	48 89 85 70 fd ff ff 	mov    %rax,-0x290(%rbp)
    1ab7:	f2 0f 10 8d 70 fd ff 	movsd  -0x290(%rbp),%xmm1
    1abe:	ff 
    1abf:	bf 00 00 00 00       	mov    $0x0,%edi
    1ac4:	b8 08 00 00 00       	mov    $0x8,%eax
    1ac9:	e8 00 00 00 00       	callq  1ace <try_place+0x1ace>
    1ace:	8b 95 0c ff ff ff    	mov    -0xf4(%rbp),%edx
    1ad4:	44 8b 45 10          	mov    0x10(%rbp),%r8d
    1ad8:	8b 75 3c             	mov    0x3c(%rbp),%esi
    1adb:	8b 45 1c             	mov    0x1c(%rbp),%eax
    1ade:	89 c7                	mov    %eax,%edi
    1ae0:	8b 8d 18 ff ff ff    	mov    -0xe8(%rbp),%ecx
    1ae6:	8b 85 14 ff ff ff    	mov    -0xec(%rbp),%eax
    1aec:	89 95 7c fd ff ff    	mov    %edx,-0x284(%rbp)
    1af2:	f3 0f 10 95 7c fd ff 	movss  -0x284(%rbp),%xmm2
    1af9:	ff 
    1afa:	44 89 c2             	mov    %r8d,%edx
    1afd:	89 8d 7c fd ff ff    	mov    %ecx,-0x284(%rbp)
    1b03:	f3 0f 10 8d 7c fd ff 	movss  -0x284(%rbp),%xmm1
    1b0a:	ff 
    1b0b:	89 85 7c fd ff ff    	mov    %eax,-0x284(%rbp)
    1b11:	f3 0f 10 85 7c fd ff 	movss  -0x284(%rbp),%xmm0
    1b18:	ff 
    1b19:	e8 25 78 00 00       	callq  9343 <check_place>
    1b1e:	8b 45 44             	mov    0x44(%rbp),%eax
    1b21:	85 c0                	test   %eax,%eax
    1b23:	0f 84 ba 00 00 00    	je     1be3 <try_place+0x1be3>
    1b29:	8b 45 10             	mov    0x10(%rbp),%eax
    1b2c:	85 c0                	test   %eax,%eax
    1b2e:	0f 85 af 00 00 00    	jne    1be3 <try_place+0x1be3>
    1b34:	c7 85 74 ff ff ff 00 	movl   $0x0,-0x8c(%rbp)
    1b3b:	00 00 00 
    1b3e:	eb 78                	jmp    1bb8 <try_place+0x1bb8>
    1b40:	c7 85 70 ff ff ff 01 	movl   $0x1,-0x90(%rbp)
    1b47:	00 00 00 
    1b4a:	eb 39                	jmp    1b85 <try_place+0x1b85>
    1b4c:	48 8b 05 00 00 00 00 	mov    0x0(%rip),%rax        # 1b53 <try_place+0x1b53>
    1b53:	8b 95 74 ff ff ff    	mov    -0x8c(%rbp),%edx
    1b59:	48 63 d2             	movslq %edx,%rdx
    1b5c:	48 c1 e2 03          	shl    $0x3,%rdx
    1b60:	48 01 d0             	add    %rdx,%rax
    1b63:	48 8b 00             	mov    (%rax),%rax
    1b66:	8b 95 70 ff ff ff    	mov    -0x90(%rbp),%edx
    1b6c:	48 63 d2             	movslq %edx,%rdx
    1b6f:	48 c1 e2 02          	shl    $0x2,%rdx
    1b73:	48 01 c2             	add    %rax,%rdx
    1b76:	8b 05 00 00 00 00    	mov    0x0(%rip),%eax        # 1b7c <try_place+0x1b7c>
    1b7c:	89 02                	mov    %eax,(%rdx)
    1b7e:	83 85 70 ff ff ff 01 	addl   $0x1,-0x90(%rbp)
    1b85:	48 8b 0d 00 00 00 00 	mov    0x0(%rip),%rcx        # 1b8c <try_place+0x1b8c>
    1b8c:	8b 85 74 ff ff ff    	mov    -0x8c(%rbp),%eax
    1b92:	48 63 d0             	movslq %eax,%rdx
    1b95:	48 89 d0             	mov    %rdx,%rax
    1b98:	48 c1 e0 02          	shl    $0x2,%rax
    1b9c:	48 01 d0             	add    %rdx,%rax
    1b9f:	48 c1 e0 03          	shl    $0x3,%rax
    1ba3:	48 01 c8             	add    %rcx,%rax
    1ba6:	8b 40 08             	mov    0x8(%rax),%eax
    1ba9:	3b 85 70 ff ff ff    	cmp    -0x90(%rbp),%eax
    1baf:	7d 9b                	jge    1b4c <try_place+0x1b4c>
    1bb1:	83 85 74 ff ff ff 01 	addl   $0x1,-0x8c(%rbp)
    1bb8:	8b 05 00 00 00 00    	mov    0x0(%rip),%eax        # 1bbe <try_place+0x1bbe>
    1bbe:	39 85 74 ff ff ff    	cmp    %eax,-0x8c(%rbp)
    1bc4:	0f 8c 76 ff ff ff    	jl     1b40 <try_place+0x1b40>
    1bca:	48 8d 95 0c ff ff ff 	lea    -0xf4(%rbp),%rdx
    1bd1:	48 8d 85 18 ff ff ff 	lea    -0xe8(%rbp),%rax
    1bd8:	48 89 d6             	mov    %rdx,%rsi
    1bdb:	48 89 c7             	mov    %rax,%rdi
    1bde:	e8 1d 37 00 00       	callq  5300 <comp_td_costs>
    1be3:	8b 45 10             	mov    0x10(%rbp),%eax
    1be6:	83 f8 01             	cmp    $0x1,%eax
    1be9:	74 0f                	je     1bfa <try_place+0x1bfa>
    1beb:	8b 45 10             	mov    0x10(%rbp),%eax
    1bee:	83 f8 02             	cmp    $0x2,%eax
    1bf1:	74 07                	je     1bfa <try_place+0x1bfa>
    1bf3:	8b 45 44             	mov    0x44(%rbp),%eax
    1bf6:	85 c0                	test   %eax,%eax
    1bf8:	74 5d                	je     1c57 <try_place+0x1c57>
    1bfa:	48 8b 05 00 00 00 00 	mov    0x0(%rip),%rax        # 1c01 <try_place+0x1c01>
    1c01:	48 89 85 b0 fd ff ff 	mov    %rax,-0x250(%rbp)
    1c08:	48 8b 85 b0 fd ff ff 	mov    -0x250(%rbp),%rax
    1c0f:	48 89 c7             	mov    %rax,%rdi
    1c12:	e8 00 00 00 00       	callq  1c17 <try_place+0x1c17>
    1c17:	48 8b 85 b8 fd ff ff 	mov    -0x248(%rbp),%rax
    1c1e:	0f 57 c0             	xorps  %xmm0,%xmm0
    1c21:	48 89 c7             	mov    %rax,%rdi
    1c24:	e8 00 00 00 00       	callq  1c29 <try_place+0x1c29>
    1c29:	f3 0f 11 85 7c fd ff 	movss  %xmm0,-0x284(%rbp)
    1c30:	ff 
    1c31:	8b 85 7c fd ff ff    	mov    -0x284(%rbp),%eax
    1c37:	89 85 28 ff ff ff    	mov    %eax,-0xd8(%rbp)
    1c3d:	f3 0f 10 85 28 ff ff 	movss  -0xd8(%rbp),%xmm0
    1c44:	ff 
    1c45:	0f 5a c0             	cvtps2pd %xmm0,%xmm0
    1c48:	bf 00 00 00 00       	mov    $0x0,%edi
    1c4d:	b8 01 00 00 00       	mov    $0x1,%eax
    1c52:	e8 00 00 00 00       	callq  1c57 <try_place+0x1c57>
    1c57:	f3 0f 10 5d b8       	movss  -0x48(%rbp),%xmm3
    1c5c:	0f 5a db             	cvtps2pd %xmm3,%xmm3
    1c5f:	f3 0f 10 85 18 ff ff 	movss  -0xe8(%rbp),%xmm0
    1c66:	ff 
    1c67:	0f 14 c0             	unpcklps %xmm0,%xmm0
    1c6a:	0f 5a d0             	cvtps2pd %xmm0,%xmm2
    1c6d:	f3 0f 10 85 14 ff ff 	movss  -0xec(%rbp),%xmm0
    1c74:	ff 
    1c75:	0f 14 c0             	unpcklps %xmm0,%xmm0
    1c78:	0f 5a c8             	cvtps2pd %xmm0,%xmm1
    1c7b:	f3 0f 10 85 1c ff ff 	movss  -0xe4(%rbp),%xmm0
    1c82:	ff 
    1c83:	0f 14 c0             	unpcklps %xmm0,%xmm0
    1c86:	0f 5a c0             	cvtps2pd %xmm0,%xmm0
    1c89:	8b 95 4c ff ff ff    	mov    -0xb4(%rbp),%edx
    1c8f:	48 8d 85 c0 fd ff ff 	lea    -0x240(%rbp),%rax
    1c96:	be 00 00 00 00       	mov    $0x0,%esi
    1c9b:	48 89 c7             	mov    %rax,%rdi
    1c9e:	b8 04 00 00 00       	mov    $0x4,%eax
    1ca3:	e8 00 00 00 00       	callq  1ca8 <try_place+0x1ca8>
    1ca8:	f3 0f 10 85 0c ff ff 	movss  -0xf4(%rbp),%xmm0
    1caf:	ff 
    1cb0:	0f 14 c0             	unpcklps %xmm0,%xmm0
    1cb3:	0f 5a d8             	cvtps2pd %xmm0,%xmm3
    1cb6:	f3 0f 10 85 18 ff ff 	movss  -0xe8(%rbp),%xmm0
    1cbd:	ff 
    1cbe:	0f 14 c0             	unpcklps %xmm0,%xmm0
    1cc1:	0f 5a d0             	cvtps2pd %xmm0,%xmm2
    1cc4:	f3 0f 10 85 14 ff ff 	movss  -0xec(%rbp),%xmm0
    1ccb:	ff 
    1ccc:	0f 14 c0             	unpcklps %xmm0,%xmm0
    1ccf:	0f 5a c8             	cvtps2pd %xmm0,%xmm1
    1cd2:	f3 0f 10 85 1c ff ff 	movss  -0xe4(%rbp),%xmm0
    1cd9:	ff 
    1cda:	0f 14 c0             	unpcklps %xmm0,%xmm0
    1cdd:	0f 5a c0             	cvtps2pd %xmm0,%xmm0
    1ce0:	bf 00 00 00 00       	mov    $0x0,%edi
    1ce5:	b8 04 00 00 00       	mov    $0x4,%eax
    1cea:	e8 00 00 00 00       	callq  1cef <try_place+0x1cef>
    1cef:	48 8d 85 c0 fd ff ff 	lea    -0x240(%rbp),%rax
    1cf6:	b9 00 00 00 00       	mov    $0x0,%ecx
    1cfb:	ba 01 00 00 00       	mov    $0x1,%edx
    1d00:	48 89 c6             	mov    %rax,%rsi
    1d03:	bf 01 00 00 00       	mov    $0x1,%edi
    1d08:	e8 00 00 00 00       	callq  1d0d <try_place+0x1d0d>
    1d0d:	8b 45 10             	mov    0x10(%rbp),%eax
    1d10:	83 f8 01             	cmp    $0x1,%eax
    1d13:	74 13                	je     1d28 <try_place+0x1d28>
    1d15:	8b 45 10             	mov    0x10(%rbp),%eax
    1d18:	83 f8 02             	cmp    $0x2,%eax
    1d1b:	74 0b                	je     1d28 <try_place+0x1d28>
    1d1d:	8b 45 44             	mov    0x44(%rbp),%eax
    1d20:	85 c0                	test   %eax,%eax
    1d22:	0f 84 92 00 00 00    	je     1dba <try_place+0x1dba>
    1d28:	48 8b 85 58 ff ff ff 	mov    -0xa8(%rbp),%rax
    1d2f:	48 89 85 b0 fd ff ff 	mov    %rax,-0x250(%rbp)
    1d36:	48 8b 8d f8 fe ff ff 	mov    -0x108(%rbp),%rcx
    1d3d:	48 8b 95 00 ff ff ff 	mov    -0x100(%rbp),%rdx
    1d44:	8b 75 3c             	mov    0x3c(%rbp),%esi
    1d47:	8b 45 1c             	mov    0x1c(%rbp),%eax
    1d4a:	48 8b 7d 10          	mov    0x10(%rbp),%rdi
    1d4e:	48 89 3c 24          	mov    %rdi,(%rsp)
    1d52:	48 8b 7d 18          	mov    0x18(%rbp),%rdi
    1d56:	48 89 7c 24 08       	mov    %rdi,0x8(%rsp)
    1d5b:	48 8b 7d 20          	mov    0x20(%rbp),%rdi
    1d5f:	48 89 7c 24 10       	mov    %rdi,0x10(%rsp)
    1d64:	48 8b 7d 28          	mov    0x28(%rbp),%rdi
    1d68:	48 89 7c 24 18       	mov    %rdi,0x18(%rsp)
    1d6d:	48 8b 7d 30          	mov    0x30(%rbp),%rdi
    1d71:	48 89 7c 24 20       	mov    %rdi,0x20(%rsp)
    1d76:	48 8b 7d 38          	mov    0x38(%rbp),%rdi
    1d7a:	48 89 7c 24 28       	mov    %rdi,0x28(%rsp)
    1d7f:	48 8b 7d 40          	mov    0x40(%rbp),%rdi
    1d83:	48 89 7c 24 30       	mov    %rdi,0x30(%rsp)
    1d88:	48 8b 7d 48          	mov    0x48(%rbp),%rdi
    1d8c:	48 89 7c 24 38       	mov    %rdi,0x38(%rsp)
    1d91:	48 8b 7d 50          	mov    0x50(%rbp),%rdi
    1d95:	48 89 7c 24 40       	mov    %rdi,0x40(%rsp)
    1d9a:	89 c7                	mov    %eax,%edi
    1d9c:	e8 3d 42 00 00       	callq  5fde <free_placement_structs>
    1da1:	48 8d 95 b8 fd ff ff 	lea    -0x248(%rbp),%rdx
    1da8:	48 8d 85 b0 fd ff ff 	lea    -0x250(%rbp),%rax
    1daf:	48 89 d6             	mov    %rdx,%rsi
    1db2:	48 89 c7             	mov    %rax,%rdi
    1db5:	e8 00 00 00 00       	callq  1dba <try_place+0x1dba>
    1dba:	48 8b 85 88 fd ff ff 	mov    -0x278(%rbp),%rax
    1dc1:	48 8b 00             	mov    (%rax),%rax
    1dc4:	48 85 c0             	test   %rax,%rax
    1dc7:	0f 84 93 00 00 00    	je     1e60 <try_place+0x1e60>
    1dcd:	c7 85 74 ff ff ff 00 	movl   $0x0,-0x8c(%rbp)
    1dd4:	00 00 00 
    1dd7:	eb 67                	jmp    1e40 <try_place+0x1e40>
    1dd9:	48 8b 85 88 fd ff ff 	mov    -0x278(%rbp),%rax
    1de0:	48 8b 00             	mov    (%rax),%rax
    1de3:	8b 95 74 ff ff ff    	mov    -0x8c(%rbp),%edx
    1de9:	48 63 d2             	movslq %edx,%rdx
    1dec:	48 c1 e2 03          	shl    $0x3,%rdx
    1df0:	48 01 d0             	add    %rdx,%rax
    1df3:	48 8b 00             	mov    (%rax),%rax
    1df6:	48 85 c0             	test   %rax,%rax
    1df9:	75 19                	jne    1e14 <try_place+0x1e14>
    1dfb:	b9 00 00 00 00       	mov    $0x0,%ecx
    1e00:	ba c2 03 00 00       	mov    $0x3c2,%edx
    1e05:	be 00 00 00 00       	mov    $0x0,%esi
    1e0a:	bf 00 00 00 00       	mov    $0x0,%edi
    1e0f:	e8 00 00 00 00       	callq  1e14 <try_place+0x1e14>
    1e14:	48 8b 85 88 fd ff ff 	mov    -0x278(%rbp),%rax
    1e1b:	48 8b 00             	mov    (%rax),%rax
    1e1e:	8b 95 74 ff ff ff    	mov    -0x8c(%rbp),%edx
    1e24:	48 63 d2             	movslq %edx,%rdx
    1e27:	48 c1 e2 03          	shl    $0x3,%rdx
    1e2b:	48 01 d0             	add    %rdx,%rax
    1e2e:	48 8b 00             	mov    (%rax),%rax
    1e31:	48 89 c7             	mov    %rax,%rdi
    1e34:	e8 00 00 00 00       	callq  1e39 <try_place+0x1e39>
    1e39:	83 85 74 ff ff ff 01 	addl   $0x1,-0x8c(%rbp)
    1e40:	8b 05 00 00 00 00    	mov    0x0(%rip),%eax        # 1e46 <try_place+0x1e46>
    1e46:	39 85 74 ff ff ff    	cmp    %eax,-0x8c(%rbp)
    1e4c:	7c 8b                	jl     1dd9 <try_place+0x1dd9>
    1e4e:	48 8b 85 88 fd ff ff 	mov    -0x278(%rbp),%rax
    1e55:	48 8b 00             	mov    (%rax),%rax
    1e58:	48 89 c7             	mov    %rax,%rdi
    1e5b:	e8 00 00 00 00       	callq  1e60 <try_place+0x1e60>
    1e60:	8b 05 00 00 00 00    	mov    0x0(%rip),%eax        # 1e66 <try_place+0x1e66>
    1e66:	48 98                	cltq   
    1e68:	48 c1 e0 03          	shl    $0x3,%rax
    1e6c:	48 89 c7             	mov    %rax,%rdi
    1e6f:	e8 00 00 00 00       	callq  1e74 <try_place+0x1e74>
    1e74:	48 8b 95 88 fd ff ff 	mov    -0x278(%rbp),%rdx
    1e7b:	48 89 02             	mov    %rax,(%rdx)
    1e7e:	c7 85 74 ff ff ff 00 	movl   $0x0,-0x8c(%rbp)
    1e85:	00 00 00 
    1e88:	eb 32                	jmp    1ebc <try_place+0x1ebc>
    1e8a:	48 8b 85 88 fd ff ff 	mov    -0x278(%rbp),%rax
    1e91:	48 8b 00             	mov    (%rax),%rax
    1e94:	8b 95 74 ff ff ff    	mov    -0x8c(%rbp),%edx
    1e9a:	48 63 d2             	movslq %edx,%rdx
    1e9d:	48 c1 e2 03          	shl    $0x3,%rdx
    1ea1:	48 8d 1c 10          	lea    (%rax,%rdx,1),%rbx
    1ea5:	8b 85 74 ff ff ff    	mov    -0x8c(%rbp),%eax
    1eab:	89 c7                	mov    %eax,%edi
    1ead:	e8 00 00 00 00       	callq  1eb2 <try_place+0x1eb2>
    1eb2:	48 89 03             	mov    %rax,(%rbx)
    1eb5:	83 85 74 ff ff ff 01 	addl   $0x1,-0x8c(%rbp)
    1ebc:	8b 05 00 00 00 00    	mov    0x0(%rip),%eax        # 1ec2 <try_place+0x1ec2>
    1ec2:	39 85 74 ff ff ff    	cmp    %eax,-0x8c(%rbp)
    1ec8:	7c c0                	jl     1e8a <try_place+0x1e8a>
    1eca:	48 8b 85 50 ff ff ff 	mov    -0xb0(%rbp),%rax
    1ed1:	48 89 c7             	mov    %rax,%rdi
    1ed4:	e8 00 00 00 00       	callq  1ed9 <try_place+0x1ed9>
    1ed9:	48 81 c4 18 03 00 00 	add    $0x318,%rsp
    1ee0:	5b                   	pop    %rbx
    1ee1:	41 5c                	pop    %r12
    1ee3:	41 5d                	pop    %r13
    1ee5:	41 5e                	pop    %r14
    1ee7:	41 5f                	pop    %r15
    1ee9:	5d                   	pop    %rbp
    1eea:	c3                   	retq   

0000000000001eeb <count_connections>:
    1eeb:	55                   	push   %rbp
    1eec:	48 89 e5             	mov    %rsp,%rbp
    1eef:	48 83 ec 10          	sub    $0x10,%rsp
    1ef3:	e8 00 00 00 00       	callq  1ef8 <count_connections+0xd>
    1ef8:	c7 45 fc 00 00 00 00 	movl   $0x0,-0x4(%rbp)
    1eff:	c7 45 f8 00 00 00 00 	movl   $0x0,-0x8(%rbp)
    1f06:	eb 50                	jmp    1f58 <count_connections+0x6d>
    1f08:	48 8b 0d 00 00 00 00 	mov    0x0(%rip),%rcx        # 1f0f <count_connections+0x24>
    1f0f:	8b 45 f8             	mov    -0x8(%rbp),%eax
    1f12:	48 63 d0             	movslq %eax,%rdx
    1f15:	48 89 d0             	mov    %rdx,%rax
    1f18:	48 c1 e0 02          	shl    $0x2,%rax
    1f1c:	48 01 d0             	add    %rdx,%rax
    1f1f:	48 c1 e0 03          	shl    $0x3,%rax
    1f23:	48 01 c8             	add    %rcx,%rax
    1f26:	8b 40 20             	mov    0x20(%rax),%eax
    1f29:	85 c0                	test   %eax,%eax
    1f2b:	75 26                	jne    1f53 <count_connections+0x68>
    1f2d:	48 8b 0d 00 00 00 00 	mov    0x0(%rip),%rcx        # 1f34 <count_connections+0x49>
    1f34:	8b 45 f8             	mov    -0x8(%rbp),%eax
    1f37:	48 63 d0             	movslq %eax,%rdx
    1f3a:	48 89 d0             	mov    %rdx,%rax
    1f3d:	48 c1 e0 02          	shl    $0x2,%rax
    1f41:	48 01 d0             	add    %rdx,%rax
    1f44:	48 c1 e0 03          	shl    $0x3,%rax
    1f48:	48 01 c8             	add    %rcx,%rax
    1f4b:	8b 40 08             	mov    0x8(%rax),%eax
    1f4e:	01 45 fc             	add    %eax,-0x4(%rbp)
    1f51:	eb 01                	jmp    1f54 <count_connections+0x69>
    1f53:	90                   	nop
    1f54:	83 45 f8 01          	addl   $0x1,-0x8(%rbp)
    1f58:	8b 05 00 00 00 00    	mov    0x0(%rip),%eax        # 1f5e <count_connections+0x73>
    1f5e:	39 45 f8             	cmp    %eax,-0x8(%rbp)
    1f61:	7c a5                	jl     1f08 <count_connections+0x1d>
    1f63:	8b 45 fc             	mov    -0x4(%rbp),%eax
    1f66:	c9                   	leaveq 
    1f67:	c3                   	retq   

0000000000001f68 <compute_net_pin_index_values>:
    1f68:	55                   	push   %rbp
    1f69:	48 89 e5             	mov    %rsp,%rbp
    1f6c:	48 83 ec 20          	sub    $0x20,%rsp
    1f70:	e8 00 00 00 00       	callq  1f75 <compute_net_pin_index_values+0xd>
    1f75:	c7 45 f4 00 00 00 00 	movl   $0x0,-0xc(%rbp)
    1f7c:	eb 6d                	jmp    1feb <compute_net_pin_index_values+0x83>
    1f7e:	48 8b 0d 00 00 00 00 	mov    0x0(%rip),%rcx        # 1f85 <compute_net_pin_index_values+0x1d>
    1f85:	8b 45 f4             	mov    -0xc(%rbp),%eax
    1f88:	48 63 d0             	movslq %eax,%rdx
    1f8b:	48 89 d0             	mov    %rdx,%rax
    1f8e:	48 c1 e0 02          	shl    $0x2,%rax
    1f92:	48 01 d0             	add    %rdx,%rax
    1f95:	48 c1 e0 03          	shl    $0x3,%rax
    1f99:	48 01 c8             	add    %rcx,%rax
    1f9c:	48 8b 40 08          	mov    0x8(%rax),%rax
    1fa0:	48 89 45 e8          	mov    %rax,-0x18(%rbp)
    1fa4:	c7 45 f0 00 00 00 00 	movl   $0x0,-0x10(%rbp)
    1fab:	eb 2e                	jmp    1fdb <compute_net_pin_index_values+0x73>
    1fad:	48 8b 05 00 00 00 00 	mov    0x0(%rip),%rax        # 1fb4 <compute_net_pin_index_values+0x4c>
    1fb4:	8b 55 f4             	mov    -0xc(%rbp),%edx
    1fb7:	48 63 d2             	movslq %edx,%rdx
    1fba:	48 c1 e2 03          	shl    $0x3,%rdx
    1fbe:	48 01 d0             	add    %rdx,%rax
    1fc1:	48 8b 00             	mov    (%rax),%rax
    1fc4:	8b 55 f0             	mov    -0x10(%rbp),%edx
    1fc7:	48 63 d2             	movslq %edx,%rdx
    1fca:	48 c1 e2 02          	shl    $0x2,%rdx
    1fce:	48 01 d0             	add    %rdx,%rax
    1fd1:	c7 00 ff ff ff ff    	movl   $0xffffffff,(%rax)
    1fd7:	83 45 f0 01          	addl   $0x1,-0x10(%rbp)
    1fdb:	48 8b 45 e8          	mov    -0x18(%rbp),%rax
    1fdf:	8b 40 08             	mov    0x8(%rax),%eax
    1fe2:	3b 45 f0             	cmp    -0x10(%rbp),%eax
    1fe5:	7f c6                	jg     1fad <compute_net_pin_index_values+0x45>
    1fe7:	83 45 f4 01          	addl   $0x1,-0xc(%rbp)
    1feb:	8b 05 00 00 00 00    	mov    0x0(%rip),%eax        # 1ff1 <compute_net_pin_index_values+0x89>
    1ff1:	39 45 f4             	cmp    %eax,-0xc(%rbp)
    1ff4:	7c 88                	jl     1f7e <compute_net_pin_index_values+0x16>
    1ff6:	c7 45 fc 00 00 00 00 	movl   $0x0,-0x4(%rbp)
    1ffd:	e9 f5 00 00 00       	jmpq   20f7 <compute_net_pin_index_values+0x18f>
    2002:	48 8b 0d 00 00 00 00 	mov    0x0(%rip),%rcx        # 2009 <compute_net_pin_index_values+0xa1>
    2009:	8b 45 fc             	mov    -0x4(%rbp),%eax
    200c:	48 63 d0             	movslq %eax,%rdx
    200f:	48 89 d0             	mov    %rdx,%rax
    2012:	48 c1 e0 02          	shl    $0x2,%rax
    2016:	48 01 d0             	add    %rdx,%rax
    2019:	48 c1 e0 03          	shl    $0x3,%rax
    201d:	48 01 c8             	add    %rcx,%rax
    2020:	8b 40 20             	mov    0x20(%rax),%eax
    2023:	85 c0                	test   %eax,%eax
    2025:	0f 85 c7 00 00 00    	jne    20f2 <compute_net_pin_index_values+0x18a>
    202b:	c7 45 f8 00 00 00 00 	movl   $0x0,-0x8(%rbp)
    2032:	e9 8f 00 00 00       	jmpq   20c6 <compute_net_pin_index_values+0x15e>
    2037:	48 8b 0d 00 00 00 00 	mov    0x0(%rip),%rcx        # 203e <compute_net_pin_index_values+0xd6>
    203e:	8b 45 fc             	mov    -0x4(%rbp),%eax
    2041:	48 63 d0             	movslq %eax,%rdx
    2044:	48 89 d0             	mov    %rdx,%rax
    2047:	48 c1 e0 02          	shl    $0x2,%rax
    204b:	48 01 d0             	add    %rdx,%rax
    204e:	48 c1 e0 03          	shl    $0x3,%rax
    2052:	48 01 c8             	add    %rcx,%rax
    2055:	48 8b 40 10          	mov    0x10(%rax),%rax
    2059:	8b 55 f8             	mov    -0x8(%rbp),%edx
    205c:	48 63 d2             	movslq %edx,%rdx
    205f:	48 c1 e2 02          	shl    $0x2,%rdx
    2063:	48 01 d0             	add    %rdx,%rax
    2066:	8b 00                	mov    (%rax),%eax
    2068:	89 45 e4             	mov    %eax,-0x1c(%rbp)
    206b:	48 8b 05 00 00 00 00 	mov    0x0(%rip),%rax        # 2072 <compute_net_pin_index_values+0x10a>
    2072:	8b 55 e4             	mov    -0x1c(%rbp),%edx
    2075:	48 63 d2             	movslq %edx,%rdx
    2078:	48 c1 e2 03          	shl    $0x3,%rdx
    207c:	48 01 d0             	add    %rdx,%rax
    207f:	48 8b 08             	mov    (%rax),%rcx
    2082:	48 8b 35 00 00 00 00 	mov    0x0(%rip),%rsi        # 2089 <compute_net_pin_index_values+0x121>
    2089:	8b 45 fc             	mov    -0x4(%rbp),%eax
    208c:	48 63 d0             	movslq %eax,%rdx
    208f:	48 89 d0             	mov    %rdx,%rax
    2092:	48 c1 e0 02          	shl    $0x2,%rax
    2096:	48 01 d0             	add    %rdx,%rax
    2099:	48 c1 e0 03          	shl    $0x3,%rax
    209d:	48 01 f0             	add    %rsi,%rax
    20a0:	48 8b 40 18          	mov    0x18(%rax),%rax
    20a4:	8b 55 f8             	mov    -0x8(%rbp),%edx
    20a7:	48 63 d2             	movslq %edx,%rdx
    20aa:	48 c1 e2 02          	shl    $0x2,%rdx
    20ae:	48 01 d0             	add    %rdx,%rax
    20b1:	8b 00                	mov    (%rax),%eax
    20b3:	48 98                	cltq   
    20b5:	48 c1 e0 02          	shl    $0x2,%rax
    20b9:	48 8d 14 01          	lea    (%rcx,%rax,1),%rdx
    20bd:	8b 45 f8             	mov    -0x8(%rbp),%eax
    20c0:	89 02                	mov    %eax,(%rdx)
    20c2:	83 45 f8 01          	addl   $0x1,-0x8(%rbp)
    20c6:	48 8b 0d 00 00 00 00 	mov    0x0(%rip),%rcx        # 20cd <compute_net_pin_index_values+0x165>
    20cd:	8b 45 fc             	mov    -0x4(%rbp),%eax
    20d0:	48 63 d0             	movslq %eax,%rdx
    20d3:	48 89 d0             	mov    %rdx,%rax
    20d6:	48 c1 e0 02          	shl    $0x2,%rax
    20da:	48 01 d0             	add    %rdx,%rax
    20dd:	48 c1 e0 03          	shl    $0x3,%rax
    20e1:	48 01 c8             	add    %rcx,%rax
    20e4:	8b 40 08             	mov    0x8(%rax),%eax
    20e7:	3b 45 f8             	cmp    -0x8(%rbp),%eax
    20ea:	0f 8d 47 ff ff ff    	jge    2037 <compute_net_pin_index_values+0xcf>
    20f0:	eb 01                	jmp    20f3 <compute_net_pin_index_values+0x18b>
    20f2:	90                   	nop
    20f3:	83 45 fc 01          	addl   $0x1,-0x4(%rbp)
    20f7:	8b 05 00 00 00 00    	mov    0x0(%rip),%eax        # 20fd <compute_net_pin_index_values+0x195>
    20fd:	39 45 fc             	cmp    %eax,-0x4(%rbp)
    2100:	0f 8c fc fe ff ff    	jl     2002 <compute_net_pin_index_values+0x9a>
    2106:	c9                   	leaveq 
    2107:	c3                   	retq   

0000000000002108 <get_std_dev>:
    2108:	55                   	push   %rbp
    2109:	48 89 e5             	mov    %rsp,%rbp
    210c:	48 83 ec 30          	sub    $0x30,%rsp
    2110:	e8 00 00 00 00       	callq  2115 <get_std_dev+0xd>
    2115:	89 7d ec             	mov    %edi,-0x14(%rbp)
    2118:	f2 0f 11 45 e0       	movsd  %xmm0,-0x20(%rbp)
    211d:	f2 0f 11 4d d8       	movsd  %xmm1,-0x28(%rbp)
    2122:	83 7d ec 01          	cmpl   $0x1,-0x14(%rbp)
    2126:	7f 0b                	jg     2133 <get_std_dev+0x2b>
    2128:	b8 00 00 00 00       	mov    $0x0,%eax
    212d:	48 89 45 f8          	mov    %rax,-0x8(%rbp)
    2131:	eb 33                	jmp    2166 <get_std_dev+0x5e>
    2133:	f2 0f 2a 45 ec       	cvtsi2sdl -0x14(%rbp),%xmm0
    2138:	f2 0f 59 45 d8       	mulsd  -0x28(%rbp),%xmm0
    213d:	f2 0f 59 45 d8       	mulsd  -0x28(%rbp),%xmm0
    2142:	f2 0f 10 4d e0       	movsd  -0x20(%rbp),%xmm1
    2147:	66 0f 28 d1          	movapd %xmm1,%xmm2
    214b:	f2 0f 5c d0          	subsd  %xmm0,%xmm2
    214f:	66 0f 28 c2          	movapd %xmm2,%xmm0
    2153:	8b 45 ec             	mov    -0x14(%rbp),%eax
    2156:	83 e8 01             	sub    $0x1,%eax
    2159:	f2 0f 2a c8          	cvtsi2sd %eax,%xmm1
    215d:	f2 0f 5e c1          	divsd  %xmm1,%xmm0
    2161:	f2 0f 11 45 f8       	movsd  %xmm0,-0x8(%rbp)
    2166:	f2 0f 10 45 f8       	movsd  -0x8(%rbp),%xmm0
    216b:	66 0f 57 c9          	xorpd  %xmm1,%xmm1
    216f:	66 0f 2e c1          	ucomisd %xmm1,%xmm0
    2173:	76 21                	jbe    2196 <get_std_dev+0x8e>
    2175:	48 8b 45 f8          	mov    -0x8(%rbp),%rax
    2179:	48 89 45 d0          	mov    %rax,-0x30(%rbp)
    217d:	f2 0f 10 45 d0       	movsd  -0x30(%rbp),%xmm0
    2182:	e8 00 00 00 00       	callq  2187 <get_std_dev+0x7f>
    2187:	f2 0f 11 45 d0       	movsd  %xmm0,-0x30(%rbp)
    218c:	48 8b 45 d0          	mov    -0x30(%rbp),%rax
    2190:	48 89 45 f8          	mov    %rax,-0x8(%rbp)
    2194:	eb 09                	jmp    219f <get_std_dev+0x97>
    2196:	b8 00 00 00 00       	mov    $0x0,%eax
    219b:	48 89 45 f8          	mov    %rax,-0x8(%rbp)
    219f:	48 8b 45 f8          	mov    -0x8(%rbp),%rax
    21a3:	48 89 45 d0          	mov    %rax,-0x30(%rbp)
    21a7:	f2 0f 10 45 d0       	movsd  -0x30(%rbp),%xmm0
    21ac:	c9                   	leaveq 
    21ad:	c3                   	retq   

00000000000021ae <update_rlim>:
    21ae:	55                   	push   %rbp
    21af:	48 89 e5             	mov    %rsp,%rbp
    21b2:	48 83 ec 20          	sub    $0x20,%rsp
    21b6:	e8 00 00 00 00       	callq  21bb <update_rlim+0xd>
    21bb:	48 89 7d e8          	mov    %rdi,-0x18(%rbp)
    21bf:	f3 0f 11 45 e4       	movss  %xmm0,-0x1c(%rbp)
    21c4:	48 8b 45 e8          	mov    -0x18(%rbp),%rax
    21c8:	f3 0f 10 00          	movss  (%rax),%xmm0
    21cc:	0f 14 c0             	unpcklps %xmm0,%xmm0
    21cf:	0f 5a c8             	cvtps2pd %xmm0,%xmm1
    21d2:	f3 0f 10 45 e4       	movss  -0x1c(%rbp),%xmm0
    21d7:	0f 5a c0             	cvtps2pd %xmm0,%xmm0
    21da:	f2 0f 10 15 00 00 00 	movsd  0x0(%rip),%xmm2        # 21e2 <update_rlim+0x34>
    21e1:	00 
    21e2:	f2 0f 58 c2          	addsd  %xmm2,%xmm0
    21e6:	f2 0f 59 c1          	mulsd  %xmm1,%xmm0
    21ea:	66 0f 14 c0          	unpcklpd %xmm0,%xmm0
    21ee:	66 0f 5a c0          	cvtpd2ps %xmm0,%xmm0
    21f2:	48 8b 45 e8          	mov    -0x18(%rbp),%rax
    21f6:	f3 0f 11 00          	movss  %xmm0,(%rax)
    21fa:	8b 15 00 00 00 00    	mov    0x0(%rip),%edx        # 2200 <update_rlim+0x52>
    2200:	8b 05 00 00 00 00    	mov    0x0(%rip),%eax        # 2206 <update_rlim+0x58>
    2206:	39 c2                	cmp    %eax,%edx
    2208:	0f 4d c2             	cmovge %edx,%eax
    220b:	f3 0f 2a c0          	cvtsi2ss %eax,%xmm0
    220f:	f3 0f 11 45 fc       	movss  %xmm0,-0x4(%rbp)
    2214:	48 8b 45 e8          	mov    -0x18(%rbp),%rax
    2218:	f3 0f 10 00          	movss  (%rax),%xmm0
    221c:	0f 2e 45 fc          	ucomiss -0x4(%rbp),%xmm0
    2220:	76 05                	jbe    2227 <update_rlim+0x79>
    2222:	8b 45 fc             	mov    -0x4(%rbp),%eax
    2225:	eb 06                	jmp    222d <update_rlim+0x7f>
    2227:	48 8b 45 e8          	mov    -0x18(%rbp),%rax
    222b:	8b 00                	mov    (%rax),%eax
    222d:	48 8b 55 e8          	mov    -0x18(%rbp),%rdx
    2231:	89 02                	mov    %eax,(%rdx)
    2233:	48 8b 45 e8          	mov    -0x18(%rbp),%rax
    2237:	f3 0f 10 00          	movss  (%rax),%xmm0
    223b:	f3 0f 10 0d 00 00 00 	movss  0x0(%rip),%xmm1        # 2243 <update_rlim+0x95>
    2242:	00 
    2243:	0f 2e c1             	ucomiss %xmm1,%xmm0
    2246:	76 08                	jbe    2250 <update_rlim+0xa2>
    2248:	48 8b 45 e8          	mov    -0x18(%rbp),%rax
    224c:	8b 00                	mov    (%rax),%eax
    224e:	eb 06                	jmp    2256 <update_rlim+0xa8>
    2250:	8b 05 00 00 00 00    	mov    0x0(%rip),%eax        # 2256 <update_rlim+0xa8>
    2256:	48 8b 55 e8          	mov    -0x18(%rbp),%rdx
    225a:	89 02                	mov    %eax,(%rdx)
    225c:	c9                   	leaveq 
    225d:	c3                   	retq   

000000000000225e <update_t>:
    225e:	55                   	push   %rbp
    225f:	48 89 e5             	mov    %rsp,%rbp
    2262:	48 83 ec 18          	sub    $0x18,%rsp
    2266:	e8 00 00 00 00       	callq  226b <update_t+0xd>
    226b:	48 89 7d f8          	mov    %rdi,-0x8(%rbp)
    226f:	f3 0f 11 45 f4       	movss  %xmm0,-0xc(%rbp)
    2274:	f3 0f 11 4d f0       	movss  %xmm1,-0x10(%rbp)
    2279:	f3 0f 11 55 ec       	movss  %xmm2,-0x14(%rbp)
    227e:	8b 45 10             	mov    0x10(%rbp),%eax
    2281:	83 f8 01             	cmp    $0x1,%eax
    2284:	75 1e                	jne    22a4 <update_t+0x46>
    2286:	f3 0f 10 4d 1c       	movss  0x1c(%rbp),%xmm1
    228b:	48 8b 45 f8          	mov    -0x8(%rbp),%rax
    228f:	f3 0f 10 00          	movss  (%rax),%xmm0
    2293:	f3 0f 59 c1          	mulss  %xmm1,%xmm0
    2297:	48 8b 45 f8          	mov    -0x8(%rbp),%rax
    229b:	f3 0f 11 00          	movss  %xmm0,(%rax)
    229f:	e9 eb 00 00 00       	jmpq   238f <update_t+0x131>
    22a4:	f3 0f 10 45 ec       	movss  -0x14(%rbp),%xmm0
    22a9:	0f 5a c0             	cvtps2pd %xmm0,%xmm0
    22ac:	66 0f 2e 05 00 00 00 	ucomisd 0x0(%rip),%xmm0        # 22b4 <update_t+0x56>
    22b3:	00 
    22b4:	76 21                	jbe    22d7 <update_t+0x79>
    22b6:	48 8b 45 f8          	mov    -0x8(%rbp),%rax
    22ba:	f3 0f 10 08          	movss  (%rax),%xmm1
    22be:	f3 0f 10 05 00 00 00 	movss  0x0(%rip),%xmm0        # 22c6 <update_t+0x68>
    22c5:	00 
    22c6:	f3 0f 59 c1          	mulss  %xmm1,%xmm0
    22ca:	48 8b 45 f8          	mov    -0x8(%rbp),%rax
    22ce:	f3 0f 11 00          	movss  %xmm0,(%rax)
    22d2:	e9 b8 00 00 00       	jmpq   238f <update_t+0x131>
    22d7:	f3 0f 10 45 ec       	movss  -0x14(%rbp),%xmm0
    22dc:	0f 5a c0             	cvtps2pd %xmm0,%xmm0
    22df:	66 0f 2e 05 00 00 00 	ucomisd 0x0(%rip),%xmm0        # 22e7 <update_t+0x89>
    22e6:	00 
    22e7:	76 2c                	jbe    2315 <update_t+0xb7>
    22e9:	48 8b 45 f8          	mov    -0x8(%rbp),%rax
    22ed:	f3 0f 10 00          	movss  (%rax),%xmm0
    22f1:	0f 14 c0             	unpcklps %xmm0,%xmm0
    22f4:	0f 5a c0             	cvtps2pd %xmm0,%xmm0
    22f7:	f2 0f 10 0d 00 00 00 	movsd  0x0(%rip),%xmm1        # 22ff <update_t+0xa1>
    22fe:	00 
    22ff:	f2 0f 59 c1          	mulsd  %xmm1,%xmm0
    2303:	66 0f 14 c0          	unpcklpd %xmm0,%xmm0
    2307:	66 0f 5a c0          	cvtpd2ps %xmm0,%xmm0
    230b:	48 8b 45 f8          	mov    -0x8(%rbp),%rax
    230f:	f3 0f 11 00          	movss  %xmm0,(%rax)
    2313:	eb 7a                	jmp    238f <update_t+0x131>
    2315:	f3 0f 10 45 ec       	movss  -0x14(%rbp),%xmm0
    231a:	0f 5a c0             	cvtps2pd %xmm0,%xmm0
    231d:	66 0f 2e 05 00 00 00 	ucomisd 0x0(%rip),%xmm0        # 2325 <update_t+0xc7>
    2324:	00 
    2325:	77 12                	ja     2339 <update_t+0xdb>
    2327:	f3 0f 10 45 f0       	movss  -0x10(%rbp),%xmm0
    232c:	f3 0f 10 0d 00 00 00 	movss  0x0(%rip),%xmm1        # 2334 <update_t+0xd6>
    2333:	00 
    2334:	0f 2e c1             	ucomiss %xmm1,%xmm0
    2337:	76 2c                	jbe    2365 <update_t+0x107>
    2339:	48 8b 45 f8          	mov    -0x8(%rbp),%rax
    233d:	f3 0f 10 00          	movss  (%rax),%xmm0
    2341:	0f 14 c0             	unpcklps %xmm0,%xmm0
    2344:	0f 5a c0             	cvtps2pd %xmm0,%xmm0
    2347:	f2 0f 10 0d 00 00 00 	movsd  0x0(%rip),%xmm1        # 234f <update_t+0xf1>
    234e:	00 
    234f:	f2 0f 59 c1          	mulsd  %xmm1,%xmm0
    2353:	66 0f 14 c0          	unpcklpd %xmm0,%xmm0
    2357:	66 0f 5a c0          	cvtpd2ps %xmm0,%xmm0
    235b:	48 8b 45 f8          	mov    -0x8(%rbp),%rax
    235f:	f3 0f 11 00          	movss  %xmm0,(%rax)
    2363:	eb 2a                	jmp    238f <update_t+0x131>
    2365:	48 8b 45 f8          	mov    -0x8(%rbp),%rax
    2369:	f3 0f 10 00          	movss  (%rax),%xmm0
    236d:	0f 14 c0             	unpcklps %xmm0,%xmm0
    2370:	0f 5a c0             	cvtps2pd %xmm0,%xmm0
    2373:	f2 0f 10 0d 00 00 00 	movsd  0x0(%rip),%xmm1        # 237b <update_t+0x11d>
    237a:	00 
    237b:	f2 0f 59 c1          	mulsd  %xmm1,%xmm0
    237f:	66 0f 14 c0          	unpcklpd %xmm0,%xmm0
    2383:	66 0f 5a c0          	cvtpd2ps %xmm0,%xmm0
    2387:	48 8b 45 f8          	mov    -0x8(%rbp),%rax
    238b:	f3 0f 11 00          	movss  %xmm0,(%rax)
    238f:	c9                   	leaveq 
    2390:	c3                   	retq   

0000000000002391 <exit_crit>:
    2391:	55                   	push   %rbp
    2392:	48 89 e5             	mov    %rsp,%rbp
    2395:	48 83 ec 08          	sub    $0x8,%rsp
    2399:	e8 00 00 00 00       	callq  239e <exit_crit+0xd>
    239e:	f3 0f 11 45 fc       	movss  %xmm0,-0x4(%rbp)
    23a3:	f3 0f 11 4d f8       	movss  %xmm1,-0x8(%rbp)
    23a8:	8b 45 10             	mov    0x10(%rbp),%eax
    23ab:	83 f8 01             	cmp    $0x1,%eax
    23ae:	75 19                	jne    23c9 <exit_crit+0x38>
    23b0:	f3 0f 10 45 20       	movss  0x20(%rbp),%xmm0
    23b5:	0f 2e 45 fc          	ucomiss -0x4(%rbp),%xmm0
    23b9:	76 07                	jbe    23c2 <exit_crit+0x31>
    23bb:	b8 01 00 00 00       	mov    $0x1,%eax
    23c0:	eb 43                	jmp    2405 <exit_crit+0x74>
    23c2:	b8 00 00 00 00       	mov    $0x0,%eax
    23c7:	eb 3c                	jmp    2405 <exit_crit+0x74>
    23c9:	f3 0f 10 4d fc       	movss  -0x4(%rbp),%xmm1
    23ce:	0f 5a c9             	cvtps2pd %xmm1,%xmm1
    23d1:	f3 0f 10 45 f8       	movss  -0x8(%rbp),%xmm0
    23d6:	0f 5a c0             	cvtps2pd %xmm0,%xmm0
    23d9:	f2 0f 10 15 00 00 00 	movsd  0x0(%rip),%xmm2        # 23e1 <exit_crit+0x50>
    23e0:	00 
    23e1:	f2 0f 59 c2          	mulsd  %xmm2,%xmm0
    23e5:	8b 05 00 00 00 00    	mov    0x0(%rip),%eax        # 23eb <exit_crit+0x5a>
    23eb:	f2 0f 2a d0          	cvtsi2sd %eax,%xmm2
    23ef:	f2 0f 5e c2          	divsd  %xmm2,%xmm0
    23f3:	66 0f 2e c1          	ucomisd %xmm1,%xmm0
    23f7:	76 07                	jbe    2400 <exit_crit+0x6f>
    23f9:	b8 01 00 00 00       	mov    $0x1,%eax
    23fe:	eb 05                	jmp    2405 <exit_crit+0x74>
    2400:	b8 00 00 00 00       	mov    $0x0,%eax
    2405:	c9                   	leaveq 
    2406:	c3                   	retq   

0000000000002407 <starting_t>:
    2407:	55                   	push   %rbp
    2408:	48 89 e5             	mov    %rsp,%rbp
    240b:	41 54                	push   %r12
    240d:	53                   	push   %rbx
    240e:	48 81 ec b0 00 00 00 	sub    $0xb0,%rsp
    2415:	e8 00 00 00 00       	callq  241a <starting_t+0x13>
    241a:	48 89 7d b8          	mov    %rdi,-0x48(%rbp)
    241e:	48 89 75 b0          	mov    %rsi,-0x50(%rbp)
    2422:	48 89 55 a8          	mov    %rdx,-0x58(%rbp)
    2426:	89 4d a4             	mov    %ecx,-0x5c(%rbp)
    2429:	4c 89 45 98          	mov    %r8,-0x68(%rbp)
    242d:	4c 89 4d 90          	mov    %r9,-0x70(%rbp)
    2431:	f3 0f 11 45 a0       	movss  %xmm0,-0x60(%rbp)
    2436:	f3 0f 11 4d 8c       	movss  %xmm1,-0x74(%rbp)
    243b:	f3 0f 11 55 88       	movss  %xmm2,-0x78(%rbp)
    2440:	f3 0f 11 5d 84       	movss  %xmm3,-0x7c(%rbp)
    2445:	8b 05 00 00 00 00    	mov    0x0(%rip),%eax        # 244b <starting_t+0x44>
    244b:	48 98                	cltq   
    244d:	48 c1 e0 02          	shl    $0x2,%rax
    2451:	48 89 c7             	mov    %rax,%rdi
    2454:	e8 00 00 00 00       	callq  2459 <starting_t+0x52>
    2459:	48 89 45 d0          	mov    %rax,-0x30(%rbp)
    245d:	8b 45 20             	mov    0x20(%rbp),%eax
    2460:	83 f8 01             	cmp    $0x1,%eax
    2463:	75 08                	jne    246d <starting_t+0x66>
    2465:	8b 45 28             	mov    0x28(%rbp),%eax
    2468:	e9 d4 01 00 00       	jmpq   2641 <starting_t+0x23a>
    246d:	8b 05 00 00 00 00    	mov    0x0(%rip),%eax        # 2473 <starting_t+0x6c>
    2473:	39 45 38             	cmp    %eax,0x38(%rbp)
    2476:	0f 4e 45 38          	cmovle 0x38(%rbp),%eax
    247a:	89 45 cc             	mov    %eax,-0x34(%rbp)
    247d:	c7 45 e8 00 00 00 00 	movl   $0x0,-0x18(%rbp)
    2484:	b8 00 00 00 00       	mov    $0x0,%eax
    2489:	48 89 45 e0          	mov    %rax,-0x20(%rbp)
    248d:	b8 00 00 00 00       	mov    $0x0,%eax
    2492:	48 89 45 d8          	mov    %rax,-0x28(%rbp)
    2496:	c7 45 ec 00 00 00 00 	movl   $0x0,-0x14(%rbp)
    249d:	e9 d8 00 00 00       	jmpq   257a <starting_t+0x173>
    24a2:	8b 75 84             	mov    -0x7c(%rbp),%esi
    24a5:	8b 4d 88             	mov    -0x78(%rbp),%ecx
    24a8:	8b 55 8c             	mov    -0x74(%rbp),%edx
    24ab:	4c 8b 4d 90          	mov    -0x70(%rbp),%r9
    24af:	4c 8b 65 98          	mov    -0x68(%rbp),%r12
    24b3:	8b 5d a4             	mov    -0x5c(%rbp),%ebx
    24b6:	8b 45 a0             	mov    -0x60(%rbp),%eax
    24b9:	4c 8b 5d a8          	mov    -0x58(%rbp),%r11
    24bd:	4c 8b 55 b0          	mov    -0x50(%rbp),%r10
    24c1:	48 8b 7d b8          	mov    -0x48(%rbp),%rdi
    24c5:	4c 8b 45 d0          	mov    -0x30(%rbp),%r8
    24c9:	4c 89 44 24 20       	mov    %r8,0x20(%rsp)
    24ce:	4c 8b 45 48          	mov    0x48(%rbp),%r8
    24d2:	4c 89 44 24 18       	mov    %r8,0x18(%rsp)
    24d7:	44 8b 45 40          	mov    0x40(%rbp),%r8d
    24db:	44 89 44 24 10       	mov    %r8d,0x10(%rsp)
    24e0:	44 8b 45 18          	mov    0x18(%rbp),%r8d
    24e4:	44 89 44 24 08       	mov    %r8d,0x8(%rsp)
    24e9:	44 8b 45 10          	mov    0x10(%rbp),%r8d
    24ed:	44 89 04 24          	mov    %r8d,(%rsp)
    24f1:	89 75 80             	mov    %esi,-0x80(%rbp)
    24f4:	f3 0f 10 65 80       	movss  -0x80(%rbp),%xmm4
    24f9:	89 4d 80             	mov    %ecx,-0x80(%rbp)
    24fc:	f3 0f 10 5d 80       	movss  -0x80(%rbp),%xmm3
    2501:	89 55 80             	mov    %edx,-0x80(%rbp)
    2504:	f3 0f 10 55 80       	movss  -0x80(%rbp),%xmm2
    2509:	4d 89 e0             	mov    %r12,%r8
    250c:	89 d9                	mov    %ebx,%ecx
    250e:	89 45 80             	mov    %eax,-0x80(%rbp)
    2511:	f3 0f 10 4d 80       	movss  -0x80(%rbp),%xmm1
    2516:	4c 89 da             	mov    %r11,%rdx
    2519:	4c 89 d6             	mov    %r10,%rsi
    251c:	f3 0f 10 05 00 00 00 	movss  0x0(%rip),%xmm0        # 2524 <starting_t+0x11d>
    2523:	00 
    2524:	e8 2c 01 00 00       	callq  2655 <try_swap>
    2529:	83 f8 01             	cmp    $0x1,%eax
    252c:	75 48                	jne    2576 <starting_t+0x16f>
    252e:	83 45 e8 01          	addl   $0x1,-0x18(%rbp)
    2532:	48 8b 45 b8          	mov    -0x48(%rbp),%rax
    2536:	f3 0f 10 00          	movss  (%rax),%xmm0
    253a:	0f 14 c0             	unpcklps %xmm0,%xmm0
    253d:	0f 5a c0             	cvtps2pd %xmm0,%xmm0
    2540:	f2 0f 10 4d e0       	movsd  -0x20(%rbp),%xmm1
    2545:	f2 0f 58 c1          	addsd  %xmm1,%xmm0
    2549:	f2 0f 11 45 e0       	movsd  %xmm0,-0x20(%rbp)
    254e:	48 8b 45 b8          	mov    -0x48(%rbp),%rax
    2552:	f3 0f 10 08          	movss  (%rax),%xmm1
    2556:	48 8b 45 b8          	mov    -0x48(%rbp),%rax
    255a:	f3 0f 10 00          	movss  (%rax),%xmm0
    255e:	f3 0f 59 c1          	mulss  %xmm1,%xmm0
    2562:	0f 14 c0             	unpcklps %xmm0,%xmm0
    2565:	0f 5a c0             	cvtps2pd %xmm0,%xmm0
    2568:	f2 0f 10 4d d8       	movsd  -0x28(%rbp),%xmm1
    256d:	f2 0f 58 c1          	addsd  %xmm1,%xmm0
    2571:	f2 0f 11 45 d8       	movsd  %xmm0,-0x28(%rbp)
    2576:	83 45 ec 01          	addl   $0x1,-0x14(%rbp)
    257a:	8b 45 ec             	mov    -0x14(%rbp),%eax
    257d:	3b 45 cc             	cmp    -0x34(%rbp),%eax
    2580:	0f 8c 1c ff ff ff    	jl     24a2 <starting_t+0x9b>
    2586:	83 7d e8 00          	cmpl   $0x0,-0x18(%rbp)
    258a:	74 1d                	je     25a9 <starting_t+0x1a2>
    258c:	f2 0f 2a 45 e8       	cvtsi2sdl -0x18(%rbp),%xmm0
    2591:	f2 0f 10 4d e0       	movsd  -0x20(%rbp),%xmm1
    2596:	66 0f 28 d1          	movapd %xmm1,%xmm2
    259a:	f2 0f 5e d0          	divsd  %xmm0,%xmm2
    259e:	66 0f 28 c2          	movapd %xmm2,%xmm0
    25a2:	f2 0f 11 45 e0       	movsd  %xmm0,-0x20(%rbp)
    25a7:	eb 09                	jmp    25b2 <starting_t+0x1ab>
    25a9:	b8 00 00 00 00       	mov    $0x0,%eax
    25ae:	48 89 45 e0          	mov    %rax,-0x20(%rbp)
    25b2:	48 8b 55 e0          	mov    -0x20(%rbp),%rdx
    25b6:	48 8b 45 d8          	mov    -0x28(%rbp),%rax
    25ba:	8b 4d e8             	mov    -0x18(%rbp),%ecx
    25bd:	48 89 95 78 ff ff ff 	mov    %rdx,-0x88(%rbp)
    25c4:	f2 0f 10 8d 78 ff ff 	movsd  -0x88(%rbp),%xmm1
    25cb:	ff 
    25cc:	48 89 85 78 ff ff ff 	mov    %rax,-0x88(%rbp)
    25d3:	f2 0f 10 85 78 ff ff 	movsd  -0x88(%rbp),%xmm0
    25da:	ff 
    25db:	89 cf                	mov    %ecx,%edi
    25dd:	e8 26 fb ff ff       	callq  2108 <get_std_dev>
    25e2:	f2 0f 11 85 78 ff ff 	movsd  %xmm0,-0x88(%rbp)
    25e9:	ff 
    25ea:	48 8b 85 78 ff ff ff 	mov    -0x88(%rbp),%rax
    25f1:	48 89 45 c0          	mov    %rax,-0x40(%rbp)
    25f5:	8b 45 e8             	mov    -0x18(%rbp),%eax
    25f8:	3b 45 cc             	cmp    -0x34(%rbp),%eax
    25fb:	74 17                	je     2614 <starting_t+0x20d>
    25fd:	8b 55 cc             	mov    -0x34(%rbp),%edx
    2600:	8b 45 e8             	mov    -0x18(%rbp),%eax
    2603:	89 c6                	mov    %eax,%esi
    2605:	bf 00 00 00 00       	mov    $0x0,%edi
    260a:	b8 00 00 00 00       	mov    $0x0,%eax
    260f:	e8 00 00 00 00       	callq  2614 <starting_t+0x20d>
    2614:	48 8b 45 d0          	mov    -0x30(%rbp),%rax
    2618:	48 89 c7             	mov    %rax,%rdi
    261b:	e8 00 00 00 00       	callq  2620 <starting_t+0x219>
    2620:	f2 0f 10 4d c0       	movsd  -0x40(%rbp),%xmm1
    2625:	f2 0f 10 05 00 00 00 	movsd  0x0(%rip),%xmm0        # 262d <starting_t+0x226>
    262c:	00 
    262d:	f2 0f 59 c1          	mulsd  %xmm1,%xmm0
    2631:	66 0f 14 c0          	unpcklpd %xmm0,%xmm0
    2635:	66 0f 5a c0          	cvtpd2ps %xmm0,%xmm0
    2639:	f3 0f 11 45 80       	movss  %xmm0,-0x80(%rbp)
    263e:	8b 45 80             	mov    -0x80(%rbp),%eax
    2641:	89 45 80             	mov    %eax,-0x80(%rbp)
    2644:	f3 0f 10 45 80       	movss  -0x80(%rbp),%xmm0
    2649:	48 81 c4 b0 00 00 00 	add    $0xb0,%rsp
    2650:	5b                   	pop    %rbx
    2651:	41 5c                	pop    %r12
    2653:	5d                   	pop    %rbp
    2654:	c3                   	retq   

0000000000002655 <try_swap>:
    2655:	55                   	push   %rbp
    2656:	48 89 e5             	mov    %rsp,%rbp
    2659:	53                   	push   %rbx
    265a:	48 81 ec c8 00 00 00 	sub    $0xc8,%rsp
    2661:	e8 00 00 00 00       	callq  2666 <try_swap+0x11>
    2666:	f3 0f 11 45 8c       	movss  %xmm0,-0x74(%rbp)
    266b:	48 89 7d 80          	mov    %rdi,-0x80(%rbp)
    266f:	48 89 b5 78 ff ff ff 	mov    %rsi,-0x88(%rbp)
    2676:	48 89 95 70 ff ff ff 	mov    %rdx,-0x90(%rbp)
    267d:	f3 0f 11 4d 88       	movss  %xmm1,-0x78(%rbp)
    2682:	89 8d 6c ff ff ff    	mov    %ecx,-0x94(%rbp)
    2688:	4c 89 85 60 ff ff ff 	mov    %r8,-0xa0(%rbp)
    268f:	4c 89 8d 58 ff ff ff 	mov    %r9,-0xa8(%rbp)
    2696:	f3 0f 11 95 68 ff ff 	movss  %xmm2,-0x98(%rbp)
    269d:	ff 
    269e:	f3 0f 11 9d 54 ff ff 	movss  %xmm3,-0xac(%rbp)
    26a5:	ff 
    26a6:	f3 0f 11 a5 50 ff ff 	movss  %xmm4,-0xb0(%rbp)
    26ad:	ff 
    26ae:	c7 45 d8 00 00 00 00 	movl   $0x0,-0x28(%rbp)
    26b5:	c7 45 e0 00 00 00 00 	movl   $0x0,-0x20(%rbp)
    26bc:	eb 36                	jmp    26f4 <try_swap+0x9f>
    26be:	48 8b 0d 00 00 00 00 	mov    0x0(%rip),%rcx        # 26c5 <try_swap+0x70>
    26c5:	8b 45 e0             	mov    -0x20(%rbp),%eax
    26c8:	48 63 d0             	movslq %eax,%rdx
    26cb:	48 89 d0             	mov    %rdx,%rax
    26ce:	48 c1 e0 03          	shl    $0x3,%rax
    26d2:	48 01 d0             	add    %rdx,%rax
    26d5:	48 01 c0             	add    %rax,%rax
    26d8:	48 01 d0             	add    %rdx,%rax
    26db:	48 c1 e0 03          	shl    $0x3,%rax
    26df:	48 01 c8             	add    %rcx,%rax
    26e2:	8b 50 08             	mov    0x8(%rax),%edx
    26e5:	8b 45 d8             	mov    -0x28(%rbp),%eax
    26e8:	39 c2                	cmp    %eax,%edx
    26ea:	0f 4d c2             	cmovge %edx,%eax
    26ed:	89 45 d8             	mov    %eax,-0x28(%rbp)
    26f0:	83 45 e0 01          	addl   $0x1,-0x20(%rbp)
    26f4:	8b 05 00 00 00 00    	mov    0x0(%rip),%eax        # 26fa <try_swap+0xa5>
    26fa:	39 45 e0             	cmp    %eax,-0x20(%rbp)
    26fd:	7c bf                	jl     26be <try_swap+0x69>
    26ff:	48 8b 05 00 00 00 00 	mov    0x0(%rip),%rax        # 2706 <try_swap+0xb1>
    2706:	48 85 c0             	test   %rax,%rax
    2709:	75 60                	jne    276b <try_swap+0x116>
    270b:	8b 45 d8             	mov    -0x28(%rbp),%eax
    270e:	48 98                	cltq   
    2710:	48 c1 e0 05          	shl    $0x5,%rax
    2714:	48 89 c7             	mov    %rax,%rdi
    2717:	e8 00 00 00 00       	callq  271c <try_swap+0xc7>
    271c:	48 89 05 00 00 00 00 	mov    %rax,0x0(%rip)        # 2723 <try_swap+0xce>
    2723:	8b 45 d8             	mov    -0x28(%rbp),%eax
    2726:	48 98                	cltq   
    2728:	48 c1 e0 05          	shl    $0x5,%rax
    272c:	48 89 c7             	mov    %rax,%rdi
    272f:	e8 00 00 00 00       	callq  2734 <try_swap+0xdf>
    2734:	48 89 05 00 00 00 00 	mov    %rax,0x0(%rip)        # 273b <try_swap+0xe6>
    273b:	8b 45 d8             	mov    -0x28(%rbp),%eax
    273e:	48 98                	cltq   
    2740:	48 c1 e0 03          	shl    $0x3,%rax
    2744:	48 89 c7             	mov    %rax,%rdi
    2747:	e8 00 00 00 00       	callq  274c <try_swap+0xf7>
    274c:	48 89 05 00 00 00 00 	mov    %rax,0x0(%rip)        # 2753 <try_swap+0xfe>
    2753:	8b 45 d8             	mov    -0x28(%rbp),%eax
    2756:	48 98                	cltq   
    2758:	48 c1 e0 03          	shl    $0x3,%rax
    275c:	48 89 c7             	mov    %rax,%rdi
    275f:	e8 00 00 00 00       	callq  2764 <try_swap+0x10f>
    2764:	48 89 05 00 00 00 00 	mov    %rax,0x0(%rip)        # 276b <try_swap+0x116>
    276b:	8b 05 00 00 00 00    	mov    0x0(%rip),%eax        # 2771 <try_swap+0x11c>
    2771:	89 45 9c             	mov    %eax,-0x64(%rbp)
    2774:	8b 05 00 00 00 00    	mov    0x0(%rip),%eax        # 277a <try_swap+0x125>
    277a:	83 e8 01             	sub    $0x1,%eax
    277d:	89 c7                	mov    %eax,%edi
    277f:	e8 00 00 00 00       	callq  2784 <try_swap+0x12f>
    2784:	89 45 ec             	mov    %eax,-0x14(%rbp)
    2787:	83 7d 18 01          	cmpl   $0x1,0x18(%rbp)
    278b:	75 43                	jne    27d0 <try_swap+0x17b>
    278d:	eb 13                	jmp    27a2 <try_swap+0x14d>
    278f:	8b 05 00 00 00 00    	mov    0x0(%rip),%eax        # 2795 <try_swap+0x140>
    2795:	83 e8 01             	sub    $0x1,%eax
    2798:	89 c7                	mov    %eax,%edi
    279a:	e8 00 00 00 00       	callq  279f <try_swap+0x14a>
    279f:	89 45 ec             	mov    %eax,-0x14(%rbp)
    27a2:	48 8b 0d 00 00 00 00 	mov    0x0(%rip),%rcx        # 27a9 <try_swap+0x154>
    27a9:	8b 45 ec             	mov    -0x14(%rbp),%eax
    27ac:	48 63 d0             	movslq %eax,%rdx
    27af:	48 89 d0             	mov    %rdx,%rax
    27b2:	48 c1 e0 02          	shl    $0x2,%rax
    27b6:	48 01 d0             	add    %rdx,%rax
    27b9:	48 c1 e0 03          	shl    $0x3,%rax
    27bd:	48 01 c8             	add    %rcx,%rax
    27c0:	48 8b 50 08          	mov    0x8(%rax),%rdx
    27c4:	48 8b 05 00 00 00 00 	mov    0x0(%rip),%rax        # 27cb <try_swap+0x176>
    27cb:	48 39 c2             	cmp    %rax,%rdx
    27ce:	74 bf                	je     278f <try_swap+0x13a>
    27d0:	48 8b 0d 00 00 00 00 	mov    0x0(%rip),%rcx        # 27d7 <try_swap+0x182>
    27d7:	8b 45 ec             	mov    -0x14(%rbp),%eax
    27da:	48 63 d0             	movslq %eax,%rdx
    27dd:	48 89 d0             	mov    %rdx,%rax
    27e0:	48 c1 e0 02          	shl    $0x2,%rax
    27e4:	48 01 d0             	add    %rdx,%rax
    27e7:	48 c1 e0 03          	shl    $0x3,%rax
    27eb:	48 01 c8             	add    %rcx,%rax
    27ee:	8b 40 18             	mov    0x18(%rax),%eax
    27f1:	89 45 c8             	mov    %eax,-0x38(%rbp)
    27f4:	48 8b 0d 00 00 00 00 	mov    0x0(%rip),%rcx        # 27fb <try_swap+0x1a6>
    27fb:	8b 45 ec             	mov    -0x14(%rbp),%eax
    27fe:	48 63 d0             	movslq %eax,%rdx
    2801:	48 89 d0             	mov    %rdx,%rax
    2804:	48 c1 e0 02          	shl    $0x2,%rax
    2808:	48 01 d0             	add    %rdx,%rax
    280b:	48 c1 e0 03          	shl    $0x3,%rax
    280f:	48 01 c8             	add    %rcx,%rax
    2812:	8b 40 1c             	mov    0x1c(%rax),%eax
    2815:	89 45 c4             	mov    %eax,-0x3c(%rbp)
    2818:	48 8b 0d 00 00 00 00 	mov    0x0(%rip),%rcx        # 281f <try_swap+0x1ca>
    281f:	8b 45 ec             	mov    -0x14(%rbp),%eax
    2822:	48 63 d0             	movslq %eax,%rdx
    2825:	48 89 d0             	mov    %rdx,%rax
    2828:	48 c1 e0 02          	shl    $0x2,%rax
    282c:	48 01 d0             	add    %rdx,%rax
    282f:	48 c1 e0 03          	shl    $0x3,%rax
    2833:	48 01 c8             	add    %rcx,%rax
    2836:	8b 40 20             	mov    0x20(%rax),%eax
    2839:	89 45 c0             	mov    %eax,-0x40(%rbp)
    283c:	48 8b 0d 00 00 00 00 	mov    0x0(%rip),%rcx        # 2843 <try_swap+0x1ee>
    2843:	8b 45 ec             	mov    -0x14(%rbp),%eax
    2846:	48 63 d0             	movslq %eax,%rdx
    2849:	48 89 d0             	mov    %rdx,%rax
    284c:	48 c1 e0 02          	shl    $0x2,%rax
    2850:	48 01 d0             	add    %rdx,%rax
    2853:	48 c1 e0 03          	shl    $0x3,%rax
    2857:	48 01 c8             	add    %rcx,%rax
    285a:	48 8b 50 08          	mov    0x8(%rax),%rdx
    285e:	4c 8d 4d a4          	lea    -0x5c(%rbp),%r9
    2862:	4c 8d 45 a8          	lea    -0x58(%rbp),%r8
    2866:	48 8b 4d 30          	mov    0x30(%rbp),%rcx
    286a:	8b 45 88             	mov    -0x78(%rbp),%eax
    286d:	8b 75 c4             	mov    -0x3c(%rbp),%esi
    2870:	8b 7d c8             	mov    -0x38(%rbp),%edi
    2873:	89 85 4c ff ff ff    	mov    %eax,-0xb4(%rbp)
    2879:	f3 0f 10 85 4c ff ff 	movss  -0xb4(%rbp),%xmm0
    2880:	ff 
    2881:	e8 f1 0e 00 00       	callq  3777 <find_to>
    2886:	85 c0                	test   %eax,%eax
    2888:	75 0a                	jne    2894 <try_swap+0x23f>
    288a:	b8 00 00 00 00       	mov    $0x0,%eax
    288f:	e9 3f 0a 00 00       	jmpq   32d3 <try_swap+0xc7e>
    2894:	c7 45 e8 00 00 00 00 	movl   $0x0,-0x18(%rbp)
    289b:	48 8b 05 00 00 00 00 	mov    0x0(%rip),%rax        # 28a2 <try_swap+0x24d>
    28a2:	8b 55 a8             	mov    -0x58(%rbp),%edx
    28a5:	48 63 d2             	movslq %edx,%rdx
    28a8:	48 c1 e2 03          	shl    $0x3,%rdx
    28ac:	48 01 d0             	add    %rdx,%rax
    28af:	48 8b 08             	mov    (%rax),%rcx
    28b2:	8b 45 a4             	mov    -0x5c(%rbp),%eax
    28b5:	48 63 d0             	movslq %eax,%rdx
    28b8:	48 89 d0             	mov    %rdx,%rax
    28bb:	48 01 c0             	add    %rax,%rax
    28be:	48 01 d0             	add    %rdx,%rax
    28c1:	48 c1 e0 03          	shl    $0x3,%rax
    28c5:	48 01 c8             	add    %rcx,%rax
    28c8:	48 8b 00             	mov    (%rax),%rax
    28cb:	8b 40 0c             	mov    0xc(%rax),%eax
    28ce:	83 f8 01             	cmp    $0x1,%eax
    28d1:	7e 40                	jle    2913 <try_swap+0x2be>
    28d3:	48 8b 05 00 00 00 00 	mov    0x0(%rip),%rax        # 28da <try_swap+0x285>
    28da:	8b 55 a8             	mov    -0x58(%rbp),%edx
    28dd:	48 63 d2             	movslq %edx,%rdx
    28e0:	48 c1 e2 03          	shl    $0x3,%rdx
    28e4:	48 01 d0             	add    %rdx,%rax
    28e7:	48 8b 08             	mov    (%rax),%rcx
    28ea:	8b 45 a4             	mov    -0x5c(%rbp),%eax
    28ed:	48 63 d0             	movslq %eax,%rdx
    28f0:	48 89 d0             	mov    %rdx,%rax
    28f3:	48 01 c0             	add    %rax,%rax
    28f6:	48 01 d0             	add    %rdx,%rax
    28f9:	48 c1 e0 03          	shl    $0x3,%rax
    28fd:	48 01 c8             	add    %rcx,%rax
    2900:	48 8b 00             	mov    (%rax),%rax
    2903:	8b 40 0c             	mov    0xc(%rax),%eax
    2906:	83 e8 01             	sub    $0x1,%eax
    2909:	89 c7                	mov    %eax,%edi
    290b:	e8 00 00 00 00       	callq  2910 <try_swap+0x2bb>
    2910:	89 45 e8             	mov    %eax,-0x18(%rbp)
    2913:	48 8b 05 00 00 00 00 	mov    0x0(%rip),%rax        # 291a <try_swap+0x2c5>
    291a:	8b 55 a8             	mov    -0x58(%rbp),%edx
    291d:	48 63 d2             	movslq %edx,%rdx
    2920:	48 c1 e2 03          	shl    $0x3,%rdx
    2924:	48 01 d0             	add    %rdx,%rax
    2927:	48 8b 08             	mov    (%rax),%rcx
    292a:	8b 45 a4             	mov    -0x5c(%rbp),%eax
    292d:	48 63 d0             	movslq %eax,%rdx
    2930:	48 89 d0             	mov    %rdx,%rax
    2933:	48 01 c0             	add    %rax,%rax
    2936:	48 01 d0             	add    %rdx,%rax
    2939:	48 c1 e0 03          	shl    $0x3,%rax
    293d:	48 01 c8             	add    %rcx,%rax
    2940:	48 8b 40 10          	mov    0x10(%rax),%rax
    2944:	8b 55 e8             	mov    -0x18(%rbp),%edx
    2947:	48 63 d2             	movslq %edx,%rdx
    294a:	48 c1 e2 02          	shl    $0x2,%rdx
    294e:	48 01 d0             	add    %rdx,%rax
    2951:	8b 00                	mov    (%rax),%eax
    2953:	83 f8 ff             	cmp    $0xffffffff,%eax
    2956:	75 7b                	jne    29d3 <try_swap+0x37e>
    2958:	c7 45 e4 ff ff ff ff 	movl   $0xffffffff,-0x1c(%rbp)
    295f:	48 8b 0d 00 00 00 00 	mov    0x0(%rip),%rcx        # 2966 <try_swap+0x311>
    2966:	8b 45 ec             	mov    -0x14(%rbp),%eax
    2969:	48 63 d0             	movslq %eax,%rdx
    296c:	48 89 d0             	mov    %rdx,%rax
    296f:	48 c1 e0 02          	shl    $0x2,%rax
    2973:	48 01 d0             	add    %rdx,%rax
    2976:	48 c1 e0 03          	shl    $0x3,%rax
    297a:	48 8d 14 01          	lea    (%rcx,%rax,1),%rdx
    297e:	8b 45 a8             	mov    -0x58(%rbp),%eax
    2981:	89 42 18             	mov    %eax,0x18(%rdx)
    2984:	48 8b 0d 00 00 00 00 	mov    0x0(%rip),%rcx        # 298b <try_swap+0x336>
    298b:	8b 45 ec             	mov    -0x14(%rbp),%eax
    298e:	48 63 d0             	movslq %eax,%rdx
    2991:	48 89 d0             	mov    %rdx,%rax
    2994:	48 c1 e0 02          	shl    $0x2,%rax
    2998:	48 01 d0             	add    %rdx,%rax
    299b:	48 c1 e0 03          	shl    $0x3,%rax
    299f:	48 8d 14 01          	lea    (%rcx,%rax,1),%rdx
    29a3:	8b 45 a4             	mov    -0x5c(%rbp),%eax
    29a6:	89 42 1c             	mov    %eax,0x1c(%rdx)
    29a9:	48 8b 0d 00 00 00 00 	mov    0x0(%rip),%rcx        # 29b0 <try_swap+0x35b>
    29b0:	8b 45 ec             	mov    -0x14(%rbp),%eax
    29b3:	48 63 d0             	movslq %eax,%rdx
    29b6:	48 89 d0             	mov    %rdx,%rax
    29b9:	48 c1 e0 02          	shl    $0x2,%rax
    29bd:	48 01 d0             	add    %rdx,%rax
    29c0:	48 c1 e0 03          	shl    $0x3,%rax
    29c4:	48 8d 14 01          	lea    (%rcx,%rax,1),%rdx
    29c8:	8b 45 e8             	mov    -0x18(%rbp),%eax
    29cb:	89 42 20             	mov    %eax,0x20(%rdx)
    29ce:	e9 21 01 00 00       	jmpq   2af4 <try_swap+0x49f>
    29d3:	48 8b 05 00 00 00 00 	mov    0x0(%rip),%rax        # 29da <try_swap+0x385>
    29da:	8b 55 a8             	mov    -0x58(%rbp),%edx
    29dd:	48 63 d2             	movslq %edx,%rdx
    29e0:	48 c1 e2 03          	shl    $0x3,%rdx
    29e4:	48 01 d0             	add    %rdx,%rax
    29e7:	48 8b 08             	mov    (%rax),%rcx
    29ea:	8b 45 a4             	mov    -0x5c(%rbp),%eax
    29ed:	48 63 d0             	movslq %eax,%rdx
    29f0:	48 89 d0             	mov    %rdx,%rax
    29f3:	48 01 c0             	add    %rax,%rax
    29f6:	48 01 d0             	add    %rdx,%rax
    29f9:	48 c1 e0 03          	shl    $0x3,%rax
    29fd:	48 01 c8             	add    %rcx,%rax
    2a00:	48 8b 40 10          	mov    0x10(%rax),%rax
    2a04:	8b 55 e8             	mov    -0x18(%rbp),%edx
    2a07:	48 63 d2             	movslq %edx,%rdx
    2a0a:	48 c1 e2 02          	shl    $0x2,%rdx
    2a0e:	48 01 d0             	add    %rdx,%rax
    2a11:	8b 00                	mov    (%rax),%eax
    2a13:	89 45 e4             	mov    %eax,-0x1c(%rbp)
    2a16:	48 8b 0d 00 00 00 00 	mov    0x0(%rip),%rcx        # 2a1d <try_swap+0x3c8>
    2a1d:	8b 45 e4             	mov    -0x1c(%rbp),%eax
    2a20:	48 63 d0             	movslq %eax,%rdx
    2a23:	48 89 d0             	mov    %rdx,%rax
    2a26:	48 c1 e0 02          	shl    $0x2,%rax
    2a2a:	48 01 d0             	add    %rdx,%rax
    2a2d:	48 c1 e0 03          	shl    $0x3,%rax
    2a31:	48 8d 14 01          	lea    (%rcx,%rax,1),%rdx
    2a35:	8b 45 c8             	mov    -0x38(%rbp),%eax
    2a38:	89 42 18             	mov    %eax,0x18(%rdx)
    2a3b:	48 8b 0d 00 00 00 00 	mov    0x0(%rip),%rcx        # 2a42 <try_swap+0x3ed>
    2a42:	8b 45 e4             	mov    -0x1c(%rbp),%eax
    2a45:	48 63 d0             	movslq %eax,%rdx
    2a48:	48 89 d0             	mov    %rdx,%rax
    2a4b:	48 c1 e0 02          	shl    $0x2,%rax
    2a4f:	48 01 d0             	add    %rdx,%rax
    2a52:	48 c1 e0 03          	shl    $0x3,%rax
    2a56:	48 8d 14 01          	lea    (%rcx,%rax,1),%rdx
    2a5a:	8b 45 c4             	mov    -0x3c(%rbp),%eax
    2a5d:	89 42 1c             	mov    %eax,0x1c(%rdx)
    2a60:	48 8b 0d 00 00 00 00 	mov    0x0(%rip),%rcx        # 2a67 <try_swap+0x412>
    2a67:	8b 45 e4             	mov    -0x1c(%rbp),%eax
    2a6a:	48 63 d0             	movslq %eax,%rdx
    2a6d:	48 89 d0             	mov    %rdx,%rax
    2a70:	48 c1 e0 02          	shl    $0x2,%rax
    2a74:	48 01 d0             	add    %rdx,%rax
    2a77:	48 c1 e0 03          	shl    $0x3,%rax
    2a7b:	48 8d 14 01          	lea    (%rcx,%rax,1),%rdx
    2a7f:	8b 45 c0             	mov    -0x40(%rbp),%eax
    2a82:	89 42 20             	mov    %eax,0x20(%rdx)
    2a85:	48 8b 0d 00 00 00 00 	mov    0x0(%rip),%rcx        # 2a8c <try_swap+0x437>
    2a8c:	8b 45 ec             	mov    -0x14(%rbp),%eax
    2a8f:	48 63 d0             	movslq %eax,%rdx
    2a92:	48 89 d0             	mov    %rdx,%rax
    2a95:	48 c1 e0 02          	shl    $0x2,%rax
    2a99:	48 01 d0             	add    %rdx,%rax
    2a9c:	48 c1 e0 03          	shl    $0x3,%rax
    2aa0:	48 8d 14 01          	lea    (%rcx,%rax,1),%rdx
    2aa4:	8b 45 a8             	mov    -0x58(%rbp),%eax
    2aa7:	89 42 18             	mov    %eax,0x18(%rdx)
    2aaa:	48 8b 0d 00 00 00 00 	mov    0x0(%rip),%rcx        # 2ab1 <try_swap+0x45c>
    2ab1:	8b 45 ec             	mov    -0x14(%rbp),%eax
    2ab4:	48 63 d0             	movslq %eax,%rdx
    2ab7:	48 89 d0             	mov    %rdx,%rax
    2aba:	48 c1 e0 02          	shl    $0x2,%rax
    2abe:	48 01 d0             	add    %rdx,%rax
    2ac1:	48 c1 e0 03          	shl    $0x3,%rax
    2ac5:	48 8d 14 01          	lea    (%rcx,%rax,1),%rdx
    2ac9:	8b 45 a4             	mov    -0x5c(%rbp),%eax
    2acc:	89 42 1c             	mov    %eax,0x1c(%rdx)
    2acf:	48 8b 0d 00 00 00 00 	mov    0x0(%rip),%rcx        # 2ad6 <try_swap+0x481>
    2ad6:	8b 45 ec             	mov    -0x14(%rbp),%eax
    2ad9:	48 63 d0             	movslq %eax,%rdx
    2adc:	48 89 d0             	mov    %rdx,%rax
    2adf:	48 c1 e0 02          	shl    $0x2,%rax
    2ae3:	48 01 d0             	add    %rdx,%rax
    2ae6:	48 c1 e0 03          	shl    $0x3,%rax
    2aea:	48 8d 14 01          	lea    (%rcx,%rax,1),%rdx
    2aee:	8b 45 e8             	mov    -0x18(%rbp),%eax
    2af1:	89 42 20             	mov    %eax,0x20(%rdx)
    2af4:	8b 05 00 00 00 00    	mov    0x0(%rip),%eax        # 2afa <try_swap+0x4a5>
    2afa:	89 45 d0             	mov    %eax,-0x30(%rbp)
    2afd:	8b 05 00 00 00 00    	mov    0x0(%rip),%eax        # 2b03 <try_swap+0x4ae>
    2b03:	89 45 cc             	mov    %eax,-0x34(%rbp)
    2b06:	8b 05 00 00 00 00    	mov    0x0(%rip),%eax        # 2b0c <try_swap+0x4b7>
    2b0c:	89 45 a0             	mov    %eax,-0x60(%rbp)
    2b0f:	48 8b 0d 00 00 00 00 	mov    0x0(%rip),%rcx        # 2b16 <try_swap+0x4c1>
    2b16:	8b 45 ec             	mov    -0x14(%rbp),%eax
    2b19:	48 63 d0             	movslq %eax,%rdx
    2b1c:	48 89 d0             	mov    %rdx,%rax
    2b1f:	48 c1 e0 02          	shl    $0x2,%rax
    2b23:	48 01 d0             	add    %rdx,%rax
    2b26:	48 c1 e0 03          	shl    $0x3,%rax
    2b2a:	48 01 c8             	add    %rcx,%rax
    2b2d:	48 8b 40 08          	mov    0x8(%rax),%rax
    2b31:	8b 40 08             	mov    0x8(%rax),%eax
    2b34:	89 45 bc             	mov    %eax,-0x44(%rbp)
    2b37:	48 8b 35 00 00 00 00 	mov    0x0(%rip),%rsi        # 2b3e <try_swap+0x4e9>
    2b3e:	48 8b 05 00 00 00 00 	mov    0x0(%rip),%rax        # 2b45 <try_swap+0x4f0>
    2b45:	8b 7d bc             	mov    -0x44(%rbp),%edi
    2b48:	8b 4d e4             	mov    -0x1c(%rbp),%ecx
    2b4b:	8b 55 ec             	mov    -0x14(%rbp),%edx
    2b4e:	41 89 f8             	mov    %edi,%r8d
    2b51:	48 89 c7             	mov    %rax,%rdi
    2b54:	e8 5c 09 00 00       	callq  34b5 <find_affected_nets>
    2b59:	89 45 b8             	mov    %eax,-0x48(%rbp)
    2b5c:	83 bd 6c ff ff ff 01 	cmpl   $0x1,-0x94(%rbp)
    2b63:	75 1c                	jne    2b81 <try_swap+0x52c>
    2b65:	48 8b 8d 58 ff ff ff 	mov    -0xa8(%rbp),%rcx
    2b6c:	48 8b 85 60 ff ff ff 	mov    -0xa0(%rbp),%rax
    2b73:	8b 55 10             	mov    0x10(%rbp),%edx
    2b76:	48 89 ce             	mov    %rcx,%rsi
    2b79:	48 89 c7             	mov    %rax,%rdi
    2b7c:	e8 5c 07 00 00       	callq  32dd <save_region_occ>
    2b81:	c7 45 d4 00 00 00 00 	movl   $0x0,-0x2c(%rbp)
    2b88:	c7 45 dc 00 00 00 00 	movl   $0x0,-0x24(%rbp)
    2b8f:	e9 24 02 00 00       	jmpq   2db8 <try_swap+0x763>
    2b94:	48 8b 05 00 00 00 00 	mov    0x0(%rip),%rax        # 2b9b <try_swap+0x546>
    2b9b:	8b 55 dc             	mov    -0x24(%rbp),%edx
    2b9e:	48 63 d2             	movslq %edx,%rdx
    2ba1:	48 c1 e2 02          	shl    $0x2,%rdx
    2ba5:	48 01 d0             	add    %rdx,%rax
    2ba8:	8b 00                	mov    (%rax),%eax
    2baa:	89 45 b4             	mov    %eax,-0x4c(%rbp)
    2bad:	48 8b 05 00 00 00 00 	mov    0x0(%rip),%rax        # 2bb4 <try_swap+0x55f>
    2bb4:	8b 55 dc             	mov    -0x24(%rbp),%edx
    2bb7:	48 63 d2             	movslq %edx,%rdx
    2bba:	48 c1 e2 02          	shl    $0x2,%rdx
    2bbe:	48 01 d0             	add    %rdx,%rax
    2bc1:	8b 00                	mov    (%rax),%eax
    2bc3:	83 f8 02             	cmp    $0x2,%eax
    2bc6:	0f 84 e7 01 00 00    	je     2db3 <try_swap+0x75e>
    2bcc:	48 8b 0d 00 00 00 00 	mov    0x0(%rip),%rcx        # 2bd3 <try_swap+0x57e>
    2bd3:	8b 45 b4             	mov    -0x4c(%rbp),%eax
    2bd6:	48 63 d0             	movslq %eax,%rdx
    2bd9:	48 89 d0             	mov    %rdx,%rax
    2bdc:	48 c1 e0 02          	shl    $0x2,%rax
    2be0:	48 01 d0             	add    %rdx,%rax
    2be3:	48 c1 e0 03          	shl    $0x3,%rax
    2be7:	48 01 c8             	add    %rcx,%rax
    2bea:	8b 40 08             	mov    0x8(%rax),%eax
    2bed:	83 f8 03             	cmp    $0x3,%eax
    2bf0:	7f 26                	jg     2c18 <try_swap+0x5c3>
    2bf2:	48 8b 05 00 00 00 00 	mov    0x0(%rip),%rax        # 2bf9 <try_swap+0x5a4>
    2bf9:	8b 55 d4             	mov    -0x2c(%rbp),%edx
    2bfc:	48 63 d2             	movslq %edx,%rdx
    2bff:	48 c1 e2 04          	shl    $0x4,%rdx
    2c03:	48 01 c2             	add    %rax,%rdx
    2c06:	8b 45 b4             	mov    -0x4c(%rbp),%eax
    2c09:	48 89 d6             	mov    %rdx,%rsi
    2c0c:	89 c7                	mov    %eax,%edi
    2c0e:	e8 82 4e 00 00       	callq  7a95 <get_non_updateable_bb>
    2c13:	e9 b0 00 00 00       	jmpq   2cc8 <try_swap+0x673>
    2c18:	48 8b 05 00 00 00 00 	mov    0x0(%rip),%rax        # 2c1f <try_swap+0x5ca>
    2c1f:	8b 55 dc             	mov    -0x24(%rbp),%edx
    2c22:	48 63 d2             	movslq %edx,%rdx
    2c25:	48 c1 e2 02          	shl    $0x2,%rdx
    2c29:	48 01 d0             	add    %rdx,%rax
    2c2c:	8b 00                	mov    (%rax),%eax
    2c2e:	85 c0                	test   %eax,%eax
    2c30:	75 4c                	jne    2c7e <try_swap+0x629>
    2c32:	8b 4d a4             	mov    -0x5c(%rbp),%ecx
    2c35:	44 8b 4d a8          	mov    -0x58(%rbp),%r9d
    2c39:	48 8b 05 00 00 00 00 	mov    0x0(%rip),%rax        # 2c40 <try_swap+0x5eb>
    2c40:	8b 55 d4             	mov    -0x2c(%rbp),%edx
    2c43:	48 63 d2             	movslq %edx,%rdx
    2c46:	48 c1 e2 04          	shl    $0x4,%rdx
    2c4a:	48 8d 3c 10          	lea    (%rax,%rdx,1),%rdi
    2c4e:	48 8b 05 00 00 00 00 	mov    0x0(%rip),%rax        # 2c55 <try_swap+0x600>
    2c55:	8b 55 d4             	mov    -0x2c(%rbp),%edx
    2c58:	48 63 d2             	movslq %edx,%rdx
    2c5b:	48 c1 e2 04          	shl    $0x4,%rdx
    2c5f:	48 8d 34 10          	lea    (%rax,%rdx,1),%rsi
    2c63:	44 8b 45 c4          	mov    -0x3c(%rbp),%r8d
    2c67:	8b 55 c8             	mov    -0x38(%rbp),%edx
    2c6a:	8b 45 b4             	mov    -0x4c(%rbp),%eax
    2c6d:	89 0c 24             	mov    %ecx,(%rsp)
    2c70:	89 d1                	mov    %edx,%ecx
    2c72:	48 89 fa             	mov    %rdi,%rdx
    2c75:	89 c7                	mov    %eax,%edi
    2c77:	e8 65 50 00 00       	callq  7ce1 <update_bb>
    2c7c:	eb 4a                	jmp    2cc8 <try_swap+0x673>
    2c7e:	44 8b 45 a4          	mov    -0x5c(%rbp),%r8d
    2c82:	8b 55 a8             	mov    -0x58(%rbp),%edx
    2c85:	48 8b 05 00 00 00 00 	mov    0x0(%rip),%rax        # 2c8c <try_swap+0x637>
    2c8c:	8b 4d d4             	mov    -0x2c(%rbp),%ecx
    2c8f:	48 63 c9             	movslq %ecx,%rcx
    2c92:	48 c1 e1 04          	shl    $0x4,%rcx
    2c96:	48 8d 3c 08          	lea    (%rax,%rcx,1),%rdi
    2c9a:	48 8b 05 00 00 00 00 	mov    0x0(%rip),%rax        # 2ca1 <try_swap+0x64c>
    2ca1:	8b 4d d4             	mov    -0x2c(%rbp),%ecx
    2ca4:	48 63 c9             	movslq %ecx,%rcx
    2ca7:	48 c1 e1 04          	shl    $0x4,%rcx
    2cab:	48 8d 34 08          	lea    (%rax,%rcx,1),%rsi
    2caf:	44 8b 4d c8          	mov    -0x38(%rbp),%r9d
    2cb3:	8b 45 b4             	mov    -0x4c(%rbp),%eax
    2cb6:	8b 4d c4             	mov    -0x3c(%rbp),%ecx
    2cb9:	89 0c 24             	mov    %ecx,(%rsp)
    2cbc:	89 d1                	mov    %edx,%ecx
    2cbe:	48 89 fa             	mov    %rdi,%rdx
    2cc1:	89 c7                	mov    %eax,%edi
    2cc3:	e8 19 50 00 00       	callq  7ce1 <update_bb>
    2cc8:	83 bd 6c ff ff ff 01 	cmpl   $0x1,-0x94(%rbp)
    2ccf:	0f 84 8a 00 00 00    	je     2d5f <try_swap+0x70a>
    2cd5:	48 8b 05 00 00 00 00 	mov    0x0(%rip),%rax        # 2cdc <try_swap+0x687>
    2cdc:	8b 55 b4             	mov    -0x4c(%rbp),%edx
    2cdf:	48 63 d2             	movslq %edx,%rdx
    2ce2:	48 c1 e2 02          	shl    $0x2,%rdx
    2ce6:	48 8d 1c 10          	lea    (%rax,%rdx,1),%rbx
    2cea:	48 8b 05 00 00 00 00 	mov    0x0(%rip),%rax        # 2cf1 <try_swap+0x69c>
    2cf1:	8b 55 d4             	mov    -0x2c(%rbp),%edx
    2cf4:	48 63 d2             	movslq %edx,%rdx
    2cf7:	48 c1 e2 04          	shl    $0x4,%rdx
    2cfb:	48 01 c2             	add    %rax,%rdx
    2cfe:	8b 45 b4             	mov    -0x4c(%rbp),%eax
    2d01:	48 89 d6             	mov    %rdx,%rsi
    2d04:	89 c7                	mov    %eax,%edi
    2d06:	e8 07 4c 00 00       	callq  7912 <get_net_cost>
    2d0b:	f3 0f 11 85 4c ff ff 	movss  %xmm0,-0xb4(%rbp)
    2d12:	ff 
    2d13:	8b 85 4c ff ff ff    	mov    -0xb4(%rbp),%eax
    2d19:	89 03                	mov    %eax,(%rbx)
    2d1b:	48 8b 05 00 00 00 00 	mov    0x0(%rip),%rax        # 2d22 <try_swap+0x6cd>
    2d22:	8b 55 b4             	mov    -0x4c(%rbp),%edx
    2d25:	48 63 d2             	movslq %edx,%rdx
    2d28:	48 c1 e2 02          	shl    $0x2,%rdx
    2d2c:	48 01 d0             	add    %rdx,%rax
    2d2f:	f3 0f 10 00          	movss  (%rax),%xmm0
    2d33:	48 8b 05 00 00 00 00 	mov    0x0(%rip),%rax        # 2d3a <try_swap+0x6e5>
    2d3a:	8b 55 b4             	mov    -0x4c(%rbp),%edx
    2d3d:	48 63 d2             	movslq %edx,%rdx
    2d40:	48 c1 e2 02          	shl    $0x2,%rdx
    2d44:	48 01 d0             	add    %rdx,%rax
    2d47:	f3 0f 10 08          	movss  (%rax),%xmm1
    2d4b:	f3 0f 5c c1          	subss  %xmm1,%xmm0
    2d4f:	f3 0f 10 4d cc       	movss  -0x34(%rbp),%xmm1
    2d54:	f3 0f 58 c1          	addss  %xmm1,%xmm0
    2d58:	f3 0f 11 45 cc       	movss  %xmm0,-0x34(%rbp)
    2d5d:	eb 4e                	jmp    2dad <try_swap+0x758>
    2d5f:	48 8b 05 00 00 00 00 	mov    0x0(%rip),%rax        # 2d66 <try_swap+0x711>
    2d66:	8b 55 b4             	mov    -0x4c(%rbp),%edx
    2d69:	48 63 d2             	movslq %edx,%rdx
    2d6c:	48 c1 e2 04          	shl    $0x4,%rdx
    2d70:	48 8d 34 10          	lea    (%rax,%rdx,1),%rsi
    2d74:	8b 45 b4             	mov    -0x4c(%rbp),%eax
    2d77:	8b 4d 10             	mov    0x10(%rbp),%ecx
    2d7a:	ba ff ff ff ff       	mov    $0xffffffff,%edx
    2d7f:	89 c7                	mov    %eax,%edi
    2d81:	e8 a9 2c 00 00       	callq  5a2f <update_region_occ>
    2d86:	48 8b 05 00 00 00 00 	mov    0x0(%rip),%rax        # 2d8d <try_swap+0x738>
    2d8d:	8b 55 d4             	mov    -0x2c(%rbp),%edx
    2d90:	48 63 d2             	movslq %edx,%rdx
    2d93:	48 c1 e2 04          	shl    $0x4,%rdx
    2d97:	48 8d 34 10          	lea    (%rax,%rdx,1),%rsi
    2d9b:	8b 45 b4             	mov    -0x4c(%rbp),%eax
    2d9e:	8b 4d 10             	mov    0x10(%rbp),%ecx
    2da1:	ba 01 00 00 00       	mov    $0x1,%edx
    2da6:	89 c7                	mov    %eax,%edi
    2da8:	e8 82 2c 00 00       	callq  5a2f <update_region_occ>
    2dad:	83 45 d4 01          	addl   $0x1,-0x2c(%rbp)
    2db1:	eb 01                	jmp    2db4 <try_swap+0x75f>
    2db3:	90                   	nop
    2db4:	83 45 dc 01          	addl   $0x1,-0x24(%rbp)
    2db8:	8b 45 dc             	mov    -0x24(%rbp),%eax
    2dbb:	3b 45 b8             	cmp    -0x48(%rbp),%eax
    2dbe:	0f 8c d0 fd ff ff    	jl     2b94 <try_swap+0x53f>
    2dc4:	83 bd 6c ff ff ff 01 	cmpl   $0x1,-0x94(%rbp)
    2dcb:	75 32                	jne    2dff <try_swap+0x7aa>
    2dcd:	8b 7d 10             	mov    0x10(%rbp),%edi
    2dd0:	e8 9e 29 00 00       	callq  5773 <nonlinear_cong_cost>
    2dd5:	f3 0f 11 85 4c ff ff 	movss  %xmm0,-0xb4(%rbp)
    2ddc:	ff 
    2ddd:	8b 85 4c ff ff ff    	mov    -0xb4(%rbp),%eax
    2de3:	89 45 b0             	mov    %eax,-0x50(%rbp)
    2de6:	48 8b 85 78 ff ff ff 	mov    -0x88(%rbp),%rax
    2ded:	f3 0f 10 08          	movss  (%rax),%xmm1
    2df1:	f3 0f 10 45 b0       	movss  -0x50(%rbp),%xmm0
    2df6:	f3 0f 5c c1          	subss  %xmm1,%xmm0
    2dfa:	f3 0f 11 45 cc       	movss  %xmm0,-0x34(%rbp)
    2dff:	83 7d 20 01          	cmpl   $0x1,0x20(%rbp)
    2e03:	74 06                	je     2e0b <try_swap+0x7b6>
    2e05:	83 7d 20 02          	cmpl   $0x2,0x20(%rbp)
    2e09:	75 5b                	jne    2e66 <try_swap+0x811>
    2e0b:	48 8d 7d 9c          	lea    -0x64(%rbp),%rdi
    2e0f:	48 8d 4d a0          	lea    -0x60(%rbp),%rcx
    2e13:	8b 55 bc             	mov    -0x44(%rbp),%edx
    2e16:	8b 75 e4             	mov    -0x1c(%rbp),%esi
    2e19:	8b 45 ec             	mov    -0x14(%rbp),%eax
    2e1c:	49 89 f8             	mov    %rdi,%r8
    2e1f:	89 c7                	mov    %eax,%edi
    2e21:	e8 72 1c 00 00       	callq  4a98 <comp_delta_td_cost>
    2e26:	f3 0f 10 05 00 00 00 	movss  0x0(%rip),%xmm0        # 2e2e <try_swap+0x7d9>
    2e2d:	00 
    2e2e:	f3 0f 5c 85 68 ff ff 	subss  -0x98(%rbp),%xmm0
    2e35:	ff 
    2e36:	f3 0f 59 45 cc       	mulss  -0x34(%rbp),%xmm0
    2e3b:	0f 28 c8             	movaps %xmm0,%xmm1
    2e3e:	f3 0f 59 8d 54 ff ff 	mulss  -0xac(%rbp),%xmm1
    2e45:	ff 
    2e46:	f3 0f 10 45 a0       	movss  -0x60(%rbp),%xmm0
    2e4b:	f3 0f 59 85 68 ff ff 	mulss  -0x98(%rbp),%xmm0
    2e52:	ff 
    2e53:	f3 0f 59 85 50 ff ff 	mulss  -0xb0(%rbp),%xmm0
    2e5a:	ff 
    2e5b:	f3 0f 58 c1          	addss  %xmm1,%xmm0
    2e5f:	f3 0f 11 45 d0       	movss  %xmm0,-0x30(%rbp)
    2e64:	eb 06                	jmp    2e6c <try_swap+0x817>
    2e66:	8b 45 cc             	mov    -0x34(%rbp),%eax
    2e69:	89 45 d0             	mov    %eax,-0x30(%rbp)
    2e6c:	8b 55 8c             	mov    -0x74(%rbp),%edx
    2e6f:	8b 45 d0             	mov    -0x30(%rbp),%eax
    2e72:	89 95 4c ff ff ff    	mov    %edx,-0xb4(%rbp)
    2e78:	f3 0f 10 8d 4c ff ff 	movss  -0xb4(%rbp),%xmm1
    2e7f:	ff 
    2e80:	89 85 4c ff ff ff    	mov    %eax,-0xb4(%rbp)
    2e86:	f3 0f 10 85 4c ff ff 	movss  -0xb4(%rbp),%xmm0
    2e8d:	ff 
    2e8e:	e8 a6 10 00 00       	callq  3f39 <assess_swap>
    2e93:	89 45 ac             	mov    %eax,-0x54(%rbp)
    2e96:	83 7d ac 00          	cmpl   $0x0,-0x54(%rbp)
    2e9a:	0f 84 dd 02 00 00    	je     317d <try_swap+0xb28>
    2ea0:	48 8b 45 80          	mov    -0x80(%rbp),%rax
    2ea4:	f3 0f 10 00          	movss  (%rax),%xmm0
    2ea8:	f3 0f 58 45 d0       	addss  -0x30(%rbp),%xmm0
    2ead:	48 8b 45 80          	mov    -0x80(%rbp),%rax
    2eb1:	f3 0f 11 00          	movss  %xmm0,(%rax)
    2eb5:	48 8b 85 78 ff ff ff 	mov    -0x88(%rbp),%rax
    2ebc:	f3 0f 10 00          	movss  (%rax),%xmm0
    2ec0:	f3 0f 58 45 cc       	addss  -0x34(%rbp),%xmm0
    2ec5:	48 8b 85 78 ff ff ff 	mov    -0x88(%rbp),%rax
    2ecc:	f3 0f 11 00          	movss  %xmm0,(%rax)
    2ed0:	83 7d 20 01          	cmpl   $0x1,0x20(%rbp)
    2ed4:	74 06                	je     2edc <try_swap+0x887>
    2ed6:	83 7d 20 02          	cmpl   $0x2,0x20(%rbp)
    2eda:	75 4a                	jne    2f26 <try_swap+0x8d1>
    2edc:	48 8b 85 70 ff ff ff 	mov    -0x90(%rbp),%rax
    2ee3:	f3 0f 10 08          	movss  (%rax),%xmm1
    2ee7:	f3 0f 10 45 a0       	movss  -0x60(%rbp),%xmm0
    2eec:	f3 0f 58 c1          	addss  %xmm1,%xmm0
    2ef0:	48 8b 85 70 ff ff ff 	mov    -0x90(%rbp),%rax
    2ef7:	f3 0f 11 00          	movss  %xmm0,(%rax)
    2efb:	48 8b 45 28          	mov    0x28(%rbp),%rax
    2eff:	f3 0f 10 08          	movss  (%rax),%xmm1
    2f03:	f3 0f 10 45 9c       	movss  -0x64(%rbp),%xmm0
    2f08:	f3 0f 58 c1          	addss  %xmm1,%xmm0
    2f0c:	48 8b 45 28          	mov    0x28(%rbp),%rax
    2f10:	f3 0f 11 00          	movss  %xmm0,(%rax)
    2f14:	8b 55 bc             	mov    -0x44(%rbp),%edx
    2f17:	8b 4d e4             	mov    -0x1c(%rbp),%ecx
    2f1a:	8b 45 ec             	mov    -0x14(%rbp),%eax
    2f1d:	89 ce                	mov    %ecx,%esi
    2f1f:	89 c7                	mov    %eax,%edi
    2f21:	e8 e6 14 00 00       	callq  440c <update_td_cost>
    2f26:	c7 45 d4 00 00 00 00 	movl   $0x0,-0x2c(%rbp)
    2f2d:	c7 45 dc 00 00 00 00 	movl   $0x0,-0x24(%rbp)
    2f34:	e9 37 01 00 00       	jmpq   3070 <try_swap+0xa1b>
    2f39:	48 8b 05 00 00 00 00 	mov    0x0(%rip),%rax        # 2f40 <try_swap+0x8eb>
    2f40:	8b 55 dc             	mov    -0x24(%rbp),%edx
    2f43:	48 63 d2             	movslq %edx,%rdx
    2f46:	48 c1 e2 02          	shl    $0x2,%rdx
    2f4a:	48 01 d0             	add    %rdx,%rax
    2f4d:	8b 00                	mov    (%rax),%eax
    2f4f:	89 45 b4             	mov    %eax,-0x4c(%rbp)
    2f52:	48 8b 05 00 00 00 00 	mov    0x0(%rip),%rax        # 2f59 <try_swap+0x904>
    2f59:	8b 55 dc             	mov    -0x24(%rbp),%edx
    2f5c:	48 63 d2             	movslq %edx,%rdx
    2f5f:	48 c1 e2 02          	shl    $0x2,%rdx
    2f63:	48 01 d0             	add    %rdx,%rax
    2f66:	8b 00                	mov    (%rax),%eax
    2f68:	83 f8 02             	cmp    $0x2,%eax
    2f6b:	75 21                	jne    2f8e <try_swap+0x939>
    2f6d:	48 8b 05 00 00 00 00 	mov    0x0(%rip),%rax        # 2f74 <try_swap+0x91f>
    2f74:	8b 55 b4             	mov    -0x4c(%rbp),%edx
    2f77:	48 63 d2             	movslq %edx,%rdx
    2f7a:	48 c1 e2 02          	shl    $0x2,%rdx
    2f7e:	48 01 c2             	add    %rax,%rdx
    2f81:	8b 05 00 00 00 00    	mov    0x0(%rip),%eax        # 2f87 <try_swap+0x932>
    2f87:	89 02                	mov    %eax,(%rdx)
    2f89:	e9 de 00 00 00       	jmpq   306c <try_swap+0xa17>
    2f8e:	48 8b 05 00 00 00 00 	mov    0x0(%rip),%rax        # 2f95 <try_swap+0x940>
    2f95:	8b 55 b4             	mov    -0x4c(%rbp),%edx
    2f98:	48 63 d2             	movslq %edx,%rdx
    2f9b:	48 c1 e2 04          	shl    $0x4,%rdx
    2f9f:	48 01 d0             	add    %rdx,%rax
    2fa2:	48 8b 15 00 00 00 00 	mov    0x0(%rip),%rdx        # 2fa9 <try_swap+0x954>
    2fa9:	8b 4d d4             	mov    -0x2c(%rbp),%ecx
    2fac:	48 63 c9             	movslq %ecx,%rcx
    2faf:	48 c1 e1 04          	shl    $0x4,%rcx
    2fb3:	48 01 ca             	add    %rcx,%rdx
    2fb6:	48 8b 0a             	mov    (%rdx),%rcx
    2fb9:	48 89 08             	mov    %rcx,(%rax)
    2fbc:	48 8b 52 08          	mov    0x8(%rdx),%rdx
    2fc0:	48 89 50 08          	mov    %rdx,0x8(%rax)
    2fc4:	48 8b 0d 00 00 00 00 	mov    0x0(%rip),%rcx        # 2fcb <try_swap+0x976>
    2fcb:	8b 45 b4             	mov    -0x4c(%rbp),%eax
    2fce:	48 63 d0             	movslq %eax,%rdx
    2fd1:	48 89 d0             	mov    %rdx,%rax
    2fd4:	48 c1 e0 02          	shl    $0x2,%rax
    2fd8:	48 01 d0             	add    %rdx,%rax
    2fdb:	48 c1 e0 03          	shl    $0x3,%rax
    2fdf:	48 01 c8             	add    %rcx,%rax
    2fe2:	8b 40 08             	mov    0x8(%rax),%eax
    2fe5:	83 f8 03             	cmp    $0x3,%eax
    2fe8:	7e 36                	jle    3020 <try_swap+0x9cb>
    2fea:	48 8b 05 00 00 00 00 	mov    0x0(%rip),%rax        # 2ff1 <try_swap+0x99c>
    2ff1:	8b 55 b4             	mov    -0x4c(%rbp),%edx
    2ff4:	48 63 d2             	movslq %edx,%rdx
    2ff7:	48 c1 e2 04          	shl    $0x4,%rdx
    2ffb:	48 01 d0             	add    %rdx,%rax
    2ffe:	48 8b 15 00 00 00 00 	mov    0x0(%rip),%rdx        # 3005 <try_swap+0x9b0>
    3005:	8b 4d d4             	mov    -0x2c(%rbp),%ecx
    3008:	48 63 c9             	movslq %ecx,%rcx
    300b:	48 c1 e1 04          	shl    $0x4,%rcx
    300f:	48 01 ca             	add    %rcx,%rdx
    3012:	48 8b 0a             	mov    (%rdx),%rcx
    3015:	48 89 08             	mov    %rcx,(%rax)
    3018:	48 8b 52 08          	mov    0x8(%rdx),%rdx
    301c:	48 89 50 08          	mov    %rdx,0x8(%rax)
    3020:	83 45 d4 01          	addl   $0x1,-0x2c(%rbp)
    3024:	48 8b 05 00 00 00 00 	mov    0x0(%rip),%rax        # 302b <try_swap+0x9d6>
    302b:	8b 55 b4             	mov    -0x4c(%rbp),%edx
    302e:	48 63 d2             	movslq %edx,%rdx
    3031:	48 c1 e2 02          	shl    $0x2,%rdx
    3035:	48 01 c2             	add    %rax,%rdx
    3038:	48 8b 05 00 00 00 00 	mov    0x0(%rip),%rax        # 303f <try_swap+0x9ea>
    303f:	8b 4d b4             	mov    -0x4c(%rbp),%ecx
    3042:	48 63 c9             	movslq %ecx,%rcx
    3045:	48 c1 e1 02          	shl    $0x2,%rcx
    3049:	48 01 c8             	add    %rcx,%rax
    304c:	8b 00                	mov    (%rax),%eax
    304e:	89 02                	mov    %eax,(%rdx)
    3050:	48 8b 05 00 00 00 00 	mov    0x0(%rip),%rax        # 3057 <try_swap+0xa02>
    3057:	8b 55 b4             	mov    -0x4c(%rbp),%edx
    305a:	48 63 d2             	movslq %edx,%rdx
    305d:	48 c1 e2 02          	shl    $0x2,%rdx
    3061:	48 01 c2             	add    %rax,%rdx
    3064:	8b 05 00 00 00 00    	mov    0x0(%rip),%eax        # 306a <try_swap+0xa15>
    306a:	89 02                	mov    %eax,(%rdx)
    306c:	83 45 dc 01          	addl   $0x1,-0x24(%rbp)
    3070:	8b 45 dc             	mov    -0x24(%rbp),%eax
    3073:	3b 45 b8             	cmp    -0x48(%rbp),%eax
    3076:	0f 8c bd fe ff ff    	jl     2f39 <try_swap+0x8e4>
    307c:	48 8b 05 00 00 00 00 	mov    0x0(%rip),%rax        # 3083 <try_swap+0xa2e>
    3083:	8b 55 a8             	mov    -0x58(%rbp),%edx
    3086:	48 63 d2             	movslq %edx,%rdx
    3089:	48 c1 e2 03          	shl    $0x3,%rdx
    308d:	48 01 d0             	add    %rdx,%rax
    3090:	48 8b 08             	mov    (%rax),%rcx
    3093:	8b 45 a4             	mov    -0x5c(%rbp),%eax
    3096:	48 63 d0             	movslq %eax,%rdx
    3099:	48 89 d0             	mov    %rdx,%rax
    309c:	48 01 c0             	add    %rax,%rax
    309f:	48 01 d0             	add    %rdx,%rax
    30a2:	48 c1 e0 03          	shl    $0x3,%rax
    30a6:	48 01 c8             	add    %rcx,%rax
    30a9:	48 8b 40 10          	mov    0x10(%rax),%rax
    30ad:	8b 55 e8             	mov    -0x18(%rbp),%edx
    30b0:	48 63 d2             	movslq %edx,%rdx
    30b3:	48 c1 e2 02          	shl    $0x2,%rdx
    30b7:	48 01 c2             	add    %rax,%rdx
    30ba:	8b 45 ec             	mov    -0x14(%rbp),%eax
    30bd:	89 02                	mov    %eax,(%rdx)
    30bf:	48 8b 05 00 00 00 00 	mov    0x0(%rip),%rax        # 30c6 <try_swap+0xa71>
    30c6:	8b 55 c8             	mov    -0x38(%rbp),%edx
    30c9:	48 63 d2             	movslq %edx,%rdx
    30cc:	48 c1 e2 03          	shl    $0x3,%rdx
    30d0:	48 01 d0             	add    %rdx,%rax
    30d3:	48 8b 08             	mov    (%rax),%rcx
    30d6:	8b 45 c4             	mov    -0x3c(%rbp),%eax
    30d9:	48 63 d0             	movslq %eax,%rdx
    30dc:	48 89 d0             	mov    %rdx,%rax
    30df:	48 01 c0             	add    %rax,%rax
    30e2:	48 01 d0             	add    %rdx,%rax
    30e5:	48 c1 e0 03          	shl    $0x3,%rax
    30e9:	48 01 c8             	add    %rcx,%rax
    30ec:	48 8b 40 10          	mov    0x10(%rax),%rax
    30f0:	8b 55 c0             	mov    -0x40(%rbp),%edx
    30f3:	48 63 d2             	movslq %edx,%rdx
    30f6:	48 c1 e2 02          	shl    $0x2,%rdx
    30fa:	48 01 c2             	add    %rax,%rdx
    30fd:	8b 45 e4             	mov    -0x1c(%rbp),%eax
    3100:	89 02                	mov    %eax,(%rdx)
    3102:	83 7d e4 ff          	cmpl   $0xffffffff,-0x1c(%rbp)
    3106:	0f 85 c4 01 00 00    	jne    32d0 <try_swap+0xc7b>
    310c:	48 8b 05 00 00 00 00 	mov    0x0(%rip),%rax        # 3113 <try_swap+0xabe>
    3113:	8b 55 a8             	mov    -0x58(%rbp),%edx
    3116:	48 63 d2             	movslq %edx,%rdx
    3119:	48 c1 e2 03          	shl    $0x3,%rdx
    311d:	48 01 d0             	add    %rdx,%rax
    3120:	48 8b 08             	mov    (%rax),%rcx
    3123:	8b 45 a4             	mov    -0x5c(%rbp),%eax
    3126:	48 63 d0             	movslq %eax,%rdx
    3129:	48 89 d0             	mov    %rdx,%rax
    312c:	48 01 c0             	add    %rax,%rax
    312f:	48 01 d0             	add    %rdx,%rax
    3132:	48 c1 e0 03          	shl    $0x3,%rax
    3136:	48 01 c8             	add    %rcx,%rax
    3139:	8b 50 0c             	mov    0xc(%rax),%edx
    313c:	83 c2 01             	add    $0x1,%edx
    313f:	89 50 0c             	mov    %edx,0xc(%rax)
    3142:	48 8b 05 00 00 00 00 	mov    0x0(%rip),%rax        # 3149 <try_swap+0xaf4>
    3149:	8b 55 c8             	mov    -0x38(%rbp),%edx
    314c:	48 63 d2             	movslq %edx,%rdx
    314f:	48 c1 e2 03          	shl    $0x3,%rdx
    3153:	48 01 d0             	add    %rdx,%rax
    3156:	48 8b 08             	mov    (%rax),%rcx
    3159:	8b 45 c4             	mov    -0x3c(%rbp),%eax
    315c:	48 63 d0             	movslq %eax,%rdx
    315f:	48 89 d0             	mov    %rdx,%rax
    3162:	48 01 c0             	add    %rax,%rax
    3165:	48 01 d0             	add    %rdx,%rax
    3168:	48 c1 e0 03          	shl    $0x3,%rax
    316c:	48 01 c8             	add    %rcx,%rax
    316f:	8b 50 0c             	mov    0xc(%rax),%edx
    3172:	83 ea 01             	sub    $0x1,%edx
    3175:	89 50 0c             	mov    %edx,0xc(%rax)
    3178:	e9 53 01 00 00       	jmpq   32d0 <try_swap+0xc7b>
    317d:	c7 45 dc 00 00 00 00 	movl   $0x0,-0x24(%rbp)
    3184:	eb 39                	jmp    31bf <try_swap+0xb6a>
    3186:	48 8b 05 00 00 00 00 	mov    0x0(%rip),%rax        # 318d <try_swap+0xb38>
    318d:	8b 55 dc             	mov    -0x24(%rbp),%edx
    3190:	48 63 d2             	movslq %edx,%rdx
    3193:	48 c1 e2 02          	shl    $0x2,%rdx
    3197:	48 01 d0             	add    %rdx,%rax
    319a:	8b 00                	mov    (%rax),%eax
    319c:	89 45 b4             	mov    %eax,-0x4c(%rbp)
    319f:	48 8b 05 00 00 00 00 	mov    0x0(%rip),%rax        # 31a6 <try_swap+0xb51>
    31a6:	8b 55 b4             	mov    -0x4c(%rbp),%edx
    31a9:	48 63 d2             	movslq %edx,%rdx
    31ac:	48 c1 e2 02          	shl    $0x2,%rdx
    31b0:	48 01 c2             	add    %rax,%rdx
    31b3:	8b 05 00 00 00 00    	mov    0x0(%rip),%eax        # 31b9 <try_swap+0xb64>
    31b9:	89 02                	mov    %eax,(%rdx)
    31bb:	83 45 dc 01          	addl   $0x1,-0x24(%rbp)
    31bf:	8b 45 dc             	mov    -0x24(%rbp),%eax
    31c2:	3b 45 b8             	cmp    -0x48(%rbp),%eax
    31c5:	7c bf                	jl     3186 <try_swap+0xb31>
    31c7:	48 8b 0d 00 00 00 00 	mov    0x0(%rip),%rcx        # 31ce <try_swap+0xb79>
    31ce:	8b 45 ec             	mov    -0x14(%rbp),%eax
    31d1:	48 63 d0             	movslq %eax,%rdx
    31d4:	48 89 d0             	mov    %rdx,%rax
    31d7:	48 c1 e0 02          	shl    $0x2,%rax
    31db:	48 01 d0             	add    %rdx,%rax
    31de:	48 c1 e0 03          	shl    $0x3,%rax
    31e2:	48 8d 14 01          	lea    (%rcx,%rax,1),%rdx
    31e6:	8b 45 c8             	mov    -0x38(%rbp),%eax
    31e9:	89 42 18             	mov    %eax,0x18(%rdx)
    31ec:	48 8b 0d 00 00 00 00 	mov    0x0(%rip),%rcx        # 31f3 <try_swap+0xb9e>
    31f3:	8b 45 ec             	mov    -0x14(%rbp),%eax
    31f6:	48 63 d0             	movslq %eax,%rdx
    31f9:	48 89 d0             	mov    %rdx,%rax
    31fc:	48 c1 e0 02          	shl    $0x2,%rax
    3200:	48 01 d0             	add    %rdx,%rax
    3203:	48 c1 e0 03          	shl    $0x3,%rax
    3207:	48 8d 14 01          	lea    (%rcx,%rax,1),%rdx
    320b:	8b 45 c4             	mov    -0x3c(%rbp),%eax
    320e:	89 42 1c             	mov    %eax,0x1c(%rdx)
    3211:	48 8b 0d 00 00 00 00 	mov    0x0(%rip),%rcx        # 3218 <try_swap+0xbc3>
    3218:	8b 45 ec             	mov    -0x14(%rbp),%eax
    321b:	48 63 d0             	movslq %eax,%rdx
    321e:	48 89 d0             	mov    %rdx,%rax
    3221:	48 c1 e0 02          	shl    $0x2,%rax
    3225:	48 01 d0             	add    %rdx,%rax
    3228:	48 c1 e0 03          	shl    $0x3,%rax
    322c:	48 8d 14 01          	lea    (%rcx,%rax,1),%rdx
    3230:	8b 45 c0             	mov    -0x40(%rbp),%eax
    3233:	89 42 20             	mov    %eax,0x20(%rdx)
    3236:	83 7d e4 ff          	cmpl   $0xffffffff,-0x1c(%rbp)
    323a:	74 6f                	je     32ab <try_swap+0xc56>
    323c:	48 8b 0d 00 00 00 00 	mov    0x0(%rip),%rcx        # 3243 <try_swap+0xbee>
    3243:	8b 45 e4             	mov    -0x1c(%rbp),%eax
    3246:	48 63 d0             	movslq %eax,%rdx
    3249:	48 89 d0             	mov    %rdx,%rax
    324c:	48 c1 e0 02          	shl    $0x2,%rax
    3250:	48 01 d0             	add    %rdx,%rax
    3253:	48 c1 e0 03          	shl    $0x3,%rax
    3257:	48 8d 14 01          	lea    (%rcx,%rax,1),%rdx
    325b:	8b 45 a8             	mov    -0x58(%rbp),%eax
    325e:	89 42 18             	mov    %eax,0x18(%rdx)
    3261:	48 8b 0d 00 00 00 00 	mov    0x0(%rip),%rcx        # 3268 <try_swap+0xc13>
    3268:	8b 45 e4             	mov    -0x1c(%rbp),%eax
    326b:	48 63 d0             	movslq %eax,%rdx
    326e:	48 89 d0             	mov    %rdx,%rax
    3271:	48 c1 e0 02          	shl    $0x2,%rax
    3275:	48 01 d0             	add    %rdx,%rax
    3278:	48 c1 e0 03          	shl    $0x3,%rax
    327c:	48 8d 14 01          	lea    (%rcx,%rax,1),%rdx
    3280:	8b 45 a4             	mov    -0x5c(%rbp),%eax
    3283:	89 42 1c             	mov    %eax,0x1c(%rdx)
    3286:	48 8b 0d 00 00 00 00 	mov    0x0(%rip),%rcx        # 328d <try_swap+0xc38>
    328d:	8b 45 e4             	mov    -0x1c(%rbp),%eax
    3290:	48 63 d0             	movslq %eax,%rdx
    3293:	48 89 d0             	mov    %rdx,%rax
    3296:	48 c1 e0 02          	shl    $0x2,%rax
    329a:	48 01 d0             	add    %rdx,%rax
    329d:	48 c1 e0 03          	shl    $0x3,%rax
    32a1:	48 8d 14 01          	lea    (%rcx,%rax,1),%rdx
    32a5:	8b 45 e8             	mov    -0x18(%rbp),%eax
    32a8:	89 42 20             	mov    %eax,0x20(%rdx)
    32ab:	83 bd 6c ff ff ff 01 	cmpl   $0x1,-0x94(%rbp)
    32b2:	75 1c                	jne    32d0 <try_swap+0xc7b>
    32b4:	48 8b 8d 58 ff ff ff 	mov    -0xa8(%rbp),%rcx
    32bb:	48 8b 85 60 ff ff ff 	mov    -0xa0(%rbp),%rax
    32c2:	8b 55 10             	mov    0x10(%rbp),%edx
    32c5:	48 89 ce             	mov    %rcx,%rsi
    32c8:	48 89 c7             	mov    %rax,%rdi
    32cb:	e8 f9 00 00 00       	callq  33c9 <restore_region_occ>
    32d0:	8b 45 ac             	mov    -0x54(%rbp),%eax
    32d3:	48 81 c4 c8 00 00 00 	add    $0xc8,%rsp
    32da:	5b                   	pop    %rbx
    32db:	5d                   	pop    %rbp
    32dc:	c3                   	retq   

00000000000032dd <save_region_occ>:
    32dd:	55                   	push   %rbp
    32de:	48 89 e5             	mov    %rsp,%rbp
    32e1:	48 83 ec 28          	sub    $0x28,%rsp
    32e5:	e8 00 00 00 00       	callq  32ea <save_region_occ+0xd>
    32ea:	48 89 7d e8          	mov    %rdi,-0x18(%rbp)
    32ee:	48 89 75 e0          	mov    %rsi,-0x20(%rbp)
    32f2:	89 55 dc             	mov    %edx,-0x24(%rbp)
    32f5:	c7 45 fc 00 00 00 00 	movl   $0x0,-0x4(%rbp)
    32fc:	e9 ba 00 00 00       	jmpq   33bb <save_region_occ+0xde>
    3301:	c7 45 f8 00 00 00 00 	movl   $0x0,-0x8(%rbp)
    3308:	e9 9e 00 00 00       	jmpq   33ab <save_region_occ+0xce>
    330d:	8b 45 fc             	mov    -0x4(%rbp),%eax
    3310:	48 98                	cltq   
    3312:	48 8d 14 c5 00 00 00 	lea    0x0(,%rax,8),%rdx
    3319:	00 
    331a:	48 8b 45 e8          	mov    -0x18(%rbp),%rax
    331e:	48 01 d0             	add    %rdx,%rax
    3321:	48 8b 00             	mov    (%rax),%rax
    3324:	8b 55 f8             	mov    -0x8(%rbp),%edx
    3327:	48 63 d2             	movslq %edx,%rdx
    332a:	48 c1 e2 02          	shl    $0x2,%rdx
    332e:	48 01 c2             	add    %rax,%rdx
    3331:	48 8b 05 00 00 00 00 	mov    0x0(%rip),%rax        # 3338 <save_region_occ+0x5b>
    3338:	8b 4d fc             	mov    -0x4(%rbp),%ecx
    333b:	48 63 c9             	movslq %ecx,%rcx
    333e:	48 c1 e1 03          	shl    $0x3,%rcx
    3342:	48 01 c8             	add    %rcx,%rax
    3345:	48 8b 00             	mov    (%rax),%rax
    3348:	8b 4d f8             	mov    -0x8(%rbp),%ecx
    334b:	48 63 c9             	movslq %ecx,%rcx
    334e:	48 c1 e1 04          	shl    $0x4,%rcx
    3352:	48 01 c8             	add    %rcx,%rax
    3355:	8b 40 08             	mov    0x8(%rax),%eax
    3358:	89 02                	mov    %eax,(%rdx)
    335a:	8b 45 fc             	mov    -0x4(%rbp),%eax
    335d:	48 98                	cltq   
    335f:	48 8d 14 c5 00 00 00 	lea    0x0(,%rax,8),%rdx
    3366:	00 
    3367:	48 8b 45 e0          	mov    -0x20(%rbp),%rax
    336b:	48 01 d0             	add    %rdx,%rax
    336e:	48 8b 00             	mov    (%rax),%rax
    3371:	8b 55 f8             	mov    -0x8(%rbp),%edx
    3374:	48 63 d2             	movslq %edx,%rdx
    3377:	48 c1 e2 02          	shl    $0x2,%rdx
    337b:	48 01 c2             	add    %rax,%rdx
    337e:	48 8b 05 00 00 00 00 	mov    0x0(%rip),%rax        # 3385 <save_region_occ+0xa8>
    3385:	8b 4d fc             	mov    -0x4(%rbp),%ecx
    3388:	48 63 c9             	movslq %ecx,%rcx
    338b:	48 c1 e1 03          	shl    $0x3,%rcx
    338f:	48 01 c8             	add    %rcx,%rax
    3392:	48 8b 00             	mov    (%rax),%rax
    3395:	8b 4d f8             	mov    -0x8(%rbp),%ecx
    3398:	48 63 c9             	movslq %ecx,%rcx
    339b:	48 c1 e1 04          	shl    $0x4,%rcx
    339f:	48 01 c8             	add    %rcx,%rax
    33a2:	8b 40 08             	mov    0x8(%rax),%eax
    33a5:	89 02                	mov    %eax,(%rdx)
    33a7:	83 45 f8 01          	addl   $0x1,-0x8(%rbp)
    33ab:	8b 45 f8             	mov    -0x8(%rbp),%eax
    33ae:	3b 45 dc             	cmp    -0x24(%rbp),%eax
    33b1:	0f 8c 56 ff ff ff    	jl     330d <save_region_occ+0x30>
    33b7:	83 45 fc 01          	addl   $0x1,-0x4(%rbp)
    33bb:	8b 45 fc             	mov    -0x4(%rbp),%eax
    33be:	3b 45 dc             	cmp    -0x24(%rbp),%eax
    33c1:	0f 8c 3a ff ff ff    	jl     3301 <save_region_occ+0x24>
    33c7:	c9                   	leaveq 
    33c8:	c3                   	retq   

00000000000033c9 <restore_region_occ>:
    33c9:	55                   	push   %rbp
    33ca:	48 89 e5             	mov    %rsp,%rbp
    33cd:	48 83 ec 28          	sub    $0x28,%rsp
    33d1:	e8 00 00 00 00       	callq  33d6 <restore_region_occ+0xd>
    33d6:	48 89 7d e8          	mov    %rdi,-0x18(%rbp)
    33da:	48 89 75 e0          	mov    %rsi,-0x20(%rbp)
    33de:	89 55 dc             	mov    %edx,-0x24(%rbp)
    33e1:	c7 45 fc 00 00 00 00 	movl   $0x0,-0x4(%rbp)
    33e8:	e9 ba 00 00 00       	jmpq   34a7 <restore_region_occ+0xde>
    33ed:	c7 45 f8 00 00 00 00 	movl   $0x0,-0x8(%rbp)
    33f4:	e9 9e 00 00 00       	jmpq   3497 <restore_region_occ+0xce>
    33f9:	48 8b 05 00 00 00 00 	mov    0x0(%rip),%rax        # 3400 <restore_region_occ+0x37>
    3400:	8b 55 fc             	mov    -0x4(%rbp),%edx
    3403:	48 63 d2             	movslq %edx,%rdx
    3406:	48 c1 e2 03          	shl    $0x3,%rdx
    340a:	48 01 d0             	add    %rdx,%rax
    340d:	48 8b 00             	mov    (%rax),%rax
    3410:	8b 55 f8             	mov    -0x8(%rbp),%edx
    3413:	48 63 d2             	movslq %edx,%rdx
    3416:	48 c1 e2 04          	shl    $0x4,%rdx
    341a:	48 01 c2             	add    %rax,%rdx
    341d:	8b 45 fc             	mov    -0x4(%rbp),%eax
    3420:	48 98                	cltq   
    3422:	48 8d 0c c5 00 00 00 	lea    0x0(,%rax,8),%rcx
    3429:	00 
    342a:	48 8b 45 e8          	mov    -0x18(%rbp),%rax
    342e:	48 01 c8             	add    %rcx,%rax
    3431:	48 8b 00             	mov    (%rax),%rax
    3434:	8b 4d f8             	mov    -0x8(%rbp),%ecx
    3437:	48 63 c9             	movslq %ecx,%rcx
    343a:	48 c1 e1 02          	shl    $0x2,%rcx
    343e:	48 01 c8             	add    %rcx,%rax
    3441:	8b 00                	mov    (%rax),%eax
    3443:	89 42 08             	mov    %eax,0x8(%rdx)
    3446:	48 8b 05 00 00 00 00 	mov    0x0(%rip),%rax        # 344d <restore_region_occ+0x84>
    344d:	8b 55 fc             	mov    -0x4(%rbp),%edx
    3450:	48 63 d2             	movslq %edx,%rdx
    3453:	48 c1 e2 03          	shl    $0x3,%rdx
    3457:	48 01 d0             	add    %rdx,%rax
    345a:	48 8b 00             	mov    (%rax),%rax
    345d:	8b 55 f8             	mov    -0x8(%rbp),%edx
    3460:	48 63 d2             	movslq %edx,%rdx
    3463:	48 c1 e2 04          	shl    $0x4,%rdx
    3467:	48 01 c2             	add    %rax,%rdx
    346a:	8b 45 fc             	mov    -0x4(%rbp),%eax
    346d:	48 98                	cltq   
    346f:	48 8d 0c c5 00 00 00 	lea    0x0(,%rax,8),%rcx
    3476:	00 
    3477:	48 8b 45 e0          	mov    -0x20(%rbp),%rax
    347b:	48 01 c8             	add    %rcx,%rax
    347e:	48 8b 00             	mov    (%rax),%rax
    3481:	8b 4d f8             	mov    -0x8(%rbp),%ecx
    3484:	48 63 c9             	movslq %ecx,%rcx
    3487:	48 c1 e1 02          	shl    $0x2,%rcx
    348b:	48 01 c8             	add    %rcx,%rax
    348e:	8b 00                	mov    (%rax),%eax
    3490:	89 42 08             	mov    %eax,0x8(%rdx)
    3493:	83 45 f8 01          	addl   $0x1,-0x8(%rbp)
    3497:	8b 45 f8             	mov    -0x8(%rbp),%eax
    349a:	3b 45 dc             	cmp    -0x24(%rbp),%eax
    349d:	0f 8c 56 ff ff ff    	jl     33f9 <restore_region_occ+0x30>
    34a3:	83 45 fc 01          	addl   $0x1,-0x4(%rbp)
    34a7:	8b 45 fc             	mov    -0x4(%rbp),%eax
    34aa:	3b 45 dc             	cmp    -0x24(%rbp),%eax
    34ad:	0f 8c 3a ff ff ff    	jl     33ed <restore_region_occ+0x24>
    34b3:	c9                   	leaveq 
    34b4:	c3                   	retq   

00000000000034b5 <find_affected_nets>:
    34b5:	55                   	push   %rbp
    34b6:	48 89 e5             	mov    %rsp,%rbp
    34b9:	48 83 ec 30          	sub    $0x30,%rsp
    34bd:	e8 00 00 00 00       	callq  34c2 <find_affected_nets+0xd>
    34c2:	48 89 7d e8          	mov    %rdi,-0x18(%rbp)
    34c6:	48 89 75 e0          	mov    %rsi,-0x20(%rbp)
    34ca:	89 55 dc             	mov    %edx,-0x24(%rbp)
    34cd:	89 4d d8             	mov    %ecx,-0x28(%rbp)
    34d0:	44 89 45 d4          	mov    %r8d,-0x2c(%rbp)
    34d4:	c7 45 f8 00 00 00 00 	movl   $0x0,-0x8(%rbp)
    34db:	c7 45 fc 00 00 00 00 	movl   $0x0,-0x4(%rbp)
    34e2:	e9 e3 00 00 00       	jmpq   35ca <find_affected_nets+0x115>
    34e7:	48 8b 0d 00 00 00 00 	mov    0x0(%rip),%rcx        # 34ee <find_affected_nets+0x39>
    34ee:	8b 45 dc             	mov    -0x24(%rbp),%eax
    34f1:	48 63 d0             	movslq %eax,%rdx
    34f4:	48 89 d0             	mov    %rdx,%rax
    34f7:	48 c1 e0 02          	shl    $0x2,%rax
    34fb:	48 01 d0             	add    %rdx,%rax
    34fe:	48 c1 e0 03          	shl    $0x3,%rax
    3502:	48 01 c8             	add    %rcx,%rax
    3505:	48 8b 40 10          	mov    0x10(%rax),%rax
    3509:	8b 55 fc             	mov    -0x4(%rbp),%edx
    350c:	48 63 d2             	movslq %edx,%rdx
    350f:	48 c1 e2 02          	shl    $0x2,%rdx
    3513:	48 01 d0             	add    %rdx,%rax
    3516:	8b 00                	mov    (%rax),%eax
    3518:	89 45 f0             	mov    %eax,-0x10(%rbp)
    351b:	83 7d f0 ff          	cmpl   $0xffffffff,-0x10(%rbp)
    351f:	0f 84 9a 00 00 00    	je     35bf <find_affected_nets+0x10a>
    3525:	48 8b 0d 00 00 00 00 	mov    0x0(%rip),%rcx        # 352c <find_affected_nets+0x77>
    352c:	8b 45 f0             	mov    -0x10(%rbp),%eax
    352f:	48 63 d0             	movslq %eax,%rdx
    3532:	48 89 d0             	mov    %rdx,%rax
    3535:	48 c1 e0 02          	shl    $0x2,%rax
    3539:	48 01 d0             	add    %rdx,%rax
    353c:	48 c1 e0 03          	shl    $0x3,%rax
    3540:	48 01 c8             	add    %rcx,%rax
    3543:	8b 40 20             	mov    0x20(%rax),%eax
    3546:	85 c0                	test   %eax,%eax
    3548:	75 78                	jne    35c2 <find_affected_nets+0x10d>
    354a:	48 8b 05 00 00 00 00 	mov    0x0(%rip),%rax        # 3551 <find_affected_nets+0x9c>
    3551:	8b 55 f0             	mov    -0x10(%rbp),%edx
    3554:	48 63 d2             	movslq %edx,%rdx
    3557:	48 c1 e2 02          	shl    $0x2,%rdx
    355b:	48 01 d0             	add    %rdx,%rax
    355e:	f3 0f 10 00          	movss  (%rax),%xmm0
    3562:	0f 57 c9             	xorps  %xmm1,%xmm1
    3565:	0f 2e c1             	ucomiss %xmm1,%xmm0
    3568:	77 5b                	ja     35c5 <find_affected_nets+0x110>
    356a:	8b 45 f8             	mov    -0x8(%rbp),%eax
    356d:	48 98                	cltq   
    356f:	48 8d 14 85 00 00 00 	lea    0x0(,%rax,4),%rdx
    3576:	00 
    3577:	48 8b 45 e8          	mov    -0x18(%rbp),%rax
    357b:	48 01 c2             	add    %rax,%rdx
    357e:	8b 45 f0             	mov    -0x10(%rbp),%eax
    3581:	89 02                	mov    %eax,(%rdx)
    3583:	8b 45 f8             	mov    -0x8(%rbp),%eax
    3586:	48 98                	cltq   
    3588:	48 8d 14 85 00 00 00 	lea    0x0(,%rax,4),%rdx
    358f:	00 
    3590:	48 8b 45 e0          	mov    -0x20(%rbp),%rax
    3594:	48 01 d0             	add    %rdx,%rax
    3597:	c7 00 00 00 00 00    	movl   $0x0,(%rax)
    359d:	83 45 f8 01          	addl   $0x1,-0x8(%rbp)
    35a1:	48 8b 05 00 00 00 00 	mov    0x0(%rip),%rax        # 35a8 <find_affected_nets+0xf3>
    35a8:	8b 55 f0             	mov    -0x10(%rbp),%edx
    35ab:	48 63 d2             	movslq %edx,%rdx
    35ae:	48 c1 e2 02          	shl    $0x2,%rdx
    35b2:	48 01 c2             	add    %rax,%rdx
    35b5:	8b 05 00 00 00 00    	mov    0x0(%rip),%eax        # 35bb <find_affected_nets+0x106>
    35bb:	89 02                	mov    %eax,(%rdx)
    35bd:	eb 07                	jmp    35c6 <find_affected_nets+0x111>
    35bf:	90                   	nop
    35c0:	eb 04                	jmp    35c6 <find_affected_nets+0x111>
    35c2:	90                   	nop
    35c3:	eb 01                	jmp    35c6 <find_affected_nets+0x111>
    35c5:	90                   	nop
    35c6:	83 45 fc 01          	addl   $0x1,-0x4(%rbp)
    35ca:	8b 45 fc             	mov    -0x4(%rbp),%eax
    35cd:	3b 45 d4             	cmp    -0x2c(%rbp),%eax
    35d0:	0f 8c 11 ff ff ff    	jl     34e7 <find_affected_nets+0x32>
    35d6:	83 7d d8 ff          	cmpl   $0xffffffff,-0x28(%rbp)
    35da:	0f 84 92 01 00 00    	je     3772 <find_affected_nets+0x2bd>
    35e0:	c7 45 fc 00 00 00 00 	movl   $0x0,-0x4(%rbp)
    35e7:	e9 7a 01 00 00       	jmpq   3766 <find_affected_nets+0x2b1>
    35ec:	48 8b 0d 00 00 00 00 	mov    0x0(%rip),%rcx        # 35f3 <find_affected_nets+0x13e>
    35f3:	8b 45 d8             	mov    -0x28(%rbp),%eax
    35f6:	48 63 d0             	movslq %eax,%rdx
    35f9:	48 89 d0             	mov    %rdx,%rax
    35fc:	48 c1 e0 02          	shl    $0x2,%rax
    3600:	48 01 d0             	add    %rdx,%rax
    3603:	48 c1 e0 03          	shl    $0x3,%rax
    3607:	48 01 c8             	add    %rcx,%rax
    360a:	48 8b 40 10          	mov    0x10(%rax),%rax
    360e:	8b 55 fc             	mov    -0x4(%rbp),%edx
    3611:	48 63 d2             	movslq %edx,%rdx
    3614:	48 c1 e2 02          	shl    $0x2,%rdx
    3618:	48 01 d0             	add    %rdx,%rax
    361b:	8b 00                	mov    (%rax),%eax
    361d:	89 45 f0             	mov    %eax,-0x10(%rbp)
    3620:	83 7d f0 ff          	cmpl   $0xffffffff,-0x10(%rbp)
    3624:	0f 84 34 01 00 00    	je     375e <find_affected_nets+0x2a9>
    362a:	48 8b 0d 00 00 00 00 	mov    0x0(%rip),%rcx        # 3631 <find_affected_nets+0x17c>
    3631:	8b 45 f0             	mov    -0x10(%rbp),%eax
    3634:	48 63 d0             	movslq %eax,%rdx
    3637:	48 89 d0             	mov    %rdx,%rax
    363a:	48 c1 e0 02          	shl    $0x2,%rax
    363e:	48 01 d0             	add    %rdx,%rax
    3641:	48 c1 e0 03          	shl    $0x3,%rax
    3645:	48 01 c8             	add    %rcx,%rax
    3648:	8b 40 20             	mov    0x20(%rax),%eax
    364b:	85 c0                	test   %eax,%eax
    364d:	0f 85 0e 01 00 00    	jne    3761 <find_affected_nets+0x2ac>
    3653:	48 8b 05 00 00 00 00 	mov    0x0(%rip),%rax        # 365a <find_affected_nets+0x1a5>
    365a:	8b 55 f0             	mov    -0x10(%rbp),%edx
    365d:	48 63 d2             	movslq %edx,%rdx
    3660:	48 c1 e2 02          	shl    $0x2,%rdx
    3664:	48 01 d0             	add    %rdx,%rax
    3667:	f3 0f 10 00          	movss  (%rax),%xmm0
    366b:	0f 57 c9             	xorps  %xmm1,%xmm1
    366e:	0f 2e c1             	ucomiss %xmm1,%xmm0
    3671:	0f 86 92 00 00 00    	jbe    3709 <find_affected_nets+0x254>
    3677:	c7 45 f4 00 00 00 00 	movl   $0x0,-0xc(%rbp)
    367e:	eb 55                	jmp    36d5 <find_affected_nets+0x220>
    3680:	8b 45 f4             	mov    -0xc(%rbp),%eax
    3683:	48 98                	cltq   
    3685:	48 8d 14 85 00 00 00 	lea    0x0(,%rax,4),%rdx
    368c:	00 
    368d:	48 8b 45 e8          	mov    -0x18(%rbp),%rax
    3691:	48 01 d0             	add    %rdx,%rax
    3694:	8b 00                	mov    (%rax),%eax
    3696:	3b 45 f0             	cmp    -0x10(%rbp),%eax
    3699:	75 36                	jne    36d1 <find_affected_nets+0x21c>
    369b:	8b 45 f4             	mov    -0xc(%rbp),%eax
    369e:	48 98                	cltq   
    36a0:	48 8d 14 85 00 00 00 	lea    0x0(,%rax,4),%rdx
    36a7:	00 
    36a8:	48 8b 45 e0          	mov    -0x20(%rbp),%rax
    36ac:	48 01 d0             	add    %rdx,%rax
    36af:	8b 00                	mov    (%rax),%eax
    36b1:	85 c0                	test   %eax,%eax
    36b3:	75 2a                	jne    36df <find_affected_nets+0x22a>
    36b5:	8b 45 f4             	mov    -0xc(%rbp),%eax
    36b8:	48 98                	cltq   
    36ba:	48 8d 14 85 00 00 00 	lea    0x0(,%rax,4),%rdx
    36c1:	00 
    36c2:	48 8b 45 e0          	mov    -0x20(%rbp),%rax
    36c6:	48 01 d0             	add    %rdx,%rax
    36c9:	c7 00 02 00 00 00    	movl   $0x2,(%rax)
    36cf:	eb 0e                	jmp    36df <find_affected_nets+0x22a>
    36d1:	83 45 f4 01          	addl   $0x1,-0xc(%rbp)
    36d5:	8b 45 f4             	mov    -0xc(%rbp),%eax
    36d8:	3b 45 f8             	cmp    -0x8(%rbp),%eax
    36db:	7c a3                	jl     3680 <find_affected_nets+0x1cb>
    36dd:	eb 01                	jmp    36e0 <find_affected_nets+0x22b>
    36df:	90                   	nop
    36e0:	8b 45 f4             	mov    -0xc(%rbp),%eax
    36e3:	3b 45 f8             	cmp    -0x8(%rbp),%eax
    36e6:	7e 7a                	jle    3762 <find_affected_nets+0x2ad>
    36e8:	8b 55 f8             	mov    -0x8(%rbp),%edx
    36eb:	8b 45 f4             	mov    -0xc(%rbp),%eax
    36ee:	89 c6                	mov    %eax,%esi
    36f0:	bf 00 00 00 00       	mov    $0x0,%edi
    36f5:	b8 00 00 00 00       	mov    $0x0,%eax
    36fa:	e8 00 00 00 00       	callq  36ff <find_affected_nets+0x24a>
    36ff:	bf 01 00 00 00       	mov    $0x1,%edi
    3704:	e8 00 00 00 00       	callq  3709 <find_affected_nets+0x254>
    3709:	8b 45 f8             	mov    -0x8(%rbp),%eax
    370c:	48 98                	cltq   
    370e:	48 8d 14 85 00 00 00 	lea    0x0(,%rax,4),%rdx
    3715:	00 
    3716:	48 8b 45 e8          	mov    -0x18(%rbp),%rax
    371a:	48 01 c2             	add    %rax,%rdx
    371d:	8b 45 f0             	mov    -0x10(%rbp),%eax
    3720:	89 02                	mov    %eax,(%rdx)
    3722:	8b 45 f8             	mov    -0x8(%rbp),%eax
    3725:	48 98                	cltq   
    3727:	48 8d 14 85 00 00 00 	lea    0x0(,%rax,4),%rdx
    372e:	00 
    372f:	48 8b 45 e0          	mov    -0x20(%rbp),%rax
    3733:	48 01 d0             	add    %rdx,%rax
    3736:	c7 00 01 00 00 00    	movl   $0x1,(%rax)
    373c:	83 45 f8 01          	addl   $0x1,-0x8(%rbp)
    3740:	48 8b 05 00 00 00 00 	mov    0x0(%rip),%rax        # 3747 <find_affected_nets+0x292>
    3747:	8b 55 f0             	mov    -0x10(%rbp),%edx
    374a:	48 63 d2             	movslq %edx,%rdx
    374d:	48 c1 e2 02          	shl    $0x2,%rdx
    3751:	48 01 c2             	add    %rax,%rdx
    3754:	8b 05 00 00 00 00    	mov    0x0(%rip),%eax        # 375a <find_affected_nets+0x2a5>
    375a:	89 02                	mov    %eax,(%rdx)
    375c:	eb 04                	jmp    3762 <find_affected_nets+0x2ad>
    375e:	90                   	nop
    375f:	eb 01                	jmp    3762 <find_affected_nets+0x2ad>
    3761:	90                   	nop
    3762:	83 45 fc 01          	addl   $0x1,-0x4(%rbp)
    3766:	8b 45 fc             	mov    -0x4(%rbp),%eax
    3769:	3b 45 d4             	cmp    -0x2c(%rbp),%eax
    376c:	0f 8c 7a fe ff ff    	jl     35ec <find_affected_nets+0x137>
    3772:	8b 45 f8             	mov    -0x8(%rbp),%eax
    3775:	c9                   	leaveq 
    3776:	c3                   	retq   

0000000000003777 <find_to>:
    3777:	55                   	push   %rbp
    3778:	48 89 e5             	mov    %rsp,%rbp
    377b:	53                   	push   %rbx
    377c:	48 83 ec 78          	sub    $0x78,%rsp
    3780:	e8 00 00 00 00       	callq  3785 <find_to+0xe>
    3785:	89 7d ac             	mov    %edi,-0x54(%rbp)
    3788:	89 75 a8             	mov    %esi,-0x58(%rbp)
    378b:	48 89 55 a0          	mov    %rdx,-0x60(%rbp)
    378f:	f3 0f 11 45 9c       	movss  %xmm0,-0x64(%rbp)
    3794:	48 89 4d 90          	mov    %rcx,-0x70(%rbp)
    3798:	4c 89 45 88          	mov    %r8,-0x78(%rbp)
    379c:	4c 89 4d 80          	mov    %r9,-0x80(%rbp)
    37a0:	8b 05 00 00 00 00    	mov    0x0(%rip),%eax        # 37a6 <find_to+0x2f>
    37a6:	f3 0f 2a c0          	cvtsi2ss %eax,%xmm0
    37aa:	0f 2e 45 9c          	ucomiss -0x64(%rbp),%xmm0
    37ae:	76 0b                	jbe    37bb <find_to+0x44>
    37b0:	f3 0f 10 45 9c       	movss  -0x64(%rbp),%xmm0
    37b5:	f3 0f 2c c0          	cvttss2si %xmm0,%eax
    37b9:	eb 0e                	jmp    37c9 <find_to+0x52>
    37bb:	8b 05 00 00 00 00    	mov    0x0(%rip),%eax        # 37c1 <find_to+0x4a>
    37c1:	f3 0f 2a c0          	cvtsi2ss %eax,%xmm0
    37c5:	f3 0f 2c c0          	cvttss2si %xmm0,%eax
    37c9:	89 45 e0             	mov    %eax,-0x20(%rbp)
    37cc:	8b 05 00 00 00 00    	mov    0x0(%rip),%eax        # 37d2 <find_to+0x5b>
    37d2:	f3 0f 2a c0          	cvtsi2ss %eax,%xmm0
    37d6:	0f 2e 45 9c          	ucomiss -0x64(%rbp),%xmm0
    37da:	76 0b                	jbe    37e7 <find_to+0x70>
    37dc:	f3 0f 10 45 9c       	movss  -0x64(%rbp),%xmm0
    37e1:	f3 0f 2c c0          	cvttss2si %xmm0,%eax
    37e5:	eb 0e                	jmp    37f5 <find_to+0x7e>
    37e7:	8b 05 00 00 00 00    	mov    0x0(%rip),%eax        # 37ed <find_to+0x76>
    37ed:	f3 0f 2a c0          	cvtsi2ss %eax,%xmm0
    37f1:	f3 0f 2c c0          	cvttss2si %xmm0,%eax
    37f5:	89 45 dc             	mov    %eax,-0x24(%rbp)
    37f8:	8b 45 e0             	mov    -0x20(%rbp),%eax
    37fb:	8b 55 ac             	mov    -0x54(%rbp),%edx
    37fe:	89 d1                	mov    %edx,%ecx
    3800:	29 c1                	sub    %eax,%ecx
    3802:	89 c8                	mov    %ecx,%eax
    3804:	ba 01 00 00 00       	mov    $0x1,%edx
    3809:	85 c0                	test   %eax,%eax
    380b:	0f 4e c2             	cmovle %edx,%eax
    380e:	89 45 d8             	mov    %eax,-0x28(%rbp)
    3811:	8b 45 e0             	mov    -0x20(%rbp),%eax
    3814:	8b 55 ac             	mov    -0x54(%rbp),%edx
    3817:	01 c2                	add    %eax,%edx
    3819:	8b 05 00 00 00 00    	mov    0x0(%rip),%eax        # 381f <find_to+0xa8>
    381f:	39 c2                	cmp    %eax,%edx
    3821:	0f 4e c2             	cmovle %edx,%eax
    3824:	89 45 d4             	mov    %eax,-0x2c(%rbp)
    3827:	8b 45 dc             	mov    -0x24(%rbp),%eax
    382a:	8b 55 a8             	mov    -0x58(%rbp),%edx
    382d:	89 d1                	mov    %edx,%ecx
    382f:	29 c1                	sub    %eax,%ecx
    3831:	89 c8                	mov    %ecx,%eax
    3833:	ba 01 00 00 00       	mov    $0x1,%edx
    3838:	85 c0                	test   %eax,%eax
    383a:	0f 4e c2             	cmovle %edx,%eax
    383d:	89 45 d0             	mov    %eax,-0x30(%rbp)
    3840:	8b 45 dc             	mov    -0x24(%rbp),%eax
    3843:	8b 55 a8             	mov    -0x58(%rbp),%edx
    3846:	01 c2                	add    %eax,%edx
    3848:	8b 05 00 00 00 00    	mov    0x0(%rip),%eax        # 384e <find_to+0xd7>
    384e:	39 c2                	cmp    %eax,%edx
    3850:	0f 4e c2             	cmovle %edx,%eax
    3853:	89 45 cc             	mov    %eax,-0x34(%rbp)
    3856:	c7 45 ec 00 00 00 00 	movl   $0x0,-0x14(%rbp)
    385d:	c7 45 e4 00 00 00 00 	movl   $0x0,-0x1c(%rbp)
    3864:	48 8b 05 00 00 00 00 	mov    0x0(%rip),%rax        # 386b <find_to+0xf4>
    386b:	48 39 45 a0          	cmp    %rax,-0x60(%rbp)
    386f:	0f 84 c7 00 00 00    	je     393c <find_to+0x1c5>
    3875:	8b 45 d8             	mov    -0x28(%rbp),%eax
    3878:	89 45 e8             	mov    %eax,-0x18(%rbp)
    387b:	eb 49                	jmp    38c6 <find_to+0x14f>
    387d:	48 8b 05 00 00 00 00 	mov    0x0(%rip),%rax        # 3884 <find_to+0x10d>
    3884:	8b 55 e8             	mov    -0x18(%rbp),%edx
    3887:	48 63 d2             	movslq %edx,%rdx
    388a:	48 c1 e2 03          	shl    $0x3,%rdx
    388e:	48 01 d0             	add    %rdx,%rax
    3891:	48 8b 00             	mov    (%rax),%rax
    3894:	48 83 c0 18          	add    $0x18,%rax
    3898:	48 8b 00             	mov    (%rax),%rax
    389b:	48 3b 45 a0          	cmp    -0x60(%rbp),%rax
    389f:	75 21                	jne    38c2 <find_to+0x14b>
    38a1:	83 45 ec 01          	addl   $0x1,-0x14(%rbp)
    38a5:	8b 45 e4             	mov    -0x1c(%rbp),%eax
    38a8:	48 98                	cltq   
    38aa:	48 8d 14 85 00 00 00 	lea    0x0(,%rax,4),%rdx
    38b1:	00 
    38b2:	48 8b 45 90          	mov    -0x70(%rbp),%rax
    38b6:	48 01 c2             	add    %rax,%rdx
    38b9:	8b 45 e8             	mov    -0x18(%rbp),%eax
    38bc:	89 02                	mov    %eax,(%rdx)
    38be:	83 45 e4 01          	addl   $0x1,-0x1c(%rbp)
    38c2:	83 45 e8 01          	addl   $0x1,-0x18(%rbp)
    38c6:	8b 45 e8             	mov    -0x18(%rbp),%eax
    38c9:	3b 45 d4             	cmp    -0x2c(%rbp),%eax
    38cc:	7e af                	jle    387d <find_to+0x106>
    38ce:	83 7d ec 00          	cmpl   $0x0,-0x14(%rbp)
    38d2:	75 19                	jne    38ed <find_to+0x176>
    38d4:	b9 00 00 00 00       	mov    $0x0,%ecx
    38d9:	ba b2 06 00 00       	mov    $0x6b2,%edx
    38de:	be 00 00 00 00       	mov    $0x0,%esi
    38e3:	bf 00 00 00 00       	mov    $0x0,%edi
    38e8:	e8 00 00 00 00       	callq  38ed <find_to+0x176>
    38ed:	83 7d ec 01          	cmpl   $0x1,-0x14(%rbp)
    38f1:	75 49                	jne    393c <find_to+0x1c5>
    38f3:	8b 45 d0             	mov    -0x30(%rbp),%eax
    38f6:	8b 55 cc             	mov    -0x34(%rbp),%edx
    38f9:	89 d1                	mov    %edx,%ecx
    38fb:	29 c1                	sub    %eax,%ecx
    38fd:	48 8b 45 a0          	mov    -0x60(%rbp),%rax
    3901:	8b 40 10             	mov    0x10(%rax),%eax
    3904:	89 45 98             	mov    %eax,-0x68(%rbp)
    3907:	89 c8                	mov    %ecx,%eax
    3909:	89 c2                	mov    %eax,%edx
    390b:	c1 fa 1f             	sar    $0x1f,%edx
    390e:	f7 7d 98             	idivl  -0x68(%rbp)
    3911:	83 e8 01             	sub    $0x1,%eax
    3914:	85 c0                	test   %eax,%eax
    3916:	7e 1a                	jle    3932 <find_to+0x1bb>
    3918:	48 8b 45 a0          	mov    -0x60(%rbp),%rax
    391c:	8b 50 10             	mov    0x10(%rax),%edx
    391f:	8b 05 00 00 00 00    	mov    0x0(%rip),%eax        # 3925 <find_to+0x1ae>
    3925:	89 c1                	mov    %eax,%ecx
    3927:	c1 e9 1f             	shr    $0x1f,%ecx
    392a:	01 c8                	add    %ecx,%eax
    392c:	d1 f8                	sar    %eax
    392e:	39 c2                	cmp    %eax,%edx
    3930:	7e 0a                	jle    393c <find_to+0x1c5>
    3932:	b8 00 00 00 00       	mov    $0x0,%eax
    3937:	e9 f6 05 00 00       	jmpq   3f32 <find_to+0x7bb>
    393c:	83 7d e0 00          	cmpl   $0x0,-0x20(%rbp)
    3940:	7e 0b                	jle    394d <find_to+0x1d6>
    3942:	8b 05 00 00 00 00    	mov    0x0(%rip),%eax        # 3948 <find_to+0x1d1>
    3948:	39 45 e0             	cmp    %eax,-0x20(%rbp)
    394b:	7e 1e                	jle    396b <find_to+0x1f4>
    394d:	8b 45 e0             	mov    -0x20(%rbp),%eax
    3950:	89 c6                	mov    %eax,%esi
    3952:	bf 00 00 00 00       	mov    $0x0,%edi
    3957:	b8 00 00 00 00       	mov    $0x0,%eax
    395c:	e8 00 00 00 00       	callq  3961 <find_to+0x1ea>
    3961:	bf 01 00 00 00       	mov    $0x1,%edi
    3966:	e8 00 00 00 00       	callq  396b <find_to+0x1f4>
    396b:	48 8b 05 00 00 00 00 	mov    0x0(%rip),%rax        # 3972 <find_to+0x1fb>
    3972:	48 39 45 a0          	cmp    %rax,-0x60(%rbp)
    3976:	0f 85 be 03 00 00    	jne    3d3a <find_to+0x5c3>
    397c:	8b 05 00 00 00 00    	mov    0x0(%rip),%eax        # 3982 <find_to+0x20b>
    3982:	39 45 e0             	cmp    %eax,-0x20(%rbp)
    3985:	0f 8c 0d 01 00 00    	jl     3a98 <find_to+0x321>
    398b:	bf 03 00 00 00       	mov    $0x3,%edi
    3990:	e8 00 00 00 00       	callq  3995 <find_to+0x21e>
    3995:	89 45 c8             	mov    %eax,-0x38(%rbp)
    3998:	8b 45 c8             	mov    -0x38(%rbp),%eax
    399b:	83 f8 01             	cmp    $0x1,%eax
    399e:	74 4f                	je     39ef <find_to+0x278>
    39a0:	83 f8 01             	cmp    $0x1,%eax
    39a3:	7f 09                	jg     39ae <find_to+0x237>
    39a5:	85 c0                	test   %eax,%eax
    39a7:	74 18                	je     39c1 <find_to+0x24a>
    39a9:	e9 d6 00 00 00       	jmpq   3a84 <find_to+0x30d>
    39ae:	83 f8 02             	cmp    $0x2,%eax
    39b1:	74 6f                	je     3a22 <find_to+0x2ab>
    39b3:	83 f8 03             	cmp    $0x3,%eax
    39b6:	0f 84 99 00 00 00    	je     3a55 <find_to+0x2de>
    39bc:	e9 c3 00 00 00       	jmpq   3a84 <find_to+0x30d>
    39c1:	8b 05 00 00 00 00    	mov    0x0(%rip),%eax        # 39c7 <find_to+0x250>
    39c7:	83 e8 01             	sub    $0x1,%eax
    39ca:	89 c7                	mov    %eax,%edi
    39cc:	e8 00 00 00 00       	callq  39d1 <find_to+0x25a>
    39d1:	83 c0 01             	add    $0x1,%eax
    39d4:	89 45 c4             	mov    %eax,-0x3c(%rbp)
    39d7:	48 8b 45 88          	mov    -0x78(%rbp),%rax
    39db:	c7 00 00 00 00 00    	movl   $0x0,(%rax)
    39e1:	48 8b 45 80          	mov    -0x80(%rbp),%rax
    39e5:	8b 55 c4             	mov    -0x3c(%rbp),%edx
    39e8:	89 10                	mov    %edx,(%rax)
    39ea:	e9 6f 04 00 00       	jmpq   3e5e <find_to+0x6e7>
    39ef:	8b 05 00 00 00 00    	mov    0x0(%rip),%eax        # 39f5 <find_to+0x27e>
    39f5:	83 e8 01             	sub    $0x1,%eax
    39f8:	89 c7                	mov    %eax,%edi
    39fa:	e8 00 00 00 00       	callq  39ff <find_to+0x288>
    39ff:	83 c0 01             	add    $0x1,%eax
    3a02:	89 45 c4             	mov    %eax,-0x3c(%rbp)
    3a05:	48 8b 45 88          	mov    -0x78(%rbp),%rax
    3a09:	8b 55 c4             	mov    -0x3c(%rbp),%edx
    3a0c:	89 10                	mov    %edx,(%rax)
    3a0e:	8b 05 00 00 00 00    	mov    0x0(%rip),%eax        # 3a14 <find_to+0x29d>
    3a14:	8d 50 01             	lea    0x1(%rax),%edx
    3a17:	48 8b 45 80          	mov    -0x80(%rbp),%rax
    3a1b:	89 10                	mov    %edx,(%rax)
    3a1d:	e9 3c 04 00 00       	jmpq   3e5e <find_to+0x6e7>
    3a22:	8b 05 00 00 00 00    	mov    0x0(%rip),%eax        # 3a28 <find_to+0x2b1>
    3a28:	83 e8 01             	sub    $0x1,%eax
    3a2b:	89 c7                	mov    %eax,%edi
    3a2d:	e8 00 00 00 00       	callq  3a32 <find_to+0x2bb>
    3a32:	83 c0 01             	add    $0x1,%eax
    3a35:	89 45 c4             	mov    %eax,-0x3c(%rbp)
    3a38:	8b 05 00 00 00 00    	mov    0x0(%rip),%eax        # 3a3e <find_to+0x2c7>
    3a3e:	8d 50 01             	lea    0x1(%rax),%edx
    3a41:	48 8b 45 88          	mov    -0x78(%rbp),%rax
    3a45:	89 10                	mov    %edx,(%rax)
    3a47:	48 8b 45 80          	mov    -0x80(%rbp),%rax
    3a4b:	8b 55 c4             	mov    -0x3c(%rbp),%edx
    3a4e:	89 10                	mov    %edx,(%rax)
    3a50:	e9 09 04 00 00       	jmpq   3e5e <find_to+0x6e7>
    3a55:	8b 05 00 00 00 00    	mov    0x0(%rip),%eax        # 3a5b <find_to+0x2e4>
    3a5b:	83 e8 01             	sub    $0x1,%eax
    3a5e:	89 c7                	mov    %eax,%edi
    3a60:	e8 00 00 00 00       	callq  3a65 <find_to+0x2ee>
    3a65:	83 c0 01             	add    $0x1,%eax
    3a68:	89 45 c4             	mov    %eax,-0x3c(%rbp)
    3a6b:	48 8b 45 88          	mov    -0x78(%rbp),%rax
    3a6f:	8b 55 c4             	mov    -0x3c(%rbp),%edx
    3a72:	89 10                	mov    %edx,(%rax)
    3a74:	48 8b 45 80          	mov    -0x80(%rbp),%rax
    3a78:	c7 00 00 00 00 00    	movl   $0x0,(%rax)
    3a7e:	90                   	nop
    3a7f:	e9 da 03 00 00       	jmpq   3e5e <find_to+0x6e7>
    3a84:	bf 00 00 00 00       	mov    $0x0,%edi
    3a89:	e8 00 00 00 00       	callq  3a8e <find_to+0x317>
    3a8e:	bf 01 00 00 00       	mov    $0x1,%edi
    3a93:	e8 00 00 00 00       	callq  3a98 <find_to+0x321>
    3a98:	83 7d ac 00          	cmpl   $0x0,-0x54(%rbp)
    3a9c:	0f 85 98 00 00 00    	jne    3b3a <find_to+0x3c3>
    3aa2:	8b 45 dc             	mov    -0x24(%rbp),%eax
    3aa5:	01 c0                	add    %eax,%eax
    3aa7:	89 c7                	mov    %eax,%edi
    3aa9:	e8 00 00 00 00       	callq  3aae <find_to+0x337>
    3aae:	89 45 c4             	mov    %eax,-0x3c(%rbp)
    3ab1:	8b 45 dc             	mov    -0x24(%rbp),%eax
    3ab4:	8b 55 a8             	mov    -0x58(%rbp),%edx
    3ab7:	29 c2                	sub    %eax,%edx
    3ab9:	8b 45 c4             	mov    -0x3c(%rbp),%eax
    3abc:	01 c2                	add    %eax,%edx
    3abe:	48 8b 45 80          	mov    -0x80(%rbp),%rax
    3ac2:	89 10                	mov    %edx,(%rax)
    3ac4:	48 8b 45 88          	mov    -0x78(%rbp),%rax
    3ac8:	8b 55 ac             	mov    -0x54(%rbp),%edx
    3acb:	89 10                	mov    %edx,(%rax)
    3acd:	48 8b 45 80          	mov    -0x80(%rbp),%rax
    3ad1:	8b 10                	mov    (%rax),%edx
    3ad3:	8b 05 00 00 00 00    	mov    0x0(%rip),%eax        # 3ad9 <find_to+0x362>
    3ad9:	39 c2                	cmp    %eax,%edx
    3adb:	7e 2a                	jle    3b07 <find_to+0x390>
    3add:	8b 05 00 00 00 00    	mov    0x0(%rip),%eax        # 3ae3 <find_to+0x36c>
    3ae3:	8d 50 01             	lea    0x1(%rax),%edx
    3ae6:	48 8b 45 80          	mov    -0x80(%rbp),%rax
    3aea:	89 10                	mov    %edx,(%rax)
    3aec:	8b 45 e0             	mov    -0x20(%rbp),%eax
    3aef:	83 e8 01             	sub    $0x1,%eax
    3af2:	89 c7                	mov    %eax,%edi
    3af4:	e8 00 00 00 00       	callq  3af9 <find_to+0x382>
    3af9:	8d 50 01             	lea    0x1(%rax),%edx
    3afc:	48 8b 45 88          	mov    -0x78(%rbp),%rax
    3b00:	89 10                	mov    %edx,(%rax)
    3b02:	e9 57 03 00 00       	jmpq   3e5e <find_to+0x6e7>
    3b07:	48 8b 45 80          	mov    -0x80(%rbp),%rax
    3b0b:	8b 00                	mov    (%rax),%eax
    3b0d:	85 c0                	test   %eax,%eax
    3b0f:	0f 8f 49 03 00 00    	jg     3e5e <find_to+0x6e7>
    3b15:	48 8b 45 80          	mov    -0x80(%rbp),%rax
    3b19:	c7 00 00 00 00 00    	movl   $0x0,(%rax)
    3b1f:	8b 45 e0             	mov    -0x20(%rbp),%eax
    3b22:	83 e8 01             	sub    $0x1,%eax
    3b25:	89 c7                	mov    %eax,%edi
    3b27:	e8 00 00 00 00       	callq  3b2c <find_to+0x3b5>
    3b2c:	8d 50 01             	lea    0x1(%rax),%edx
    3b2f:	48 8b 45 88          	mov    -0x78(%rbp),%rax
    3b33:	89 10                	mov    %edx,(%rax)
    3b35:	e9 24 03 00 00       	jmpq   3e5e <find_to+0x6e7>
    3b3a:	8b 05 00 00 00 00    	mov    0x0(%rip),%eax        # 3b40 <find_to+0x3c9>
    3b40:	83 c0 01             	add    $0x1,%eax
    3b43:	3b 45 ac             	cmp    -0x54(%rbp),%eax
    3b46:	0f 85 a6 00 00 00    	jne    3bf2 <find_to+0x47b>
    3b4c:	8b 45 dc             	mov    -0x24(%rbp),%eax
    3b4f:	01 c0                	add    %eax,%eax
    3b51:	89 c7                	mov    %eax,%edi
    3b53:	e8 00 00 00 00       	callq  3b58 <find_to+0x3e1>
    3b58:	89 45 c4             	mov    %eax,-0x3c(%rbp)
    3b5b:	8b 45 dc             	mov    -0x24(%rbp),%eax
    3b5e:	8b 55 a8             	mov    -0x58(%rbp),%edx
    3b61:	29 c2                	sub    %eax,%edx
    3b63:	8b 45 c4             	mov    -0x3c(%rbp),%eax
    3b66:	01 c2                	add    %eax,%edx
    3b68:	48 8b 45 80          	mov    -0x80(%rbp),%rax
    3b6c:	89 10                	mov    %edx,(%rax)
    3b6e:	48 8b 45 88          	mov    -0x78(%rbp),%rax
    3b72:	8b 55 ac             	mov    -0x54(%rbp),%edx
    3b75:	89 10                	mov    %edx,(%rax)
    3b77:	48 8b 45 80          	mov    -0x80(%rbp),%rax
    3b7b:	8b 10                	mov    (%rax),%edx
    3b7d:	8b 05 00 00 00 00    	mov    0x0(%rip),%eax        # 3b83 <find_to+0x40c>
    3b83:	39 c2                	cmp    %eax,%edx
    3b85:	7e 31                	jle    3bb8 <find_to+0x441>
    3b87:	8b 05 00 00 00 00    	mov    0x0(%rip),%eax        # 3b8d <find_to+0x416>
    3b8d:	8d 50 01             	lea    0x1(%rax),%edx
    3b90:	48 8b 45 80          	mov    -0x80(%rbp),%rax
    3b94:	89 10                	mov    %edx,(%rax)
    3b96:	8b 1d 00 00 00 00    	mov    0x0(%rip),%ebx        # 3b9c <find_to+0x425>
    3b9c:	8b 45 e0             	mov    -0x20(%rbp),%eax
    3b9f:	83 e8 01             	sub    $0x1,%eax
    3ba2:	89 c7                	mov    %eax,%edi
    3ba4:	e8 00 00 00 00       	callq  3ba9 <find_to+0x432>
    3ba9:	89 da                	mov    %ebx,%edx
    3bab:	29 c2                	sub    %eax,%edx
    3bad:	48 8b 45 88          	mov    -0x78(%rbp),%rax
    3bb1:	89 10                	mov    %edx,(%rax)
    3bb3:	e9 a6 02 00 00       	jmpq   3e5e <find_to+0x6e7>
    3bb8:	48 8b 45 80          	mov    -0x80(%rbp),%rax
    3bbc:	8b 00                	mov    (%rax),%eax
    3bbe:	85 c0                	test   %eax,%eax
    3bc0:	0f 8f 98 02 00 00    	jg     3e5e <find_to+0x6e7>
    3bc6:	48 8b 45 80          	mov    -0x80(%rbp),%rax
    3bca:	c7 00 00 00 00 00    	movl   $0x0,(%rax)
    3bd0:	8b 1d 00 00 00 00    	mov    0x0(%rip),%ebx        # 3bd6 <find_to+0x45f>
    3bd6:	8b 45 e0             	mov    -0x20(%rbp),%eax
    3bd9:	83 e8 01             	sub    $0x1,%eax
    3bdc:	89 c7                	mov    %eax,%edi
    3bde:	e8 00 00 00 00       	callq  3be3 <find_to+0x46c>
    3be3:	89 da                	mov    %ebx,%edx
    3be5:	29 c2                	sub    %eax,%edx
    3be7:	48 8b 45 88          	mov    -0x78(%rbp),%rax
    3beb:	89 10                	mov    %edx,(%rax)
    3bed:	e9 6c 02 00 00       	jmpq   3e5e <find_to+0x6e7>
    3bf2:	83 7d a8 00          	cmpl   $0x0,-0x58(%rbp)
    3bf6:	0f 85 98 00 00 00    	jne    3c94 <find_to+0x51d>
    3bfc:	8b 45 e0             	mov    -0x20(%rbp),%eax
    3bff:	01 c0                	add    %eax,%eax
    3c01:	89 c7                	mov    %eax,%edi
    3c03:	e8 00 00 00 00       	callq  3c08 <find_to+0x491>
    3c08:	89 45 c4             	mov    %eax,-0x3c(%rbp)
    3c0b:	8b 45 e0             	mov    -0x20(%rbp),%eax
    3c0e:	8b 55 ac             	mov    -0x54(%rbp),%edx
    3c11:	29 c2                	sub    %eax,%edx
    3c13:	8b 45 c4             	mov    -0x3c(%rbp),%eax
    3c16:	01 c2                	add    %eax,%edx
    3c18:	48 8b 45 88          	mov    -0x78(%rbp),%rax
    3c1c:	89 10                	mov    %edx,(%rax)
    3c1e:	48 8b 45 80          	mov    -0x80(%rbp),%rax
    3c22:	8b 55 a8             	mov    -0x58(%rbp),%edx
    3c25:	89 10                	mov    %edx,(%rax)
    3c27:	48 8b 45 88          	mov    -0x78(%rbp),%rax
    3c2b:	8b 10                	mov    (%rax),%edx
    3c2d:	8b 05 00 00 00 00    	mov    0x0(%rip),%eax        # 3c33 <find_to+0x4bc>
    3c33:	39 c2                	cmp    %eax,%edx
    3c35:	7e 2a                	jle    3c61 <find_to+0x4ea>
    3c37:	8b 05 00 00 00 00    	mov    0x0(%rip),%eax        # 3c3d <find_to+0x4c6>
    3c3d:	8d 50 01             	lea    0x1(%rax),%edx
    3c40:	48 8b 45 88          	mov    -0x78(%rbp),%rax
    3c44:	89 10                	mov    %edx,(%rax)
    3c46:	8b 45 dc             	mov    -0x24(%rbp),%eax
    3c49:	83 e8 01             	sub    $0x1,%eax
    3c4c:	89 c7                	mov    %eax,%edi
    3c4e:	e8 00 00 00 00       	callq  3c53 <find_to+0x4dc>
    3c53:	8d 50 01             	lea    0x1(%rax),%edx
    3c56:	48 8b 45 80          	mov    -0x80(%rbp),%rax
    3c5a:	89 10                	mov    %edx,(%rax)
    3c5c:	e9 fd 01 00 00       	jmpq   3e5e <find_to+0x6e7>
    3c61:	48 8b 45 88          	mov    -0x78(%rbp),%rax
    3c65:	8b 00                	mov    (%rax),%eax
    3c67:	85 c0                	test   %eax,%eax
    3c69:	0f 8f ef 01 00 00    	jg     3e5e <find_to+0x6e7>
    3c6f:	48 8b 45 88          	mov    -0x78(%rbp),%rax
    3c73:	c7 00 00 00 00 00    	movl   $0x0,(%rax)
    3c79:	8b 45 dc             	mov    -0x24(%rbp),%eax
    3c7c:	83 e8 01             	sub    $0x1,%eax
    3c7f:	89 c7                	mov    %eax,%edi
    3c81:	e8 00 00 00 00       	callq  3c86 <find_to+0x50f>
    3c86:	8d 50 01             	lea    0x1(%rax),%edx
    3c89:	48 8b 45 80          	mov    -0x80(%rbp),%rax
    3c8d:	89 10                	mov    %edx,(%rax)
    3c8f:	e9 ca 01 00 00       	jmpq   3e5e <find_to+0x6e7>
    3c94:	8b 45 e0             	mov    -0x20(%rbp),%eax
    3c97:	01 c0                	add    %eax,%eax
    3c99:	89 c7                	mov    %eax,%edi
    3c9b:	e8 00 00 00 00       	callq  3ca0 <find_to+0x529>
    3ca0:	89 45 c4             	mov    %eax,-0x3c(%rbp)
    3ca3:	8b 45 e0             	mov    -0x20(%rbp),%eax
    3ca6:	8b 55 ac             	mov    -0x54(%rbp),%edx
    3ca9:	29 c2                	sub    %eax,%edx
    3cab:	8b 45 c4             	mov    -0x3c(%rbp),%eax
    3cae:	01 c2                	add    %eax,%edx
    3cb0:	48 8b 45 88          	mov    -0x78(%rbp),%rax
    3cb4:	89 10                	mov    %edx,(%rax)
    3cb6:	48 8b 45 80          	mov    -0x80(%rbp),%rax
    3cba:	8b 55 a8             	mov    -0x58(%rbp),%edx
    3cbd:	89 10                	mov    %edx,(%rax)
    3cbf:	48 8b 45 88          	mov    -0x78(%rbp),%rax
    3cc3:	8b 10                	mov    (%rax),%edx
    3cc5:	8b 05 00 00 00 00    	mov    0x0(%rip),%eax        # 3ccb <find_to+0x554>
    3ccb:	39 c2                	cmp    %eax,%edx
    3ccd:	7e 31                	jle    3d00 <find_to+0x589>
    3ccf:	8b 05 00 00 00 00    	mov    0x0(%rip),%eax        # 3cd5 <find_to+0x55e>
    3cd5:	8d 50 01             	lea    0x1(%rax),%edx
    3cd8:	48 8b 45 88          	mov    -0x78(%rbp),%rax
    3cdc:	89 10                	mov    %edx,(%rax)
    3cde:	8b 1d 00 00 00 00    	mov    0x0(%rip),%ebx        # 3ce4 <find_to+0x56d>
    3ce4:	8b 45 dc             	mov    -0x24(%rbp),%eax
    3ce7:	83 e8 01             	sub    $0x1,%eax
    3cea:	89 c7                	mov    %eax,%edi
    3cec:	e8 00 00 00 00       	callq  3cf1 <find_to+0x57a>
    3cf1:	89 da                	mov    %ebx,%edx
    3cf3:	29 c2                	sub    %eax,%edx
    3cf5:	48 8b 45 80          	mov    -0x80(%rbp),%rax
    3cf9:	89 10                	mov    %edx,(%rax)
    3cfb:	e9 5e 01 00 00       	jmpq   3e5e <find_to+0x6e7>
    3d00:	48 8b 45 88          	mov    -0x78(%rbp),%rax
    3d04:	8b 00                	mov    (%rax),%eax
    3d06:	85 c0                	test   %eax,%eax
    3d08:	0f 8f 50 01 00 00    	jg     3e5e <find_to+0x6e7>
    3d0e:	48 8b 45 88          	mov    -0x78(%rbp),%rax
    3d12:	c7 00 00 00 00 00    	movl   $0x0,(%rax)
    3d18:	8b 1d 00 00 00 00    	mov    0x0(%rip),%ebx        # 3d1e <find_to+0x5a7>
    3d1e:	8b 45 dc             	mov    -0x24(%rbp),%eax
    3d21:	83 e8 01             	sub    $0x1,%eax
    3d24:	89 c7                	mov    %eax,%edi
    3d26:	e8 00 00 00 00       	callq  3d2b <find_to+0x5b4>
    3d2b:	89 da                	mov    %ebx,%edx
    3d2d:	29 c2                	sub    %eax,%edx
    3d2f:	48 8b 45 80          	mov    -0x80(%rbp),%rax
    3d33:	89 10                	mov    %edx,(%rax)
    3d35:	e9 24 01 00 00       	jmpq   3e5e <find_to+0x6e7>
    3d3a:	8b 45 ec             	mov    -0x14(%rbp),%eax
    3d3d:	83 e8 01             	sub    $0x1,%eax
    3d40:	89 c7                	mov    %eax,%edi
    3d42:	e8 00 00 00 00       	callq  3d47 <find_to+0x5d0>
    3d47:	89 45 c0             	mov    %eax,-0x40(%rbp)
    3d4a:	8b 45 d0             	mov    -0x30(%rbp),%eax
    3d4d:	8b 55 cc             	mov    -0x34(%rbp),%edx
    3d50:	89 d1                	mov    %edx,%ecx
    3d52:	29 c1                	sub    %eax,%ecx
    3d54:	48 8b 45 a0          	mov    -0x60(%rbp),%rax
    3d58:	8b 40 10             	mov    0x10(%rax),%eax
    3d5b:	89 45 98             	mov    %eax,-0x68(%rbp)
    3d5e:	89 c8                	mov    %ecx,%eax
    3d60:	89 c2                	mov    %eax,%edx
    3d62:	c1 fa 1f             	sar    $0x1f,%edx
    3d65:	f7 7d 98             	idivl  -0x68(%rbp)
    3d68:	83 e8 01             	sub    $0x1,%eax
    3d6b:	ba 00 00 00 00       	mov    $0x0,%edx
    3d70:	85 c0                	test   %eax,%eax
    3d72:	0f 48 c2             	cmovs  %edx,%eax
    3d75:	89 c7                	mov    %eax,%edi
    3d77:	e8 00 00 00 00       	callq  3d7c <find_to+0x605>
    3d7c:	89 45 bc             	mov    %eax,-0x44(%rbp)
    3d7f:	8b 45 c0             	mov    -0x40(%rbp),%eax
    3d82:	48 98                	cltq   
    3d84:	48 8d 14 85 00 00 00 	lea    0x0(,%rax,4),%rdx
    3d8b:	00 
    3d8c:	48 8b 45 90          	mov    -0x70(%rbp),%rax
    3d90:	48 01 d0             	add    %rdx,%rax
    3d93:	8b 10                	mov    (%rax),%edx
    3d95:	48 8b 45 88          	mov    -0x78(%rbp),%rax
    3d99:	89 10                	mov    %edx,(%rax)
    3d9b:	48 8b 45 a0          	mov    -0x60(%rbp),%rax
    3d9f:	8b 40 10             	mov    0x10(%rax),%eax
    3da2:	89 c2                	mov    %eax,%edx
    3da4:	0f af 55 bc          	imul   -0x44(%rbp),%edx
    3da8:	8b 45 d0             	mov    -0x30(%rbp),%eax
    3dab:	01 c2                	add    %eax,%edx
    3dad:	48 8b 45 80          	mov    -0x80(%rbp),%rax
    3db1:	89 10                	mov    %edx,(%rax)
    3db3:	48 8b 45 80          	mov    -0x80(%rbp),%rax
    3db7:	8b 08                	mov    (%rax),%ecx
    3db9:	48 8b 15 00 00 00 00 	mov    0x0(%rip),%rdx        # 3dc0 <find_to+0x649>
    3dc0:	48 8b 45 88          	mov    -0x78(%rbp),%rax
    3dc4:	8b 00                	mov    (%rax),%eax
    3dc6:	48 98                	cltq   
    3dc8:	48 c1 e0 03          	shl    $0x3,%rax
    3dcc:	48 01 d0             	add    %rdx,%rax
    3dcf:	48 8b 30             	mov    (%rax),%rsi
    3dd2:	48 8b 45 80          	mov    -0x80(%rbp),%rax
    3dd6:	8b 00                	mov    (%rax),%eax
    3dd8:	48 63 d0             	movslq %eax,%rdx
    3ddb:	48 89 d0             	mov    %rdx,%rax
    3dde:	48 01 c0             	add    %rax,%rax
    3de1:	48 01 d0             	add    %rdx,%rax
    3de4:	48 c1 e0 03          	shl    $0x3,%rax
    3de8:	48 01 f0             	add    %rsi,%rax
    3deb:	8b 40 08             	mov    0x8(%rax),%eax
    3dee:	89 ca                	mov    %ecx,%edx
    3df0:	29 c2                	sub    %eax,%edx
    3df2:	48 8b 45 80          	mov    -0x80(%rbp),%rax
    3df6:	89 10                	mov    %edx,(%rax)
    3df8:	48 8b 45 88          	mov    -0x78(%rbp),%rax
    3dfc:	8b 00                	mov    (%rax),%eax
    3dfe:	85 c0                	test   %eax,%eax
    3e00:	7e 10                	jle    3e12 <find_to+0x69b>
    3e02:	48 8b 45 88          	mov    -0x78(%rbp),%rax
    3e06:	8b 10                	mov    (%rax),%edx
    3e08:	8b 05 00 00 00 00    	mov    0x0(%rip),%eax        # 3e0e <find_to+0x697>
    3e0e:	39 c2                	cmp    %eax,%edx
    3e10:	7e 19                	jle    3e2b <find_to+0x6b4>
    3e12:	b9 00 00 00 00       	mov    $0x0,%ecx
    3e17:	ba 3a 07 00 00       	mov    $0x73a,%edx
    3e1c:	be 00 00 00 00       	mov    $0x0,%esi
    3e21:	bf 00 00 00 00       	mov    $0x0,%edi
    3e26:	e8 00 00 00 00       	callq  3e2b <find_to+0x6b4>
    3e2b:	48 8b 45 80          	mov    -0x80(%rbp),%rax
    3e2f:	8b 00                	mov    (%rax),%eax
    3e31:	85 c0                	test   %eax,%eax
    3e33:	7e 10                	jle    3e45 <find_to+0x6ce>
    3e35:	48 8b 45 80          	mov    -0x80(%rbp),%rax
    3e39:	8b 10                	mov    (%rax),%edx
    3e3b:	8b 05 00 00 00 00    	mov    0x0(%rip),%eax        # 3e41 <find_to+0x6ca>
    3e41:	39 c2                	cmp    %eax,%edx
    3e43:	7e 19                	jle    3e5e <find_to+0x6e7>
    3e45:	b9 00 00 00 00       	mov    $0x0,%ecx
    3e4a:	ba 3b 07 00 00       	mov    $0x73b,%edx
    3e4f:	be 00 00 00 00       	mov    $0x0,%esi
    3e54:	bf 00 00 00 00       	mov    $0x0,%edi
    3e59:	e8 00 00 00 00       	callq  3e5e <find_to+0x6e7>
    3e5e:	48 8b 45 88          	mov    -0x78(%rbp),%rax
    3e62:	8b 00                	mov    (%rax),%eax
    3e64:	3b 45 ac             	cmp    -0x54(%rbp),%eax
    3e67:	75 0f                	jne    3e78 <find_to+0x701>
    3e69:	48 8b 45 80          	mov    -0x80(%rbp),%rax
    3e6d:	8b 00                	mov    (%rax),%eax
    3e6f:	3b 45 a8             	cmp    -0x58(%rbp),%eax
    3e72:	0f 84 f3 fa ff ff    	je     396b <find_to+0x1f4>
    3e78:	48 8b 45 88          	mov    -0x78(%rbp),%rax
    3e7c:	8b 00                	mov    (%rax),%eax
    3e7e:	85 c0                	test   %eax,%eax
    3e80:	78 30                	js     3eb2 <find_to+0x73b>
    3e82:	48 8b 45 88          	mov    -0x78(%rbp),%rax
    3e86:	8b 00                	mov    (%rax),%eax
    3e88:	8b 15 00 00 00 00    	mov    0x0(%rip),%edx        # 3e8e <find_to+0x717>
    3e8e:	83 c2 01             	add    $0x1,%edx
    3e91:	39 d0                	cmp    %edx,%eax
    3e93:	7f 1d                	jg     3eb2 <find_to+0x73b>
    3e95:	48 8b 45 80          	mov    -0x80(%rbp),%rax
    3e99:	8b 00                	mov    (%rax),%eax
    3e9b:	85 c0                	test   %eax,%eax
    3e9d:	78 13                	js     3eb2 <find_to+0x73b>
    3e9f:	48 8b 45 80          	mov    -0x80(%rbp),%rax
    3ea3:	8b 00                	mov    (%rax),%eax
    3ea5:	8b 15 00 00 00 00    	mov    0x0(%rip),%edx        # 3eab <find_to+0x734>
    3eab:	83 c2 01             	add    $0x1,%edx
    3eae:	39 d0                	cmp    %edx,%eax
    3eb0:	7e 27                	jle    3ed9 <find_to+0x762>
    3eb2:	48 8b 45 80          	mov    -0x80(%rbp),%rax
    3eb6:	8b 10                	mov    (%rax),%edx
    3eb8:	48 8b 45 88          	mov    -0x78(%rbp),%rax
    3ebc:	8b 00                	mov    (%rax),%eax
    3ebe:	89 c6                	mov    %eax,%esi
    3ec0:	bf 00 00 00 00       	mov    $0x0,%edi
    3ec5:	b8 00 00 00 00       	mov    $0x0,%eax
    3eca:	e8 00 00 00 00       	callq  3ecf <find_to+0x758>
    3ecf:	bf 01 00 00 00       	mov    $0x1,%edi
    3ed4:	e8 00 00 00 00       	callq  3ed9 <find_to+0x762>
    3ed9:	48 8b 15 00 00 00 00 	mov    0x0(%rip),%rdx        # 3ee0 <find_to+0x769>
    3ee0:	48 8b 45 88          	mov    -0x78(%rbp),%rax
    3ee4:	8b 00                	mov    (%rax),%eax
    3ee6:	48 98                	cltq   
    3ee8:	48 c1 e0 03          	shl    $0x3,%rax
    3eec:	48 01 d0             	add    %rdx,%rax
    3eef:	48 8b 08             	mov    (%rax),%rcx
    3ef2:	48 8b 45 80          	mov    -0x80(%rbp),%rax
    3ef6:	8b 00                	mov    (%rax),%eax
    3ef8:	48 63 d0             	movslq %eax,%rdx
    3efb:	48 89 d0             	mov    %rdx,%rax
    3efe:	48 01 c0             	add    %rax,%rax
    3f01:	48 01 d0             	add    %rdx,%rax
    3f04:	48 c1 e0 03          	shl    $0x3,%rax
    3f08:	48 01 c8             	add    %rcx,%rax
    3f0b:	48 8b 00             	mov    (%rax),%rax
    3f0e:	48 3b 45 a0          	cmp    -0x60(%rbp),%rax
    3f12:	74 19                	je     3f2d <find_to+0x7b6>
    3f14:	b9 00 00 00 00       	mov    $0x0,%ecx
    3f19:	ba 48 07 00 00       	mov    $0x748,%edx
    3f1e:	be 00 00 00 00       	mov    $0x0,%esi
    3f23:	bf 00 00 00 00       	mov    $0x0,%edi
    3f28:	e8 00 00 00 00       	callq  3f2d <find_to+0x7b6>
    3f2d:	b8 01 00 00 00       	mov    $0x1,%eax
    3f32:	48 83 c4 78          	add    $0x78,%rsp
    3f36:	5b                   	pop    %rbx
    3f37:	5d                   	pop    %rbp
    3f38:	c3                   	retq   

0000000000003f39 <assess_swap>:
    3f39:	55                   	push   %rbp
    3f3a:	48 89 e5             	mov    %rsp,%rbp
    3f3d:	48 83 ec 20          	sub    $0x20,%rsp
    3f41:	e8 00 00 00 00       	callq  3f46 <assess_swap+0xd>
    3f46:	f3 0f 11 45 ec       	movss  %xmm0,-0x14(%rbp)
    3f4b:	f3 0f 11 4d e8       	movss  %xmm1,-0x18(%rbp)
    3f50:	0f 57 c0             	xorps  %xmm0,%xmm0
    3f53:	0f 2e 45 ec          	ucomiss -0x14(%rbp),%xmm0
    3f57:	72 0c                	jb     3f65 <assess_swap+0x2c>
    3f59:	c7 45 fc 01 00 00 00 	movl   $0x1,-0x4(%rbp)
    3f60:	8b 45 fc             	mov    -0x4(%rbp),%eax
    3f63:	eb 74                	jmp    3fd9 <assess_swap+0xa0>
    3f65:	0f 57 c0             	xorps  %xmm0,%xmm0
    3f68:	0f 2e 45 e8          	ucomiss -0x18(%rbp),%xmm0
    3f6c:	7a 10                	jp     3f7e <assess_swap+0x45>
    3f6e:	0f 57 c0             	xorps  %xmm0,%xmm0
    3f71:	0f 2e 45 e8          	ucomiss -0x18(%rbp),%xmm0
    3f75:	75 07                	jne    3f7e <assess_swap+0x45>
    3f77:	b8 00 00 00 00       	mov    $0x0,%eax
    3f7c:	eb 5b                	jmp    3fd9 <assess_swap+0xa0>
    3f7e:	e8 00 00 00 00       	callq  3f83 <assess_swap+0x4a>
    3f83:	f3 0f 11 45 e4       	movss  %xmm0,-0x1c(%rbp)
    3f88:	8b 45 e4             	mov    -0x1c(%rbp),%eax
    3f8b:	89 45 f8             	mov    %eax,-0x8(%rbp)
    3f8e:	f3 0f 10 4d ec       	movss  -0x14(%rbp),%xmm1
    3f93:	f3 0f 10 05 00 00 00 	movss  0x0(%rip),%xmm0        # 3f9b <assess_swap+0x62>
    3f9a:	00 
    3f9b:	0f 57 c1             	xorps  %xmm1,%xmm0
    3f9e:	f3 0f 5e 45 e8       	divss  -0x18(%rbp),%xmm0
    3fa3:	0f 14 c0             	unpcklps %xmm0,%xmm0
    3fa6:	0f 5a c0             	cvtps2pd %xmm0,%xmm0
    3fa9:	e8 00 00 00 00       	callq  3fae <assess_swap+0x75>
    3fae:	66 0f 14 c0          	unpcklpd %xmm0,%xmm0
    3fb2:	66 0f 5a c0          	cvtpd2ps %xmm0,%xmm0
    3fb6:	f3 0f 11 45 f4       	movss  %xmm0,-0xc(%rbp)
    3fbb:	f3 0f 10 45 f4       	movss  -0xc(%rbp),%xmm0
    3fc0:	0f 2e 45 f8          	ucomiss -0x8(%rbp),%xmm0
    3fc4:	76 09                	jbe    3fcf <assess_swap+0x96>
    3fc6:	c7 45 fc 01 00 00 00 	movl   $0x1,-0x4(%rbp)
    3fcd:	eb 07                	jmp    3fd6 <assess_swap+0x9d>
    3fcf:	c7 45 fc 00 00 00 00 	movl   $0x0,-0x4(%rbp)
    3fd6:	8b 45 fc             	mov    -0x4(%rbp),%eax
    3fd9:	c9                   	leaveq 
    3fda:	c3                   	retq   

0000000000003fdb <recompute_bb_cost>:
    3fdb:	55                   	push   %rbp
    3fdc:	48 89 e5             	mov    %rsp,%rbp
    3fdf:	48 83 ec 20          	sub    $0x20,%rsp
    3fe3:	e8 00 00 00 00       	callq  3fe8 <recompute_bb_cost+0xd>
    3fe8:	89 7d ec             	mov    %edi,-0x14(%rbp)
    3feb:	89 75 e8             	mov    %esi,-0x18(%rbp)
    3fee:	8b 05 00 00 00 00    	mov    0x0(%rip),%eax        # 3ff4 <recompute_bb_cost+0x19>
    3ff4:	89 45 f0             	mov    %eax,-0x10(%rbp)
    3ff7:	83 7d ec 01          	cmpl   $0x1,-0x14(%rbp)
    3ffb:	0f 85 84 00 00 00    	jne    4085 <recompute_bb_cost+0xaa>
    4001:	c7 45 fc 00 00 00 00 	movl   $0x0,-0x4(%rbp)
    4008:	eb 73                	jmp    407d <recompute_bb_cost+0xa2>
    400a:	c7 45 f8 00 00 00 00 	movl   $0x0,-0x8(%rbp)
    4011:	eb 5e                	jmp    4071 <recompute_bb_cost+0x96>
    4013:	48 8b 05 00 00 00 00 	mov    0x0(%rip),%rax        # 401a <recompute_bb_cost+0x3f>
    401a:	8b 55 fc             	mov    -0x4(%rbp),%edx
    401d:	48 63 d2             	movslq %edx,%rdx
    4020:	48 c1 e2 03          	shl    $0x3,%rdx
    4024:	48 01 d0             	add    %rdx,%rax
    4027:	48 8b 00             	mov    (%rax),%rax
    402a:	8b 55 f8             	mov    -0x8(%rbp),%edx
    402d:	48 63 d2             	movslq %edx,%rdx
    4030:	48 c1 e2 04          	shl    $0x4,%rdx
    4034:	48 01 c2             	add    %rax,%rdx
    4037:	8b 05 00 00 00 00    	mov    0x0(%rip),%eax        # 403d <recompute_bb_cost+0x62>
    403d:	89 42 08             	mov    %eax,0x8(%rdx)
    4040:	48 8b 05 00 00 00 00 	mov    0x0(%rip),%rax        # 4047 <recompute_bb_cost+0x6c>
    4047:	8b 55 fc             	mov    -0x4(%rbp),%edx
    404a:	48 63 d2             	movslq %edx,%rdx
    404d:	48 c1 e2 03          	shl    $0x3,%rdx
    4051:	48 01 d0             	add    %rdx,%rax
    4054:	48 8b 00             	mov    (%rax),%rax
    4057:	8b 55 f8             	mov    -0x8(%rbp),%edx
    405a:	48 63 d2             	movslq %edx,%rdx
    405d:	48 c1 e2 04          	shl    $0x4,%rdx
    4061:	48 01 c2             	add    %rax,%rdx
    4064:	8b 05 00 00 00 00    	mov    0x0(%rip),%eax        # 406a <recompute_bb_cost+0x8f>
    406a:	89 42 08             	mov    %eax,0x8(%rdx)
    406d:	83 45 f8 01          	addl   $0x1,-0x8(%rbp)
    4071:	8b 45 f8             	mov    -0x8(%rbp),%eax
    4074:	3b 45 e8             	cmp    -0x18(%rbp),%eax
    4077:	7c 9a                	jl     4013 <recompute_bb_cost+0x38>
    4079:	83 45 fc 01          	addl   $0x1,-0x4(%rbp)
    407d:	8b 45 fc             	mov    -0x4(%rbp),%eax
    4080:	3b 45 e8             	cmp    -0x18(%rbp),%eax
    4083:	7c 85                	jl     400a <recompute_bb_cost+0x2f>
    4085:	c7 45 f4 00 00 00 00 	movl   $0x0,-0xc(%rbp)
    408c:	e9 80 00 00 00       	jmpq   4111 <recompute_bb_cost+0x136>
    4091:	48 8b 0d 00 00 00 00 	mov    0x0(%rip),%rcx        # 4098 <recompute_bb_cost+0xbd>
    4098:	8b 45 f4             	mov    -0xc(%rbp),%eax
    409b:	48 63 d0             	movslq %eax,%rdx
    409e:	48 89 d0             	mov    %rdx,%rax
    40a1:	48 c1 e0 02          	shl    $0x2,%rax
    40a5:	48 01 d0             	add    %rdx,%rax
    40a8:	48 c1 e0 03          	shl    $0x3,%rax
    40ac:	48 01 c8             	add    %rcx,%rax
    40af:	8b 40 20             	mov    0x20(%rax),%eax
    40b2:	85 c0                	test   %eax,%eax
    40b4:	75 57                	jne    410d <recompute_bb_cost+0x132>
    40b6:	83 7d ec 01          	cmpl   $0x1,-0x14(%rbp)
    40ba:	74 28                	je     40e4 <recompute_bb_cost+0x109>
    40bc:	48 8b 05 00 00 00 00 	mov    0x0(%rip),%rax        # 40c3 <recompute_bb_cost+0xe8>
    40c3:	8b 55 f4             	mov    -0xc(%rbp),%edx
    40c6:	48 63 d2             	movslq %edx,%rdx
    40c9:	48 c1 e2 02          	shl    $0x2,%rdx
    40cd:	48 01 d0             	add    %rdx,%rax
    40d0:	f3 0f 10 00          	movss  (%rax),%xmm0
    40d4:	f3 0f 10 4d f0       	movss  -0x10(%rbp),%xmm1
    40d9:	f3 0f 58 c1          	addss  %xmm1,%xmm0
    40dd:	f3 0f 11 45 f0       	movss  %xmm0,-0x10(%rbp)
    40e2:	eb 29                	jmp    410d <recompute_bb_cost+0x132>
    40e4:	48 8b 05 00 00 00 00 	mov    0x0(%rip),%rax        # 40eb <recompute_bb_cost+0x110>
    40eb:	8b 55 f4             	mov    -0xc(%rbp),%edx
    40ee:	48 63 d2             	movslq %edx,%rdx
    40f1:	48 c1 e2 04          	shl    $0x4,%rdx
    40f5:	48 8d 34 10          	lea    (%rax,%rdx,1),%rsi
    40f9:	8b 55 e8             	mov    -0x18(%rbp),%edx
    40fc:	8b 45 f4             	mov    -0xc(%rbp),%eax
    40ff:	89 d1                	mov    %edx,%ecx
    4101:	ba 01 00 00 00       	mov    $0x1,%edx
    4106:	89 c7                	mov    %eax,%edi
    4108:	e8 22 19 00 00       	callq  5a2f <update_region_occ>
    410d:	83 45 f4 01          	addl   $0x1,-0xc(%rbp)
    4111:	8b 05 00 00 00 00    	mov    0x0(%rip),%eax        # 4117 <recompute_bb_cost+0x13c>
    4117:	39 45 f4             	cmp    %eax,-0xc(%rbp)
    411a:	0f 8c 71 ff ff ff    	jl     4091 <recompute_bb_cost+0xb6>
    4120:	83 7d ec 01          	cmpl   $0x1,-0x14(%rbp)
    4124:	75 15                	jne    413b <recompute_bb_cost+0x160>
    4126:	8b 45 e8             	mov    -0x18(%rbp),%eax
    4129:	89 c7                	mov    %eax,%edi
    412b:	e8 43 16 00 00       	callq  5773 <nonlinear_cong_cost>
    4130:	f3 0f 11 45 e4       	movss  %xmm0,-0x1c(%rbp)
    4135:	8b 45 e4             	mov    -0x1c(%rbp),%eax
    4138:	89 45 f0             	mov    %eax,-0x10(%rbp)
    413b:	8b 45 f0             	mov    -0x10(%rbp),%eax
    413e:	89 45 e4             	mov    %eax,-0x1c(%rbp)
    4141:	f3 0f 10 45 e4       	movss  -0x1c(%rbp),%xmm0
    4146:	c9                   	leaveq 
    4147:	c3                   	retq   

0000000000004148 <comp_td_point_to_point_delay>:
    4148:	55                   	push   %rbp
    4149:	48 89 e5             	mov    %rsp,%rbp
    414c:	48 83 ec 40          	sub    $0x40,%rsp
    4150:	e8 00 00 00 00       	callq  4155 <comp_td_point_to_point_delay+0xd>
    4155:	89 7d cc             	mov    %edi,-0x34(%rbp)
    4158:	89 75 c8             	mov    %esi,-0x38(%rbp)
    415b:	8b 05 00 00 00 00    	mov    0x0(%rip),%eax        # 4161 <comp_td_point_to_point_delay+0x19>
    4161:	89 45 fc             	mov    %eax,-0x4(%rbp)
    4164:	48 8b 0d 00 00 00 00 	mov    0x0(%rip),%rcx        # 416b <comp_td_point_to_point_delay+0x23>
    416b:	8b 45 cc             	mov    -0x34(%rbp),%eax
    416e:	48 63 d0             	movslq %eax,%rdx
    4171:	48 89 d0             	mov    %rdx,%rax
    4174:	48 c1 e0 02          	shl    $0x2,%rax
    4178:	48 01 d0             	add    %rdx,%rax
    417b:	48 c1 e0 03          	shl    $0x3,%rax
    417f:	48 01 c8             	add    %rcx,%rax
    4182:	48 8b 40 10          	mov    0x10(%rax),%rax
    4186:	8b 00                	mov    (%rax),%eax
    4188:	89 45 f8             	mov    %eax,-0x8(%rbp)
    418b:	48 8b 0d 00 00 00 00 	mov    0x0(%rip),%rcx        # 4192 <comp_td_point_to_point_delay+0x4a>
    4192:	8b 45 f8             	mov    -0x8(%rbp),%eax
    4195:	48 63 d0             	movslq %eax,%rdx
    4198:	48 89 d0             	mov    %rdx,%rax
    419b:	48 c1 e0 02          	shl    $0x2,%rax
    419f:	48 01 d0             	add    %rdx,%rax
    41a2:	48 c1 e0 03          	shl    $0x3,%rax
    41a6:	48 01 c8             	add    %rcx,%rax
    41a9:	48 8b 40 08          	mov    0x8(%rax),%rax
    41ad:	48 89 45 f0          	mov    %rax,-0x10(%rbp)
    41b1:	48 8b 0d 00 00 00 00 	mov    0x0(%rip),%rcx        # 41b8 <comp_td_point_to_point_delay+0x70>
    41b8:	8b 45 cc             	mov    -0x34(%rbp),%eax
    41bb:	48 63 d0             	movslq %eax,%rdx
    41be:	48 89 d0             	mov    %rdx,%rax
    41c1:	48 c1 e0 02          	shl    $0x2,%rax
    41c5:	48 01 d0             	add    %rdx,%rax
    41c8:	48 c1 e0 03          	shl    $0x3,%rax
    41cc:	48 01 c8             	add    %rcx,%rax
    41cf:	48 8b 40 10          	mov    0x10(%rax),%rax
    41d3:	8b 55 c8             	mov    -0x38(%rbp),%edx
    41d6:	48 63 d2             	movslq %edx,%rdx
    41d9:	48 c1 e2 02          	shl    $0x2,%rdx
    41dd:	48 01 d0             	add    %rdx,%rax
    41e0:	8b 00                	mov    (%rax),%eax
    41e2:	89 45 ec             	mov    %eax,-0x14(%rbp)
    41e5:	48 8b 0d 00 00 00 00 	mov    0x0(%rip),%rcx        # 41ec <comp_td_point_to_point_delay+0xa4>
    41ec:	8b 45 ec             	mov    -0x14(%rbp),%eax
    41ef:	48 63 d0             	movslq %eax,%rdx
    41f2:	48 89 d0             	mov    %rdx,%rax
    41f5:	48 c1 e0 02          	shl    $0x2,%rax
    41f9:	48 01 d0             	add    %rdx,%rax
    41fc:	48 c1 e0 03          	shl    $0x3,%rax
    4200:	48 01 c8             	add    %rcx,%rax
    4203:	48 8b 40 08          	mov    0x8(%rax),%rax
    4207:	48 89 45 e0          	mov    %rax,-0x20(%rbp)
    420b:	48 83 7d f0 00       	cmpq   $0x0,-0x10(%rbp)
    4210:	75 19                	jne    422b <comp_td_point_to_point_delay+0xe3>
    4212:	b9 00 00 00 00       	mov    $0x0,%ecx
    4217:	ba c0 07 00 00       	mov    $0x7c0,%edx
    421c:	be 00 00 00 00       	mov    $0x0,%esi
    4221:	bf 00 00 00 00       	mov    $0x0,%edi
    4226:	e8 00 00 00 00       	callq  422b <comp_td_point_to_point_delay+0xe3>
    422b:	48 83 7d e0 00       	cmpq   $0x0,-0x20(%rbp)
    4230:	75 19                	jne    424b <comp_td_point_to_point_delay+0x103>
    4232:	b9 00 00 00 00       	mov    $0x0,%ecx
    4237:	ba c1 07 00 00       	mov    $0x7c1,%edx
    423c:	be 00 00 00 00       	mov    $0x0,%esi
    4241:	bf 00 00 00 00       	mov    $0x0,%edi
    4246:	e8 00 00 00 00       	callq  424b <comp_td_point_to_point_delay+0x103>
    424b:	48 8b 0d 00 00 00 00 	mov    0x0(%rip),%rcx        # 4252 <comp_td_point_to_point_delay+0x10a>
    4252:	8b 45 ec             	mov    -0x14(%rbp),%eax
    4255:	48 63 d0             	movslq %eax,%rdx
    4258:	48 89 d0             	mov    %rdx,%rax
    425b:	48 c1 e0 02          	shl    $0x2,%rax
    425f:	48 01 d0             	add    %rdx,%rax
    4262:	48 c1 e0 03          	shl    $0x3,%rax
    4266:	48 01 c8             	add    %rcx,%rax
    4269:	8b 48 18             	mov    0x18(%rax),%ecx
    426c:	48 8b 35 00 00 00 00 	mov    0x0(%rip),%rsi        # 4273 <comp_td_point_to_point_delay+0x12b>
    4273:	8b 45 f8             	mov    -0x8(%rbp),%eax
    4276:	48 63 d0             	movslq %eax,%rdx
    4279:	48 89 d0             	mov    %rdx,%rax
    427c:	48 c1 e0 02          	shl    $0x2,%rax
    4280:	48 01 d0             	add    %rdx,%rax
    4283:	48 c1 e0 03          	shl    $0x3,%rax
    4287:	48 01 f0             	add    %rsi,%rax
    428a:	8b 40 18             	mov    0x18(%rax),%eax
    428d:	89 ca                	mov    %ecx,%edx
    428f:	29 c2                	sub    %eax,%edx
    4291:	89 d0                	mov    %edx,%eax
    4293:	c1 f8 1f             	sar    $0x1f,%eax
    4296:	31 c2                	xor    %eax,%edx
    4298:	89 55 dc             	mov    %edx,-0x24(%rbp)
    429b:	29 45 dc             	sub    %eax,-0x24(%rbp)
    429e:	48 8b 0d 00 00 00 00 	mov    0x0(%rip),%rcx        # 42a5 <comp_td_point_to_point_delay+0x15d>
    42a5:	8b 45 ec             	mov    -0x14(%rbp),%eax
    42a8:	48 63 d0             	movslq %eax,%rdx
    42ab:	48 89 d0             	mov    %rdx,%rax
    42ae:	48 c1 e0 02          	shl    $0x2,%rax
    42b2:	48 01 d0             	add    %rdx,%rax
    42b5:	48 c1 e0 03          	shl    $0x3,%rax
    42b9:	48 01 c8             	add    %rcx,%rax
    42bc:	8b 48 1c             	mov    0x1c(%rax),%ecx
    42bf:	48 8b 35 00 00 00 00 	mov    0x0(%rip),%rsi        # 42c6 <comp_td_point_to_point_delay+0x17e>
    42c6:	8b 45 f8             	mov    -0x8(%rbp),%eax
    42c9:	48 63 d0             	movslq %eax,%rdx
    42cc:	48 89 d0             	mov    %rdx,%rax
    42cf:	48 c1 e0 02          	shl    $0x2,%rax
    42d3:	48 01 d0             	add    %rdx,%rax
    42d6:	48 c1 e0 03          	shl    $0x3,%rax
    42da:	48 01 f0             	add    %rsi,%rax
    42dd:	8b 40 1c             	mov    0x1c(%rax),%eax
    42e0:	89 ca                	mov    %ecx,%edx
    42e2:	29 c2                	sub    %eax,%edx
    42e4:	89 d0                	mov    %edx,%eax
    42e6:	c1 f8 1f             	sar    $0x1f,%eax
    42e9:	31 c2                	xor    %eax,%edx
    42eb:	89 55 d8             	mov    %edx,-0x28(%rbp)
    42ee:	29 45 d8             	sub    %eax,-0x28(%rbp)
    42f1:	48 8b 05 00 00 00 00 	mov    0x0(%rip),%rax        # 42f8 <comp_td_point_to_point_delay+0x1b0>
    42f8:	48 39 45 f0          	cmp    %rax,-0x10(%rbp)
    42fc:	75 66                	jne    4364 <comp_td_point_to_point_delay+0x21c>
    42fe:	48 8b 05 00 00 00 00 	mov    0x0(%rip),%rax        # 4305 <comp_td_point_to_point_delay+0x1bd>
    4305:	48 39 45 e0          	cmp    %rax,-0x20(%rbp)
    4309:	75 2e                	jne    4339 <comp_td_point_to_point_delay+0x1f1>
    430b:	48 8b 05 00 00 00 00 	mov    0x0(%rip),%rax        # 4312 <comp_td_point_to_point_delay+0x1ca>
    4312:	8b 55 dc             	mov    -0x24(%rbp),%edx
    4315:	48 63 d2             	movslq %edx,%rdx
    4318:	48 c1 e2 03          	shl    $0x3,%rdx
    431c:	48 01 d0             	add    %rdx,%rax
    431f:	48 8b 00             	mov    (%rax),%rax
    4322:	8b 55 d8             	mov    -0x28(%rbp),%edx
    4325:	48 63 d2             	movslq %edx,%rdx
    4328:	48 c1 e2 02          	shl    $0x2,%rdx
    432c:	48 01 d0             	add    %rdx,%rax
    432f:	8b 00                	mov    (%rax),%eax
    4331:	89 45 fc             	mov    %eax,-0x4(%rbp)
    4334:	e9 8c 00 00 00       	jmpq   43c5 <comp_td_point_to_point_delay+0x27d>
    4339:	48 8b 05 00 00 00 00 	mov    0x0(%rip),%rax        # 4340 <comp_td_point_to_point_delay+0x1f8>
    4340:	8b 55 dc             	mov    -0x24(%rbp),%edx
    4343:	48 63 d2             	movslq %edx,%rdx
    4346:	48 c1 e2 03          	shl    $0x3,%rdx
    434a:	48 01 d0             	add    %rdx,%rax
    434d:	48 8b 00             	mov    (%rax),%rax
    4350:	8b 55 d8             	mov    -0x28(%rbp),%edx
    4353:	48 63 d2             	movslq %edx,%rdx
    4356:	48 c1 e2 02          	shl    $0x2,%rdx
    435a:	48 01 d0             	add    %rdx,%rax
    435d:	8b 00                	mov    (%rax),%eax
    435f:	89 45 fc             	mov    %eax,-0x4(%rbp)
    4362:	eb 61                	jmp    43c5 <comp_td_point_to_point_delay+0x27d>
    4364:	48 8b 05 00 00 00 00 	mov    0x0(%rip),%rax        # 436b <comp_td_point_to_point_delay+0x223>
    436b:	48 39 45 e0          	cmp    %rax,-0x20(%rbp)
    436f:	75 2b                	jne    439c <comp_td_point_to_point_delay+0x254>
    4371:	48 8b 05 00 00 00 00 	mov    0x0(%rip),%rax        # 4378 <comp_td_point_to_point_delay+0x230>
    4378:	8b 55 dc             	mov    -0x24(%rbp),%edx
    437b:	48 63 d2             	movslq %edx,%rdx
    437e:	48 c1 e2 03          	shl    $0x3,%rdx
    4382:	48 01 d0             	add    %rdx,%rax
    4385:	48 8b 00             	mov    (%rax),%rax
    4388:	8b 55 d8             	mov    -0x28(%rbp),%edx
    438b:	48 63 d2             	movslq %edx,%rdx
    438e:	48 c1 e2 02          	shl    $0x2,%rdx
    4392:	48 01 d0             	add    %rdx,%rax
    4395:	8b 00                	mov    (%rax),%eax
    4397:	89 45 fc             	mov    %eax,-0x4(%rbp)
    439a:	eb 29                	jmp    43c5 <comp_td_point_to_point_delay+0x27d>
    439c:	48 8b 05 00 00 00 00 	mov    0x0(%rip),%rax        # 43a3 <comp_td_point_to_point_delay+0x25b>
    43a3:	8b 55 dc             	mov    -0x24(%rbp),%edx
    43a6:	48 63 d2             	movslq %edx,%rdx
    43a9:	48 c1 e2 03          	shl    $0x3,%rdx
    43ad:	48 01 d0             	add    %rdx,%rax
    43b0:	48 8b 00             	mov    (%rax),%rax
    43b3:	8b 55 d8             	mov    -0x28(%rbp),%edx
    43b6:	48 63 d2             	movslq %edx,%rdx
    43b9:	48 c1 e2 02          	shl    $0x2,%rdx
    43bd:	48 01 d0             	add    %rdx,%rax
    43c0:	8b 00                	mov    (%rax),%eax
    43c2:	89 45 fc             	mov    %eax,-0x4(%rbp)
    43c5:	0f 57 c0             	xorps  %xmm0,%xmm0
    43c8:	0f 2e 45 fc          	ucomiss -0x4(%rbp),%xmm0
    43cc:	76 14                	jbe    43e2 <comp_td_point_to_point_delay+0x29a>
    43ce:	bf 00 00 00 00       	mov    $0x0,%edi
    43d3:	e8 00 00 00 00       	callq  43d8 <comp_td_point_to_point_delay+0x290>
    43d8:	bf 01 00 00 00       	mov    $0x1,%edi
    43dd:	e8 00 00 00 00       	callq  43e2 <comp_td_point_to_point_delay+0x29a>
    43e2:	0f 57 c0             	xorps  %xmm0,%xmm0
    43e5:	0f 2e 45 fc          	ucomiss -0x4(%rbp),%xmm0
    43e9:	76 14                	jbe    43ff <comp_td_point_to_point_delay+0x2b7>
    43eb:	bf 00 00 00 00       	mov    $0x0,%edi
    43f0:	e8 00 00 00 00       	callq  43f5 <comp_td_point_to_point_delay+0x2ad>
    43f5:	bf 01 00 00 00       	mov    $0x1,%edi
    43fa:	e8 00 00 00 00       	callq  43ff <comp_td_point_to_point_delay+0x2b7>
    43ff:	8b 45 fc             	mov    -0x4(%rbp),%eax
    4402:	89 45 c4             	mov    %eax,-0x3c(%rbp)
    4405:	f3 0f 10 45 c4       	movss  -0x3c(%rbp),%xmm0
    440a:	c9                   	leaveq 
    440b:	c3                   	retq   

000000000000440c <update_td_cost>:
    440c:	55                   	push   %rbp
    440d:	48 89 e5             	mov    %rsp,%rbp
    4410:	48 83 ec 20          	sub    $0x20,%rsp
    4414:	e8 00 00 00 00       	callq  4419 <update_td_cost+0xd>
    4419:	89 7d ec             	mov    %edi,-0x14(%rbp)
    441c:	89 75 e8             	mov    %esi,-0x18(%rbp)
    441f:	89 55 e4             	mov    %edx,-0x1c(%rbp)
    4422:	c7 45 fc 00 00 00 00 	movl   $0x0,-0x4(%rbp)
    4429:	e9 1d 03 00 00       	jmpq   474b <update_td_cost+0x33f>
    442e:	48 8b 0d 00 00 00 00 	mov    0x0(%rip),%rcx        # 4435 <update_td_cost+0x29>
    4435:	8b 45 ec             	mov    -0x14(%rbp),%eax
    4438:	48 63 d0             	movslq %eax,%rdx
    443b:	48 89 d0             	mov    %rdx,%rax
    443e:	48 c1 e0 02          	shl    $0x2,%rax
    4442:	48 01 d0             	add    %rdx,%rax
    4445:	48 c1 e0 03          	shl    $0x3,%rax
    4449:	48 01 c8             	add    %rcx,%rax
    444c:	48 8b 40 10          	mov    0x10(%rax),%rax
    4450:	8b 55 fc             	mov    -0x4(%rbp),%edx
    4453:	48 63 d2             	movslq %edx,%rdx
    4456:	48 c1 e2 02          	shl    $0x2,%rdx
    445a:	48 01 d0             	add    %rdx,%rax
    445d:	8b 00                	mov    (%rax),%eax
    445f:	89 45 f4             	mov    %eax,-0xc(%rbp)
    4462:	83 7d f4 ff          	cmpl   $0xffffffff,-0xc(%rbp)
    4466:	0f 84 d7 02 00 00    	je     4743 <update_td_cost+0x337>
    446c:	48 8b 0d 00 00 00 00 	mov    0x0(%rip),%rcx        # 4473 <update_td_cost+0x67>
    4473:	8b 45 f4             	mov    -0xc(%rbp),%eax
    4476:	48 63 d0             	movslq %eax,%rdx
    4479:	48 89 d0             	mov    %rdx,%rax
    447c:	48 c1 e0 02          	shl    $0x2,%rax
    4480:	48 01 d0             	add    %rdx,%rax
    4483:	48 c1 e0 03          	shl    $0x3,%rax
    4487:	48 01 c8             	add    %rcx,%rax
    448a:	8b 40 20             	mov    0x20(%rax),%eax
    448d:	85 c0                	test   %eax,%eax
    448f:	0f 85 b1 02 00 00    	jne    4746 <update_td_cost+0x33a>
    4495:	48 8b 05 00 00 00 00 	mov    0x0(%rip),%rax        # 449c <update_td_cost+0x90>
    449c:	8b 55 ec             	mov    -0x14(%rbp),%edx
    449f:	48 63 d2             	movslq %edx,%rdx
    44a2:	48 c1 e2 03          	shl    $0x3,%rdx
    44a6:	48 01 d0             	add    %rdx,%rax
    44a9:	48 8b 00             	mov    (%rax),%rax
    44ac:	8b 55 fc             	mov    -0x4(%rbp),%edx
    44af:	48 63 d2             	movslq %edx,%rdx
    44b2:	48 c1 e2 02          	shl    $0x2,%rdx
    44b6:	48 01 d0             	add    %rdx,%rax
    44b9:	8b 00                	mov    (%rax),%eax
    44bb:	89 45 f0             	mov    %eax,-0x10(%rbp)
    44be:	83 7d f0 00          	cmpl   $0x0,-0x10(%rbp)
    44c2:	0f 84 4f 01 00 00    	je     4617 <update_td_cost+0x20b>
    44c8:	48 8b 0d 00 00 00 00 	mov    0x0(%rip),%rcx        # 44cf <update_td_cost+0xc3>
    44cf:	8b 45 f4             	mov    -0xc(%rbp),%eax
    44d2:	48 63 d0             	movslq %eax,%rdx
    44d5:	48 89 d0             	mov    %rdx,%rax
    44d8:	48 c1 e0 02          	shl    $0x2,%rax
    44dc:	48 01 d0             	add    %rdx,%rax
    44df:	48 c1 e0 03          	shl    $0x3,%rax
    44e3:	48 01 c8             	add    %rcx,%rax
    44e6:	48 8b 40 10          	mov    0x10(%rax),%rax
    44ea:	8b 00                	mov    (%rax),%eax
    44ec:	3b 45 e8             	cmp    -0x18(%rbp),%eax
    44ef:	0f 84 52 02 00 00    	je     4747 <update_td_cost+0x33b>
    44f5:	48 8b 0d 00 00 00 00 	mov    0x0(%rip),%rcx        # 44fc <update_td_cost+0xf0>
    44fc:	8b 45 f4             	mov    -0xc(%rbp),%eax
    44ff:	48 63 d0             	movslq %eax,%rdx
    4502:	48 89 d0             	mov    %rdx,%rax
    4505:	48 c1 e0 02          	shl    $0x2,%rax
    4509:	48 01 d0             	add    %rdx,%rax
    450c:	48 c1 e0 03          	shl    $0x3,%rax
    4510:	48 01 c8             	add    %rcx,%rax
    4513:	48 8b 40 10          	mov    0x10(%rax),%rax
    4517:	8b 00                	mov    (%rax),%eax
    4519:	3b 45 ec             	cmp    -0x14(%rbp),%eax
    451c:	0f 84 25 02 00 00    	je     4747 <update_td_cost+0x33b>
    4522:	48 8b 05 00 00 00 00 	mov    0x0(%rip),%rax        # 4529 <update_td_cost+0x11d>
    4529:	8b 55 f4             	mov    -0xc(%rbp),%edx
    452c:	48 63 d2             	movslq %edx,%rdx
    452f:	48 c1 e2 03          	shl    $0x3,%rdx
    4533:	48 01 d0             	add    %rdx,%rax
    4536:	48 8b 00             	mov    (%rax),%rax
    4539:	8b 55 f0             	mov    -0x10(%rbp),%edx
    453c:	48 63 d2             	movslq %edx,%rdx
    453f:	48 c1 e2 02          	shl    $0x2,%rdx
    4543:	48 01 c2             	add    %rax,%rdx
    4546:	48 8b 05 00 00 00 00 	mov    0x0(%rip),%rax        # 454d <update_td_cost+0x141>
    454d:	8b 4d f4             	mov    -0xc(%rbp),%ecx
    4550:	48 63 c9             	movslq %ecx,%rcx
    4553:	48 c1 e1 03          	shl    $0x3,%rcx
    4557:	48 01 c8             	add    %rcx,%rax
    455a:	48 8b 00             	mov    (%rax),%rax
    455d:	8b 4d f0             	mov    -0x10(%rbp),%ecx
    4560:	48 63 c9             	movslq %ecx,%rcx
    4563:	48 c1 e1 02          	shl    $0x2,%rcx
    4567:	48 01 c8             	add    %rcx,%rax
    456a:	8b 00                	mov    (%rax),%eax
    456c:	89 02                	mov    %eax,(%rdx)
    456e:	48 8b 05 00 00 00 00 	mov    0x0(%rip),%rax        # 4575 <update_td_cost+0x169>
    4575:	8b 55 f4             	mov    -0xc(%rbp),%edx
    4578:	48 63 d2             	movslq %edx,%rdx
    457b:	48 c1 e2 03          	shl    $0x3,%rdx
    457f:	48 01 d0             	add    %rdx,%rax
    4582:	48 8b 00             	mov    (%rax),%rax
    4585:	8b 55 f0             	mov    -0x10(%rbp),%edx
    4588:	48 63 d2             	movslq %edx,%rdx
    458b:	48 c1 e2 02          	shl    $0x2,%rdx
    458f:	48 01 c2             	add    %rax,%rdx
    4592:	8b 05 00 00 00 00    	mov    0x0(%rip),%eax        # 4598 <update_td_cost+0x18c>
    4598:	89 02                	mov    %eax,(%rdx)
    459a:	48 8b 05 00 00 00 00 	mov    0x0(%rip),%rax        # 45a1 <update_td_cost+0x195>
    45a1:	8b 55 f4             	mov    -0xc(%rbp),%edx
    45a4:	48 63 d2             	movslq %edx,%rdx
    45a7:	48 c1 e2 03          	shl    $0x3,%rdx
    45ab:	48 01 d0             	add    %rdx,%rax
    45ae:	48 8b 00             	mov    (%rax),%rax
    45b1:	8b 55 f0             	mov    -0x10(%rbp),%edx
    45b4:	48 63 d2             	movslq %edx,%rdx
    45b7:	48 c1 e2 02          	shl    $0x2,%rdx
    45bb:	48 01 c2             	add    %rax,%rdx
    45be:	48 8b 05 00 00 00 00 	mov    0x0(%rip),%rax        # 45c5 <update_td_cost+0x1b9>
    45c5:	8b 4d f4             	mov    -0xc(%rbp),%ecx
    45c8:	48 63 c9             	movslq %ecx,%rcx
    45cb:	48 c1 e1 03          	shl    $0x3,%rcx
    45cf:	48 01 c8             	add    %rcx,%rax
    45d2:	48 8b 00             	mov    (%rax),%rax
    45d5:	8b 4d f0             	mov    -0x10(%rbp),%ecx
    45d8:	48 63 c9             	movslq %ecx,%rcx
    45db:	48 c1 e1 02          	shl    $0x2,%rcx
    45df:	48 01 c8             	add    %rcx,%rax
    45e2:	8b 00                	mov    (%rax),%eax
    45e4:	89 02                	mov    %eax,(%rdx)
    45e6:	48 8b 05 00 00 00 00 	mov    0x0(%rip),%rax        # 45ed <update_td_cost+0x1e1>
    45ed:	8b 55 f4             	mov    -0xc(%rbp),%edx
    45f0:	48 63 d2             	movslq %edx,%rdx
    45f3:	48 c1 e2 03          	shl    $0x3,%rdx
    45f7:	48 01 d0             	add    %rdx,%rax
    45fa:	48 8b 00             	mov    (%rax),%rax
    45fd:	8b 55 f0             	mov    -0x10(%rbp),%edx
    4600:	48 63 d2             	movslq %edx,%rdx
    4603:	48 c1 e2 02          	shl    $0x2,%rdx
    4607:	48 01 c2             	add    %rax,%rdx
    460a:	8b 05 00 00 00 00    	mov    0x0(%rip),%eax        # 4610 <update_td_cost+0x204>
    4610:	89 02                	mov    %eax,(%rdx)
    4612:	e9 30 01 00 00       	jmpq   4747 <update_td_cost+0x33b>
    4617:	c7 45 f8 01 00 00 00 	movl   $0x1,-0x8(%rbp)
    461e:	e9 f4 00 00 00       	jmpq   4717 <update_td_cost+0x30b>
    4623:	48 8b 05 00 00 00 00 	mov    0x0(%rip),%rax        # 462a <update_td_cost+0x21e>
    462a:	8b 55 f4             	mov    -0xc(%rbp),%edx
    462d:	48 63 d2             	movslq %edx,%rdx
    4630:	48 c1 e2 03          	shl    $0x3,%rdx
    4634:	48 01 d0             	add    %rdx,%rax
    4637:	48 8b 00             	mov    (%rax),%rax
    463a:	8b 55 f8             	mov    -0x8(%rbp),%edx
    463d:	48 63 d2             	movslq %edx,%rdx
    4640:	48 c1 e2 02          	shl    $0x2,%rdx
    4644:	48 01 c2             	add    %rax,%rdx
    4647:	48 8b 05 00 00 00 00 	mov    0x0(%rip),%rax        # 464e <update_td_cost+0x242>
    464e:	8b 4d f4             	mov    -0xc(%rbp),%ecx
    4651:	48 63 c9             	movslq %ecx,%rcx
    4654:	48 c1 e1 03          	shl    $0x3,%rcx
    4658:	48 01 c8             	add    %rcx,%rax
    465b:	48 8b 00             	mov    (%rax),%rax
    465e:	8b 4d f8             	mov    -0x8(%rbp),%ecx
    4661:	48 63 c9             	movslq %ecx,%rcx
    4664:	48 c1 e1 02          	shl    $0x2,%rcx
    4668:	48 01 c8             	add    %rcx,%rax
    466b:	8b 00                	mov    (%rax),%eax
    466d:	89 02                	mov    %eax,(%rdx)
    466f:	48 8b 05 00 00 00 00 	mov    0x0(%rip),%rax        # 4676 <update_td_cost+0x26a>
    4676:	8b 55 f4             	mov    -0xc(%rbp),%edx
    4679:	48 63 d2             	movslq %edx,%rdx
    467c:	48 c1 e2 03          	shl    $0x3,%rdx
    4680:	48 01 d0             	add    %rdx,%rax
    4683:	48 8b 00             	mov    (%rax),%rax
    4686:	8b 55 f8             	mov    -0x8(%rbp),%edx
    4689:	48 63 d2             	movslq %edx,%rdx
    468c:	48 c1 e2 02          	shl    $0x2,%rdx
    4690:	48 01 c2             	add    %rax,%rdx
    4693:	8b 05 00 00 00 00    	mov    0x0(%rip),%eax        # 4699 <update_td_cost+0x28d>
    4699:	89 02                	mov    %eax,(%rdx)
    469b:	48 8b 05 00 00 00 00 	mov    0x0(%rip),%rax        # 46a2 <update_td_cost+0x296>
    46a2:	8b 55 f4             	mov    -0xc(%rbp),%edx
    46a5:	48 63 d2             	movslq %edx,%rdx
    46a8:	48 c1 e2 03          	shl    $0x3,%rdx
    46ac:	48 01 d0             	add    %rdx,%rax
    46af:	48 8b 00             	mov    (%rax),%rax
    46b2:	8b 55 f8             	mov    -0x8(%rbp),%edx
    46b5:	48 63 d2             	movslq %edx,%rdx
    46b8:	48 c1 e2 02          	shl    $0x2,%rdx
    46bc:	48 01 c2             	add    %rax,%rdx
    46bf:	48 8b 05 00 00 00 00 	mov    0x0(%rip),%rax        # 46c6 <update_td_cost+0x2ba>
    46c6:	8b 4d f4             	mov    -0xc(%rbp),%ecx
    46c9:	48 63 c9             	movslq %ecx,%rcx
    46cc:	48 c1 e1 03          	shl    $0x3,%rcx
    46d0:	48 01 c8             	add    %rcx,%rax
    46d3:	48 8b 00             	mov    (%rax),%rax
    46d6:	8b 4d f8             	mov    -0x8(%rbp),%ecx
    46d9:	48 63 c9             	movslq %ecx,%rcx
    46dc:	48 c1 e1 02          	shl    $0x2,%rcx
    46e0:	48 01 c8             	add    %rcx,%rax
    46e3:	8b 00                	mov    (%rax),%eax
    46e5:	89 02                	mov    %eax,(%rdx)
    46e7:	48 8b 05 00 00 00 00 	mov    0x0(%rip),%rax        # 46ee <update_td_cost+0x2e2>
    46ee:	8b 55 f4             	mov    -0xc(%rbp),%edx
    46f1:	48 63 d2             	movslq %edx,%rdx
    46f4:	48 c1 e2 03          	shl    $0x3,%rdx
    46f8:	48 01 d0             	add    %rdx,%rax
    46fb:	48 8b 00             	mov    (%rax),%rax
    46fe:	8b 55 f8             	mov    -0x8(%rbp),%edx
    4701:	48 63 d2             	movslq %edx,%rdx
    4704:	48 c1 e2 02          	shl    $0x2,%rdx
    4708:	48 01 c2             	add    %rax,%rdx
    470b:	8b 05 00 00 00 00    	mov    0x0(%rip),%eax        # 4711 <update_td_cost+0x305>
    4711:	89 02                	mov    %eax,(%rdx)
    4713:	83 45 f8 01          	addl   $0x1,-0x8(%rbp)
    4717:	48 8b 0d 00 00 00 00 	mov    0x0(%rip),%rcx        # 471e <update_td_cost+0x312>
    471e:	8b 45 f4             	mov    -0xc(%rbp),%eax
    4721:	48 63 d0             	movslq %eax,%rdx
